TN:
SF:/Users/rmac/Documents/GitHub/metabuilder-small/dbal/production/include/dbal/adapters/adapter.hpp
FNL:0,111,111
FNA:0,0,_ZNK4dbal8adapters7Adapter26supportsNativeTransactionsEv
FNL:1,112,112
FNA:1,0,_ZN4dbal8adapters7Adapter16beginTransactionEv
FNL:2,113,113
FNA:2,0,_ZN4dbal8adapters7Adapter17commitTransactionEv
FNL:3,114,114
FNA:3,0,_ZN4dbal8adapters7Adapter19rollbackTransactionEv
FNL:4,17,21
FNA:4,63,_ZN4dbal8adapters10ListResultIN8nlohmann16json_abi_v3_11_310basic_jsonINSt3__13mapENS5_6vectorENS5_12basic_stringIcNS5_11char_traitsIcEENS5_9allocatorIcEEEEbxydSB_NS3_14adl_serializerENS7_IhNSB_IhEEEEvEEEC1EOSI_
FNA:4,63,_ZN4dbal8adapters10ListResultIN8nlohmann16json_abi_v3_11_310basic_jsonINSt3__13mapENS5_6vectorENS5_12basic_stringIcNS5_11char_traitsIcEENS5_9allocatorIcEEEEbxydSB_NS3_14adl_serializerENS7_IhNSB_IhEEEEvEEEC1ERKSI_
FNA:4,64,_ZN4dbal8adapters10ListResultIN8nlohmann16json_abi_v3_11_310basic_jsonINSt3__13mapENS5_6vectorENS5_12basic_stringIcNS5_11char_traitsIcEENS5_9allocatorIcEEEEbxydSB_NS3_14adl_serializerENS7_IhNSB_IhEEEEvEEEC1Ev
FNA:4,63,_ZN4dbal8adapters10ListResultIN8nlohmann16json_abi_v3_11_310basic_jsonINSt3__13mapENS5_6vectorENS5_12basic_stringIcNS5_11char_traitsIcEENS5_9allocatorIcEEEEbxydSB_NS3_14adl_serializerENS7_IhNSB_IhEEEEvEEEC2EOSI_
FNA:4,63,_ZN4dbal8adapters10ListResultIN8nlohmann16json_abi_v3_11_310basic_jsonINSt3__13mapENS5_6vectorENS5_12basic_stringIcNS5_11char_traitsIcEENS5_9allocatorIcEEEEbxydSB_NS3_14adl_serializerENS7_IhNSB_IhEEEEvEEEC2ERKSI_
FNA:4,64,_ZN4dbal8adapters10ListResultIN8nlohmann16json_abi_v3_11_310basic_jsonINSt3__13mapENS5_6vectorENS5_12basic_stringIcNS5_11char_traitsIcEENS5_9allocatorIcEEEEbxydSB_NS3_14adl_serializerENS7_IhNSB_IhEEEEvEEEC2Ev
FNA:4,190,_ZN4dbal8adapters10ListResultIN8nlohmann16json_abi_v3_11_310basic_jsonINSt3__13mapENS5_6vectorENS5_12basic_stringIcNS5_11char_traitsIcEENS5_9allocatorIcEEEEbxydSB_NS3_14adl_serializerENS7_IhNSB_IhEEEEvEEED1Ev
FNA:4,190,_ZN4dbal8adapters10ListResultIN8nlohmann16json_abi_v3_11_310basic_jsonINSt3__13mapENS5_6vectorENS5_12basic_stringIcNS5_11char_traitsIcEENS5_9allocatorIcEEEEbxydSB_NS3_14adl_serializerENS7_IhNSB_IhEEEEvEEED2Ev
FNL:5,25,37
FNA:5,406,_ZN4dbal8adapters11EntityFieldC1EOS1_
FNA:5,5292,_ZN4dbal8adapters11EntityFieldC1ERKS1_
FNA:5,406,_ZN4dbal8adapters11EntityFieldC1Ev
FNA:5,406,_ZN4dbal8adapters11EntityFieldC2EOS1_
FNA:5,5292,_ZN4dbal8adapters11EntityFieldC2ERKS1_
FNA:5,406,_ZN4dbal8adapters11EntityFieldC2Ev
FNA:5,6104,_ZN4dbal8adapters11EntityFieldD1Ev
FNA:5,6104,_ZN4dbal8adapters11EntityFieldD2Ev
FNA:5,0,_ZN4dbal8adapters11EntityFieldaSERKS1_
FNL:6,41,46
FNA:6,0,_ZN4dbal8adapters11RelationDefC1EOS1_
FNA:6,0,_ZN4dbal8adapters11RelationDefC1ERKS1_
FNA:6,0,_ZN4dbal8adapters11RelationDefC1Ev
FNA:6,0,_ZN4dbal8adapters11RelationDefC2EOS1_
FNA:6,0,_ZN4dbal8adapters11RelationDefC2ERKS1_
FNA:6,0,_ZN4dbal8adapters11RelationDefC2Ev
FNA:6,0,_ZN4dbal8adapters11RelationDefD1Ev
FNA:6,0,_ZN4dbal8adapters11RelationDefD2Ev
FNA:6,0,_ZN4dbal8adapters11RelationDefaSERKS1_
FNL:7,50,50
FNA:7,3,_ZN4dbal8adapters11QueryConfigC1EOS1_
FNA:7,584,_ZN4dbal8adapters11QueryConfigC1ERKS1_
FNA:7,3,_ZN4dbal8adapters11QueryConfigC2EOS1_
FNA:7,584,_ZN4dbal8adapters11QueryConfigC2ERKS1_
FNA:7,761,_ZN4dbal8adapters11QueryConfigD1Ev
FNA:7,761,_ZN4dbal8adapters11QueryConfigD2Ev
FNA:7,114,_ZN4dbal8adapters11QueryConfigaSERKS1_
FNL:8,59,66
FNA:8,3,_ZN4dbal8adapters12EntitySchemaC1EOS1_
FNA:8,584,_ZN4dbal8adapters12EntitySchemaC1ERKS1_
FNA:8,174,_ZN4dbal8adapters12EntitySchemaC1Ev
FNA:8,3,_ZN4dbal8adapters12EntitySchemaC2EOS1_
FNA:8,584,_ZN4dbal8adapters12EntitySchemaC2ERKS1_
FNA:8,174,_ZN4dbal8adapters12EntitySchemaC2Ev
FNA:8,761,_ZN4dbal8adapters12EntitySchemaD1Ev
FNA:8,761,_ZN4dbal8adapters12EntitySchemaD2Ev
FNA:8,114,_ZN4dbal8adapters12EntitySchemaaSERKS1_
FNL:9,77
FNA:9,106,_ZN4dbal8adapters7AdapterC2Ev
FNL:10,79,79
FNA:10,0,_ZN4dbal8adapters7AdapterD0Ev
FNA:10,0,_ZN4dbal8adapters7AdapterD1Ev
FNA:10,106,_ZN4dbal8adapters7AdapterD2Ev
FNF:11
FNH:6
DA:17,64
DA:18,64
DA:19,64
DA:20,64
DA:21,64
DA:25,5698
DA:26,406
DA:27,406
DA:28,406
DA:29,406
DA:30,406
DA:31,406
DA:32,406
DA:34,406
DA:35,406
DA:36,406
DA:37,406
DA:41,0
DA:46,0
DA:50,584
DA:59,758
DA:60,174
DA:61,174
DA:62,174
DA:63,174
DA:64,174
DA:65,174
DA:66,174
DA:79,106
DA:111,0
DA:112,0
DA:113,0
DA:114,0
LF:33
LH:27
end_of_record
TN:
SF:/Users/rmac/Documents/GitHub/metabuilder-small/dbal/production/include/dbal/core/connection_validator.hpp
FNL:0,13,19
FNA:0,0,_ZN4dbal4core16ValidationResultD1Ev
FNA:0,0,_ZN4dbal4core16ValidationResultD2Ev
FNL:1,19,19
FNA:1,0,_ZN4dbal4core16ValidationResultC1Ev
FNA:1,0,_ZN4dbal4core16ValidationResultC2Ev
FNL:2,21,27
FNA:2,0,_ZN4dbal4core16ValidationResult7successERKNSt3__112basic_stringIcNS2_11char_traitsIcEENS2_9allocatorIcEEEESA_
FNL:3,29,34
FNA:3,0,_ZN4dbal4core16ValidationResult7failureERKNSt3__112basic_stringIcNS2_11char_traitsIcEENS2_9allocatorIcEEEE
FNF:4
FNH:0
DA:19,0
DA:21,0
DA:22,0
DA:23,0
DA:24,0
DA:25,0
DA:26,0
DA:27,0
DA:29,0
DA:30,0
DA:31,0
DA:32,0
DA:33,0
DA:34,0
LF:14
LH:0
end_of_record
TN:
SF:/Users/rmac/Documents/GitHub/metabuilder-small/dbal/production/include/dbal/core/entity_loader.hpp
FNL:0,13,21
FNA:0,343,_ZN4dbal4core11EntityFieldC1EOS1_
FNA:0,3801,_ZN4dbal4core11EntityFieldC1ERKS1_
FNA:0,343,_ZN4dbal4core11EntityFieldC1Ev
FNA:0,343,_ZN4dbal4core11EntityFieldC2EOS1_
FNA:0,3801,_ZN4dbal4core11EntityFieldC2ERKS1_
FNA:0,343,_ZN4dbal4core11EntityFieldC2Ev
FNA:0,4487,_ZN4dbal4core11EntityFieldD1Ev
FNA:0,4487,_ZN4dbal4core11EntityFieldD2Ev
FNA:0,0,_ZN4dbal4core11EntityFieldaSERKS1_
FNL:1,31,33
FNA:1,0,_ZN4dbal4core11EntityIndexC1EOS1_
FNA:1,543,_ZN4dbal4core11EntityIndexC1ERKS1_
FNA:1,49,_ZN4dbal4core11EntityIndexC1Ev
FNA:1,0,_ZN4dbal4core11EntityIndexC2EOS1_
FNA:1,543,_ZN4dbal4core11EntityIndexC2ERKS1_
FNA:1,49,_ZN4dbal4core11EntityIndexC2Ev
FNA:1,592,_ZN4dbal4core11EntityIndexD1Ev
FNA:1,592,_ZN4dbal4core11EntityIndexD2Ev
FNA:1,0,_ZN4dbal4core11EntityIndexaSERKS1_
FNL:2,37,37
FNA:2,445,_ZN4dbal4core12EntitySchemaC1ERKS1_
FNA:2,98,_ZN4dbal4core12EntitySchemaC1Ev
FNA:2,445,_ZN4dbal4core12EntitySchemaC2ERKS1_
FNA:2,98,_ZN4dbal4core12EntitySchemaC2Ev
FNA:2,543,_ZN4dbal4core12EntitySchemaD1Ev
FNA:2,543,_ZN4dbal4core12EntitySchemaD2Ev
FNA:2,49,_ZN4dbal4core12EntitySchemaaSERKS1_
FNL:3,47,47
FNA:3,0,_ZN4dbal4core12EntitySchema3ACLC1EOS2_
FNA:3,0,_ZN4dbal4core12EntitySchema3ACLC1ERKS2_
FNA:3,0,_ZN4dbal4core12EntitySchema3ACLC1Ev
FNA:3,0,_ZN4dbal4core12EntitySchema3ACLC2EOS2_
FNA:3,0,_ZN4dbal4core12EntitySchema3ACLC2ERKS2_
FNA:3,0,_ZN4dbal4core12EntitySchema3ACLC2Ev
FNA:3,0,_ZN4dbal4core12EntitySchema3ACLD1Ev
FNA:3,0,_ZN4dbal4core12EntitySchema3ACLD2Ev
FNA:3,0,_ZN4dbal4core12EntitySchema3ACLaSEOS2_
FNA:3,0,_ZN4dbal4core12EntitySchema3ACLaSERKS2_
FNF:4
FNH:3
DA:13,4144
DA:16,343
DA:17,343
DA:18,343
DA:19,343
DA:20,343
DA:21,343
DA:31,592
DA:33,49
DA:37,445
DA:47,0
LF:11
LH:10
end_of_record
TN:
SF:/Users/rmac/Documents/GitHub/metabuilder-small/dbal/production/include/dbal/core/error.hpp
FNL:0,41,48
FNA:0,31,_ZN4dbal5ErrorC1EOS0_
FNA:0,0,_ZN4dbal5ErrorC1ERKS0_
FNA:0,31,_ZN4dbal5ErrorC2EOS0_
FNA:0,0,_ZN4dbal5ErrorC2ERKS0_
FNA:0,0,_ZN4dbal5ErrorD0Ev
FNA:0,2752,_ZN4dbal5ErrorD1Ev
FNA:0,2752,_ZN4dbal5ErrorD2Ev
FNL:1,48,49
FNA:1,2721,_ZN4dbal5ErrorC1ENS_9ErrorCodeERKNSt3__112basic_stringIcNS2_11char_traitsIcEENS2_9allocatorIcEEEE
FNA:1,2721,_ZN4dbal5ErrorC2ENS_9ErrorCodeERKNSt3__112basic_stringIcNS2_11char_traitsIcEENS2_9allocatorIcEEEE
FNL:2,55,55
FNA:2,0,_ZNK4dbal5Error4codeEv
FNF:3
FNH:2
DA:48,5442
DA:49,5442
DA:55,0
LF:3
LH:2
end_of_record
TN:
SF:/Users/rmac/Documents/GitHub/metabuilder-small/dbal/production/include/dbal/core/error_result.hpp
FNL:0,115,115
FNA:0,6,_ZNK4dbal6ResultIN8nlohmann16json_abi_v3_11_310basic_jsonINSt3__13mapENS4_6vectorENS4_12basic_stringIcNS4_11char_traitsIcEENS4_9allocatorIcEEEEbxydSA_NS2_14adl_serializerENS6_IhNSA_IhEEEEvEEE8hasValueEv
FNA:0,39,_ZNK4dbal6ResultINSt3__16vectorIN8nlohmann16json_abi_v3_11_310basic_jsonINS1_3mapES2_NS1_12basic_stringIcNS1_11char_traitsIcEENS1_9allocatorIcEEEEbxydSA_NS4_14adl_serializerENS2_IhNSA_IhEEEEvEENSA_ISG_EEEEE8hasValueEv
FNA:0,542,_ZNK4dbal6ResultIP12sqlite3_stmtE8hasValueEv
FNA:0,675,_ZNK4dbal6ResultIbE8hasValueEv
FNA:0,3,_ZNK4dbal6ResultIiE8hasValueEv
FNA:0,402,_ZNK4dbal6ResultIxE8hasValueEv
FNL:1,121,145
FNA:1,0,_ZNK4dbal6ResultIN8nlohmann16json_abi_v3_11_310basic_jsonINSt3__13mapENS4_6vectorENS4_12basic_stringIcNS4_11char_traitsIcEENS4_9allocatorIcEEEEbxydSA_NS2_14adl_serializerENS6_IhNSA_IhEEEEvEEEcvbEv
FNA:1,2,_ZNK4dbal6ResultIbEcvbEv
FNL:2,45,51
FNA:2,896,_ZN4dbal6ResultIN8nlohmann16json_abi_v3_11_310basic_jsonINSt3__13mapENS4_6vectorENS4_12basic_stringIcNS4_11char_traitsIcEENS4_9allocatorIcEEEEbxydSA_NS2_14adl_serializerENS6_IhNSA_IhEEEEvEEED1Ev
FNA:2,896,_ZN4dbal6ResultIN8nlohmann16json_abi_v3_11_310basic_jsonINSt3__13mapENS4_6vectorENS4_12basic_stringIcNS4_11char_traitsIcEENS4_9allocatorIcEEEEbxydSA_NS2_14adl_serializerENS6_IhNSA_IhEEEEvEEED2Ev
FNA:2,64,_ZN4dbal6ResultINS_8adapters10ListResultIN8nlohmann16json_abi_v3_11_310basic_jsonINSt3__13mapENS6_6vectorENS6_12basic_stringIcNS6_11char_traitsIcEENS6_9allocatorIcEEEEbxydSC_NS4_14adl_serializerENS8_IhNSC_IhEEEEvEEEEED1Ev
FNA:2,64,_ZN4dbal6ResultINS_8adapters10ListResultIN8nlohmann16json_abi_v3_11_310basic_jsonINSt3__13mapENS6_6vectorENS6_12basic_stringIcNS6_11char_traitsIcEENS6_9allocatorIcEEEEbxydSC_NS4_14adl_serializerENS8_IhNSC_IhEEEEvEEEEED2Ev
FNA:2,5,_ZN4dbal6ResultINS_8adapters12EntitySchemaEED1Ev
FNA:2,5,_ZN4dbal6ResultINS_8adapters12EntitySchemaEED2Ev
FNA:2,39,_ZN4dbal6ResultINSt3__16vectorIN8nlohmann16json_abi_v3_11_310basic_jsonINS1_3mapES2_NS1_12basic_stringIcNS1_11char_traitsIcEENS1_9allocatorIcEEEEbxydSA_NS4_14adl_serializerENS2_IhNSA_IhEEEEvEENSA_ISG_EEEEED1Ev
FNA:2,39,_ZN4dbal6ResultINSt3__16vectorIN8nlohmann16json_abi_v3_11_310basic_jsonINS1_3mapES2_NS1_12basic_stringIcNS1_11char_traitsIcEENS1_9allocatorIcEEEEbxydSA_NS4_14adl_serializerENS2_IhNSA_IhEEEEvEENSA_ISG_EEEEED2Ev
FNA:2,3,_ZN4dbal6ResultINSt3__16vectorINS1_12basic_stringIcNS1_11char_traitsIcEENS1_9allocatorIcEEEENS6_IS8_EEEEED1Ev
FNA:2,3,_ZN4dbal6ResultINSt3__16vectorINS1_12basic_stringIcNS1_11char_traitsIcEENS1_9allocatorIcEEEENS6_IS8_EEEEED2Ev
FNA:2,542,_ZN4dbal6ResultIP12sqlite3_stmtED1Ev
FNA:2,542,_ZN4dbal6ResultIP12sqlite3_stmtED2Ev
FNA:2,693,_ZN4dbal6ResultIbED1Ev
FNA:2,693,_ZN4dbal6ResultIbED2Ev
FNA:2,77,_ZN4dbal6ResultIiED1Ev
FNA:2,77,_ZN4dbal6ResultIiED2Ev
FNA:2,402,_ZN4dbal6ResultIxED1Ev
FNA:2,402,_ZN4dbal6ResultIxED2Ev
FNL:3,51,51
FNA:3,879,_ZN4dbal6ResultIN8nlohmann16json_abi_v3_11_310basic_jsonINSt3__13mapENS4_6vectorENS4_12basic_stringIcNS4_11char_traitsIcEENS4_9allocatorIcEEEEbxydSA_NS2_14adl_serializerENS6_IhNSA_IhEEEEvEEEC1ESG_
FNA:3,879,_ZN4dbal6ResultIN8nlohmann16json_abi_v3_11_310basic_jsonINSt3__13mapENS4_6vectorENS4_12basic_stringIcNS4_11char_traitsIcEENS4_9allocatorIcEEEEbxydSA_NS2_14adl_serializerENS6_IhNSA_IhEEEEvEEEC2ESG_
FNA:3,63,_ZN4dbal6ResultINS_8adapters10ListResultIN8nlohmann16json_abi_v3_11_310basic_jsonINSt3__13mapENS6_6vectorENS6_12basic_stringIcNS6_11char_traitsIcEENS6_9allocatorIcEEEEbxydSC_NS4_14adl_serializerENS8_IhNSC_IhEEEEvEEEEEC1ESJ_
FNA:3,63,_ZN4dbal6ResultINS_8adapters10ListResultIN8nlohmann16json_abi_v3_11_310basic_jsonINSt3__13mapENS6_6vectorENS6_12basic_stringIcNS6_11char_traitsIcEENS6_9allocatorIcEEEEbxydSC_NS4_14adl_serializerENS8_IhNSC_IhEEEEvEEEEEC2ESJ_
FNA:3,3,_ZN4dbal6ResultINS_8adapters12EntitySchemaEEC1ES2_
FNA:3,3,_ZN4dbal6ResultINS_8adapters12EntitySchemaEEC2ES2_
FNA:3,39,_ZN4dbal6ResultINSt3__16vectorIN8nlohmann16json_abi_v3_11_310basic_jsonINS1_3mapES2_NS1_12basic_stringIcNS1_11char_traitsIcEENS1_9allocatorIcEEEEbxydSA_NS4_14adl_serializerENS2_IhNSA_IhEEEEvEENSA_ISG_EEEEEC1ESI_
FNA:3,39,_ZN4dbal6ResultINSt3__16vectorIN8nlohmann16json_abi_v3_11_310basic_jsonINS1_3mapES2_NS1_12basic_stringIcNS1_11char_traitsIcEENS1_9allocatorIcEEEEbxydSA_NS4_14adl_serializerENS2_IhNSA_IhEEEEvEENSA_ISG_EEEEEC2ESI_
FNA:3,3,_ZN4dbal6ResultINSt3__16vectorINS1_12basic_stringIcNS1_11char_traitsIcEENS1_9allocatorIcEEEENS6_IS8_EEEEEC1ESA_
FNA:3,3,_ZN4dbal6ResultINSt3__16vectorINS1_12basic_stringIcNS1_11char_traitsIcEENS1_9allocatorIcEEEENS6_IS8_EEEEEC2ESA_
FNA:3,542,_ZN4dbal6ResultIP12sqlite3_stmtEC1ES2_
FNA:3,542,_ZN4dbal6ResultIP12sqlite3_stmtEC2ES2_
FNA:3,688,_ZN4dbal6ResultIbEC1Eb
FNA:3,688,_ZN4dbal6ResultIbEC2Eb
FNA:3,71,_ZN4dbal6ResultIiEC1Ei
FNA:3,71,_ZN4dbal6ResultIiEC2Ei
FNA:3,402,_ZN4dbal6ResultIxEC1Ex
FNA:3,402,_ZN4dbal6ResultIxEC2Ex
FNL:4,57,57
FNA:4,17,_ZN4dbal6ResultIN8nlohmann16json_abi_v3_11_310basic_jsonINSt3__13mapENS4_6vectorENS4_12basic_stringIcNS4_11char_traitsIcEENS4_9allocatorIcEEEEbxydSA_NS2_14adl_serializerENS6_IhNSA_IhEEEEvEEEC1ENS_5ErrorE
FNA:4,17,_ZN4dbal6ResultIN8nlohmann16json_abi_v3_11_310basic_jsonINSt3__13mapENS4_6vectorENS4_12basic_stringIcNS4_11char_traitsIcEENS4_9allocatorIcEEEEbxydSA_NS2_14adl_serializerENS6_IhNSA_IhEEEEvEEEC2ENS_5ErrorE
FNA:4,1,_ZN4dbal6ResultINS_8adapters10ListResultIN8nlohmann16json_abi_v3_11_310basic_jsonINSt3__13mapENS6_6vectorENS6_12basic_stringIcNS6_11char_traitsIcEENS6_9allocatorIcEEEEbxydSC_NS4_14adl_serializerENS8_IhNSC_IhEEEEvEEEEEC1ENS_5ErrorE
FNA:4,1,_ZN4dbal6ResultINS_8adapters10ListResultIN8nlohmann16json_abi_v3_11_310basic_jsonINSt3__13mapENS6_6vectorENS6_12basic_stringIcNS6_11char_traitsIcEENS6_9allocatorIcEEEEbxydSC_NS4_14adl_serializerENS8_IhNSC_IhEEEEvEEEEEC2ENS_5ErrorE
FNA:4,2,_ZN4dbal6ResultINS_8adapters12EntitySchemaEEC1ENS_5ErrorE
FNA:4,2,_ZN4dbal6ResultINS_8adapters12EntitySchemaEEC2ENS_5ErrorE
FNA:4,0,_ZN4dbal6ResultINSt3__16vectorIN8nlohmann16json_abi_v3_11_310basic_jsonINS1_3mapES2_NS1_12basic_stringIcNS1_11char_traitsIcEENS1_9allocatorIcEEEEbxydSA_NS4_14adl_serializerENS2_IhNSA_IhEEEEvEENSA_ISG_EEEEEC1ENS_5ErrorE
FNA:4,0,_ZN4dbal6ResultINSt3__16vectorIN8nlohmann16json_abi_v3_11_310basic_jsonINS1_3mapES2_NS1_12basic_stringIcNS1_11char_traitsIcEENS1_9allocatorIcEEEEbxydSA_NS4_14adl_serializerENS2_IhNSA_IhEEEEvEENSA_ISG_EEEEEC2ENS_5ErrorE
FNA:4,0,_ZN4dbal6ResultIP12sqlite3_stmtEC1ENS_5ErrorE
FNA:4,0,_ZN4dbal6ResultIP12sqlite3_stmtEC2ENS_5ErrorE
FNA:4,5,_ZN4dbal6ResultIbEC1ENS_5ErrorE
FNA:4,5,_ZN4dbal6ResultIbEC2ENS_5ErrorE
FNA:4,6,_ZN4dbal6ResultIiEC1ENS_5ErrorE
FNA:4,6,_ZN4dbal6ResultIiEC2ENS_5ErrorE
FNA:4,0,_ZN4dbal6ResultIxEC1ENS_5ErrorE
FNA:4,0,_ZN4dbal6ResultIxEC2ENS_5ErrorE
FNL:5,63,63
FNA:5,890,_ZNK4dbal6ResultIN8nlohmann16json_abi_v3_11_310basic_jsonINSt3__13mapENS4_6vectorENS4_12basic_stringIcNS4_11char_traitsIcEENS4_9allocatorIcEEEEbxydSA_NS2_14adl_serializerENS6_IhNSA_IhEEEEvEEE4isOkEv
FNA:5,64,_ZNK4dbal6ResultINS_8adapters10ListResultIN8nlohmann16json_abi_v3_11_310basic_jsonINSt3__13mapENS6_6vectorENS6_12basic_stringIcNS6_11char_traitsIcEENS6_9allocatorIcEEEEbxydSC_NS4_14adl_serializerENS8_IhNSC_IhEEEEvEEEEE4isOkEv
FNA:5,5,_ZNK4dbal6ResultINS_8adapters12EntitySchemaEE4isOkEv
FNA:5,3,_ZNK4dbal6ResultINSt3__16vectorINS1_12basic_stringIcNS1_11char_traitsIcEENS1_9allocatorIcEEEENS6_IS8_EEEEE4isOkEv
FNA:5,20,_ZNK4dbal6ResultIbE4isOkEv
FNA:5,17,_ZNK4dbal6ResultIiE4isOkEv
FNL:6,76,78
FNA:6,22,_ZN4dbal6ResultIN8nlohmann16json_abi_v3_11_310basic_jsonINSt3__13mapENS4_6vectorENS4_12basic_stringIcNS4_11char_traitsIcEENS4_9allocatorIcEEEEbxydSA_NS2_14adl_serializerENS6_IhNSA_IhEEEEvEEE5valueEv
FNA:6,70,_ZN4dbal6ResultINS_8adapters10ListResultIN8nlohmann16json_abi_v3_11_310basic_jsonINSt3__13mapENS6_6vectorENS6_12basic_stringIcNS6_11char_traitsIcEENS6_9allocatorIcEEEEbxydSC_NS4_14adl_serializerENS8_IhNSC_IhEEEEvEEEEE5valueEv
FNA:6,5,_ZN4dbal6ResultINS_8adapters12EntitySchemaEE5valueEv
FNA:6,39,_ZN4dbal6ResultINSt3__16vectorIN8nlohmann16json_abi_v3_11_310basic_jsonINS1_3mapES2_NS1_12basic_stringIcNS1_11char_traitsIcEENS1_9allocatorIcEEEEbxydSA_NS4_14adl_serializerENS2_IhNSA_IhEEEEvEENSA_ISG_EEEEE5valueEv
FNA:6,7,_ZN4dbal6ResultINSt3__16vectorINS1_12basic_stringIcNS1_11char_traitsIcEENS1_9allocatorIcEEEENS6_IS8_EEEEE5valueEv
FNA:6,542,_ZN4dbal6ResultIP12sqlite3_stmtE5valueEv
FNA:6,14,_ZN4dbal6ResultIiE5valueEv
FNA:6,397,_ZN4dbal6ResultIxE5valueEv
FNL:7,96,99
FNA:7,0,_ZN4dbal6ResultIN8nlohmann16json_abi_v3_11_310basic_jsonINSt3__13mapENS4_6vectorENS4_12basic_stringIcNS4_11char_traitsIcEENS4_9allocatorIcEEEEbxydSA_NS2_14adl_serializerENS6_IhNSA_IhEEEEvEEE5errorEv
FNA:7,0,_ZN4dbal6ResultINS_8adapters10ListResultIN8nlohmann16json_abi_v3_11_310basic_jsonINSt3__13mapENS6_6vectorENS6_12basic_stringIcNS6_11char_traitsIcEENS6_9allocatorIcEEEEbxydSC_NS4_14adl_serializerENS8_IhNSC_IhEEEEvEEEEE5errorEv
FNA:7,0,_ZN4dbal6ResultINS_8adapters12EntitySchemaEE5errorEv
FNA:7,0,_ZN4dbal6ResultINSt3__16vectorIN8nlohmann16json_abi_v3_11_310basic_jsonINS1_3mapES2_NS1_12basic_stringIcNS1_11char_traitsIcEENS1_9allocatorIcEEEEbxydSA_NS4_14adl_serializerENS2_IhNSA_IhEEEEvEENSA_ISG_EEEEE5errorEv
FNA:7,0,_ZN4dbal6ResultINSt3__16vectorINS1_12basic_stringIcNS1_11char_traitsIcEENS1_9allocatorIcEEEENS6_IS8_EEEEE5errorEv
FNA:7,0,_ZN4dbal6ResultIP12sqlite3_stmtE5errorEv
FNA:7,0,_ZN4dbal6ResultIbE5errorEv
FNA:7,0,_ZN4dbal6ResultIiE5errorEv
FNA:7,0,_ZN4dbal6ResultIxE5errorEv
FNF:8
FNH:7
DA:51,6367
DA:57,62
DA:63,999
DA:76,1096
DA:77,1096
DA:78,1096
DA:96,0
DA:97,0
DA:98,0
DA:99,0
DA:115,1667
DA:121,2
DA:145,2690
LF:13
LH:9
end_of_record
TN:
SF:/Users/rmac/Documents/GitHub/metabuilder-small/dbal/production/include/dbal/core/loaders/schema_validator.hpp
FNL:0,19,20
FNA:0,0,_ZN4dbal4core7loaders16ValidationResultC1Ev
FNA:0,0,_ZN4dbal4core7loaders16ValidationResultC2Ev
FNA:0,0,_ZN4dbal4core7loaders16ValidationResultD1Ev
FNA:0,0,_ZN4dbal4core7loaders16ValidationResultD2Ev
FNL:1,27,30
FNA:1,0,_ZN4dbal4core7loaders16ValidationResult8addErrorERKNSt3__112basic_stringIcNS3_11char_traitsIcEENS3_9allocatorIcEEEE
FNL:2,35,37
FNA:2,0,_ZN4dbal4core7loaders16ValidationResult10addWarningERKNSt3__112basic_stringIcNS3_11char_traitsIcEENS3_9allocatorIcEEEE
FNL:3,42,42
FNA:3,0,_ZNK4dbal4core7loaders16ValidationResult7isValidEv
FNF:4
FNH:0
DA:19,0
DA:20,0
DA:27,0
DA:28,0
DA:29,0
DA:30,0
DA:35,0
DA:36,0
DA:37,0
DA:42,0
LF:10
LH:0
end_of_record
TN:
SF:/Users/rmac/Documents/GitHub/metabuilder-small/dbal/production/include/dbal/core/metadata_cache.hpp
FNL:0,19,19
FNA:0,0,_ZN4dbal4core10CacheEntryIN8nlohmann16json_abi_v3_11_310basic_jsonINSt3__13mapENS5_6vectorENS5_12basic_stringIcNS5_11char_traitsIcEENS5_9allocatorIcEEEEbxydSB_NS3_14adl_serializerENS7_IhNSB_IhEEEEvEEEC1Ev
FNA:0,0,_ZN4dbal4core10CacheEntryIN8nlohmann16json_abi_v3_11_310basic_jsonINSt3__13mapENS5_6vectorENS5_12basic_stringIcNS5_11char_traitsIcEENS5_9allocatorIcEEEEbxydSB_NS3_14adl_serializerENS7_IhNSB_IhEEEEvEEEC2Ev
FNA:0,0,_ZN4dbal4core10CacheEntryIN8nlohmann16json_abi_v3_11_310basic_jsonINSt3__13mapENS5_6vectorENS5_12basic_stringIcNS5_11char_traitsIcEENS5_9allocatorIcEEEEbxydSB_NS3_14adl_serializerENS7_IhNSB_IhEEEEvEEED1Ev
FNA:0,0,_ZN4dbal4core10CacheEntryIN8nlohmann16json_abi_v3_11_310basic_jsonINSt3__13mapENS5_6vectorENS5_12basic_stringIcNS5_11char_traitsIcEENS5_9allocatorIcEEEEbxydSB_NS3_14adl_serializerENS7_IhNSB_IhEEEEvEEED2Ev
FNA:0,0,_ZN4dbal4core10CacheEntryIN8nlohmann16json_abi_v3_11_310basic_jsonINSt3__13mapENS5_6vectorENS5_12basic_stringIcNS5_11char_traitsIcEENS5_9allocatorIcEEEEbxydSB_NS3_14adl_serializerENS7_IhNSB_IhEEEEvEEEaSERKSI_
FNA:0,0,_ZN4dbal4core10CacheEntryINSt3__16vectorINS2_12basic_stringIcNS2_11char_traitsIcEENS2_9allocatorIcEEEENS7_IS9_EEEEEC1Ev
FNA:0,0,_ZN4dbal4core10CacheEntryINSt3__16vectorINS2_12basic_stringIcNS2_11char_traitsIcEENS2_9allocatorIcEEEENS7_IS9_EEEEEC2Ev
FNL:1,23,24
FNA:1,0,_ZNK4dbal4core10CacheEntryIN8nlohmann16json_abi_v3_11_310basic_jsonINSt3__13mapENS5_6vectorENS5_12basic_stringIcNS5_11char_traitsIcEENS5_9allocatorIcEEEEbxydSB_NS3_14adl_serializerENS7_IhNSB_IhEEEEvEEE9isExpiredEv
FNA:1,0,_ZNK4dbal4core10CacheEntryINSt3__16vectorINS2_12basic_stringIcNS2_11char_traitsIcEENS2_9allocatorIcEEEENS7_IS9_EEEEE9isExpiredEv
FNF:2
FNH:0
DA:19,0
DA:23,0
DA:24,0
LF:3
LH:0
end_of_record
TN:
SF:/Users/rmac/Documents/GitHub/metabuilder-small/dbal/production/include/dbal/core/relation_def.hpp
FNL:0,12,12
FNA:0,0,_ZN4dbal4core11RelationDefC1ERKS1_
FNA:0,0,_ZN4dbal4core11RelationDefC2ERKS1_
FNA:0,0,_ZN4dbal4core11RelationDefD1Ev
FNA:0,0,_ZN4dbal4core11RelationDefD2Ev
FNA:0,0,_ZN4dbal4core11RelationDefaSERKS1_
FNF:1
FNH:0
DA:12,0
LF:1
LH:0
end_of_record
TN:
SF:/Users/rmac/Documents/GitHub/metabuilder-small/dbal/production/include/dbal/core/types.hpp
FNL:0,193,195
FNA:0,40,_ZN4dbal15FilterConditionC1EOS0_
FNA:0,14,_ZN4dbal15FilterConditionC1ERKS0_
FNA:0,6,_ZN4dbal15FilterConditionC1Ev
FNA:0,40,_ZN4dbal15FilterConditionC2EOS0_
FNA:0,14,_ZN4dbal15FilterConditionC2ERKS0_
FNA:0,6,_ZN4dbal15FilterConditionC2Ev
FNA:0,96,_ZN4dbal15FilterConditionD1Ev
FNA:0,96,_ZN4dbal15FilterConditionD2Ev
FNL:1,200
FNA:1,0,_ZN4dbal11FilterGroupC1EOS0_
FNA:1,4,_ZN4dbal11FilterGroupC1ERKS0_
FNA:1,4,_ZN4dbal11FilterGroupC1Ev
FNA:1,0,_ZN4dbal11FilterGroupC2EOS0_
FNA:1,4,_ZN4dbal11FilterGroupC2ERKS0_
FNA:1,4,_ZN4dbal11FilterGroupC2Ev
FNA:1,8,_ZN4dbal11FilterGroupD1Ev
FNA:1,8,_ZN4dbal11FilterGroupD2Ev
FNL:2,206
FNA:2,4,_ZN4dbal13AggregateSpecC1EOS0_
FNA:2,4,_ZN4dbal13AggregateSpecC2EOS0_
FNA:2,8,_ZN4dbal13AggregateSpecD1Ev
FNA:2,8,_ZN4dbal13AggregateSpecD2Ev
FNL:3,212,227
FNA:3,63,_ZN4dbal11ListOptionsC1Ev
FNA:3,63,_ZN4dbal11ListOptionsC2Ev
FNA:3,64,_ZN4dbal11ListOptionsD1Ev
FNA:3,64,_ZN4dbal11ListOptionsD2Ev
FNF:4
FNH:4
DA:193,20
DA:195,6
DA:212,126
DA:216,63
DA:217,63
DA:226,63
DA:227,63
LF:7
LH:7
end_of_record
TN:
SF:/Users/rmac/Documents/GitHub/metabuilder-small/dbal/production/src/adapters/schema_loader.hpp
FNL:0,17,25
FNA:0,1141,_ZN4dbal8adapters15FieldDefinitionC1EOS1_
FNA:0,2282,_ZN4dbal8adapters15FieldDefinitionC1ERKS1_
FNA:0,1141,_ZN4dbal8adapters15FieldDefinitionC1Ev
FNA:0,1141,_ZN4dbal8adapters15FieldDefinitionC2EOS1_
FNA:0,2282,_ZN4dbal8adapters15FieldDefinitionC2ERKS1_
FNA:0,1141,_ZN4dbal8adapters15FieldDefinitionC2Ev
FNA:0,4564,_ZN4dbal8adapters15FieldDefinitionD1Ev
FNA:0,4564,_ZN4dbal8adapters15FieldDefinitionD2Ev
FNL:1,208,236
FNA:1,163,_ZN4dbal8adapters12SchemaLoader17loadFromDirectoryERKNSt3__112basic_stringIcNS2_11char_traitsIcEENS2_9allocatorIcEEEE
FNL:2,237,272
FNA:2,6683,_ZZN4dbal8adapters12SchemaLoader17loadFromDirectoryERKNSt3__112basic_stringIcNS2_11char_traitsIcEENS2_9allocatorIcEEEEENKUlhE_clEh
FNL:3,273,288
FNA:3,163,_ZZN4dbal8adapters12SchemaLoader17loadFromDirectoryERKNSt3__112basic_stringIcNS2_11char_traitsIcEENS2_9allocatorIcEEEEENKUlPKcRNS2_6vectorIS8_NS6_IS8_EEEEE_clESC_SG_
FNL:4,33,35
FNA:4,0,_ZN4dbal8adapters15IndexDefinitionC1EOS1_
FNA:4,326,_ZN4dbal8adapters15IndexDefinitionC1ERKS1_
FNA:4,163,_ZN4dbal8adapters15IndexDefinitionC1Ev
FNA:4,0,_ZN4dbal8adapters15IndexDefinitionC2EOS1_
FNA:4,326,_ZN4dbal8adapters15IndexDefinitionC2ERKS1_
FNA:4,163,_ZN4dbal8adapters15IndexDefinitionC2Ev
FNA:4,489,_ZN4dbal8adapters15IndexDefinitionD1Ev
FNA:4,489,_ZN4dbal8adapters15IndexDefinitionD2Ev
FNL:5,38,43
FNA:5,0,_ZN4dbal8adapters18RelationDefinitionC1EOS1_
FNA:5,0,_ZN4dbal8adapters18RelationDefinitionC1ERKS1_
FNA:5,0,_ZN4dbal8adapters18RelationDefinitionC1Ev
FNA:5,0,_ZN4dbal8adapters18RelationDefinitionC2EOS1_
FNA:5,0,_ZN4dbal8adapters18RelationDefinitionC2ERKS1_
FNA:5,0,_ZN4dbal8adapters18RelationDefinitionC2Ev
FNA:5,0,_ZN4dbal8adapters18RelationDefinitionD1Ev
FNA:5,0,_ZN4dbal8adapters18RelationDefinitionD2Ev
FNL:6,47,52
FNA:6,0,_ZN4dbal8adapters17SchemaQueryConfigC1EOS1_
FNA:6,163,_ZN4dbal8adapters17SchemaQueryConfigC1ERKS1_
FNA:6,163,_ZN4dbal8adapters17SchemaQueryConfigC1Ev
FNA:6,0,_ZN4dbal8adapters17SchemaQueryConfigC2EOS1_
FNA:6,163,_ZN4dbal8adapters17SchemaQueryConfigC2ERKS1_
FNA:6,163,_ZN4dbal8adapters17SchemaQueryConfigC2Ev
FNA:6,326,_ZN4dbal8adapters17SchemaQueryConfigD1Ev
FNA:6,326,_ZN4dbal8adapters17SchemaQueryConfigD2Ev
FNL:7,55,55
FNA:7,0,_ZN4dbal8adapters16EntityDefinitionC1EOS1_
FNA:7,163,_ZN4dbal8adapters16EntityDefinitionC1ERKS1_
FNA:7,163,_ZN4dbal8adapters16EntityDefinitionC1Ev
FNA:7,0,_ZN4dbal8adapters16EntityDefinitionC2EOS1_
FNA:7,163,_ZN4dbal8adapters16EntityDefinitionC2ERKS1_
FNA:7,163,_ZN4dbal8adapters16EntityDefinitionC2Ev
FNA:7,326,_ZN4dbal8adapters16EntityDefinitionD1Ev
FNA:7,326,_ZN4dbal8adapters16EntityDefinitionD2Ev
FNF:8
FNH:7
DA:17,3423
DA:20,1141
DA:21,1141
DA:22,1141
DA:23,1141
DA:24,1141
DA:25,1141
DA:33,163
DA:35,163
DA:38,0
DA:43,0
DA:47,326
DA:51,163
DA:52,163
DA:55,163
DA:208,163
DA:209,163
DA:210,163
DA:212,326
DA:213,163
DA:214,163
DA:216,163
DA:217,163
DA:218,163
DA:219,163
DA:220,326
DA:221,163
DA:223,163
DA:224,163
DA:225,163
DA:226,0
DA:227,0
DA:228,0
DA:229,163
DA:230,163
DA:231,163
DA:232,4564
DA:233,1141
DA:234,1141
DA:235,1141
DA:236,1141
DA:237,6683
DA:238,1141
DA:239,1141
DA:240,1141
DA:241,1141
DA:242,1141
DA:243,1141
DA:244,1141
DA:245,1141
DA:246,1141
DA:247,1141
DA:248,1141
DA:249,1141
DA:250,163
DA:251,163
DA:252,326
DA:253,163
DA:254,163
DA:255,489
DA:256,163
DA:257,163
DA:258,163
DA:259,163
DA:260,163
DA:261,0
DA:262,0
DA:263,0
DA:264,0
DA:265,0
DA:266,0
DA:267,0
DA:268,0
DA:269,0
DA:270,0
DA:271,163
DA:272,0
DA:273,0
DA:274,0
DA:275,0
DA:276,0
DA:277,0
DA:278,0
DA:279,0
DA:280,0
DA:281,0
DA:282,0
DA:283,163
DA:284,163
DA:285,163
DA:287,163
DA:288,163
LF:92
LH:66
end_of_record
TN:
SF:/Users/rmac/Documents/GitHub/metabuilder-small/dbal/production/src/adapters/sql/mysql_adapter.cpp
FNL:0,127,141
FNA:0,296,_ZN4dbal8adapters3sql12MySQLAdapter11runNonQueryEPNS1_13SqlConnectionERKNSt3__112basic_stringIcNS5_11char_traitsIcEENS5_9allocatorIcEEEERKNS5_6vectorINS1_8SqlParamENS9_ISF_EEEE
FNL:1,147,205
FNA:1,213,_ZN4dbal8adapters3sql12MySQLAdapter6createERKNSt3__112basic_stringIcNS3_11char_traitsIcEENS3_9allocatorIcEEEERKN8nlohmann16json_abi_v3_11_310basic_jsonINS3_3mapENS3_6vectorES9_bxydS7_NSD_14adl_serializerENSG_IhNS7_IhEEEEvEE
FNL:2,207,266
FNA:2,2,_ZN4dbal8adapters3sql12MySQLAdapter6updateERKNSt3__112basic_stringIcNS3_11char_traitsIcEENS3_9allocatorIcEEEESB_RKN8nlohmann16json_abi_v3_11_310basic_jsonINS3_3mapENS3_6vectorES9_bxydS7_NSD_14adl_serializerENSG_IhNS7_IhEEEEvEE
FNL:3,22,26
FNA:3,26,_ZN4dbal8adapters3sql12MySQLAdapterC1ERKNS1_19SqlConnectionConfigE
FNA:3,26,_ZN4dbal8adapters3sql12MySQLAdapterC2ERKNS1_19SqlConnectionConfigE
FNL:4,268,282
FNA:4,1,_ZN4dbal8adapters3sql12MySQLAdapter10createManyERKNSt3__112basic_stringIcNS3_11char_traitsIcEENS3_9allocatorIcEEEERKNS3_6vectorIN8nlohmann16json_abi_v3_11_310basic_jsonINS3_3mapESC_S9_bxydS7_NSE_14adl_serializerENSC_IhNS7_IhEEEEvEENS7_ISK_EEEE
FNL:5,32,38
FNA:5,2366,_ZN4dbal8adapters3sql12MySQLAdapter15ensureConnectedEv
FNL:6,40,48
FNA:6,1767,_ZN4dbal8adapters3sql12MySQLAdapter12escapeStringERKNSt3__112basic_stringIcNS3_11char_traitsIcEENS3_9allocatorIcEEEE
FNL:7,50,74
FNA:7,573,_ZN4dbal8adapters3sql12MySQLAdapter16buildQueryStringERKNSt3__112basic_stringIcNS3_11char_traitsIcEENS3_9allocatorIcEEEERKNS3_6vectorINS1_8SqlParamENS7_ISD_EEEE
FNL:8,80,125
FNA:8,277,_ZN4dbal8adapters3sql12MySQLAdapter8runQueryEPNS1_13SqlConnectionERKNSt3__112basic_stringIcNS5_11char_traitsIcEENS5_9allocatorIcEEEERKNS5_6vectorINS1_8SqlParamENS9_ISF_EEEE
FNL:9,9,15
FNA:9,215,_ZN12_GLOBAL__N_117isValidIdentifierERKNSt3__112basic_stringIcNS0_11char_traitsIcEENS0_9allocatorIcEEEE
FNF:10
FNH:10
DA:9,215
DA:10,215
DA:11,1935
DA:12,1720
DA:14,215
DA:15,215
DA:22,52
DA:23,52
DA:24,26
DA:25,26
DA:26,52
DA:32,2366
DA:33,2366
DA:34,26
DA:35,0
DA:37,26
DA:38,2366
DA:40,1767
DA:41,1767
DA:42,1767
DA:43,1767
DA:44,1767
DA:45,1767
DA:46,1767
DA:47,1767
DA:48,1767
DA:50,573
DA:53,573
DA:54,573
DA:55,573
DA:57,53729
DA:58,53156
DA:59,1793
DA:60,1793
DA:61,26
DA:62,26
DA:63,1767
DA:64,1767
DA:65,1767
DA:67,1793
DA:68,1793
DA:69,51363
DA:71,53156
DA:73,573
DA:74,573
DA:80,277
DA:83,277
DA:84,277
DA:86,277
DA:87,277
DA:88,0
DA:89,0
DA:90,0
DA:91,0
DA:93,277
DA:94,277
DA:96,0
DA:97,0
DA:98,0
DA:99,0
DA:100,0
DA:101,0
DA:104,277
DA:105,277
DA:107,277
DA:109,746
DA:110,469
DA:111,469
DA:112,2561
DA:113,2092
DA:114,2092
DA:115,42
DA:116,42
DA:117,2050
DA:119,2092
DA:120,469
DA:121,469
DA:123,277
DA:124,277
DA:125,554
DA:127,296
DA:130,296
DA:131,296
DA:133,296
DA:134,296
DA:135,25
DA:136,25
DA:137,25
DA:138,25
DA:140,271
DA:141,321
DA:147,213
DA:148,213
DA:149,213
DA:150,0
DA:152,213
DA:154,213
DA:155,0
DA:158,213
DA:159,213
DA:160,0
DA:162,213
DA:166,213
DA:167,213
DA:168,213
DA:170,1704
DA:171,1491
DA:172,5
DA:174,1486
DA:175,1486
DA:176,1486
DA:179,639
DA:180,639
DA:181,426
DA:184,213
DA:188,213
DA:189,213
DA:190,213
DA:191,213
DA:192,213
DA:193,213
DA:194,0
DA:197,213
DA:198,213
DA:199,0
DA:201,213
DA:202,213
DA:203,0
DA:204,0
DA:205,213
DA:207,2
DA:208,2
DA:209,2
DA:210,0
DA:212,2
DA:214,2
DA:215,0
DA:218,2
DA:219,2
DA:220,0
DA:222,2
DA:225,2
DA:226,2
DA:228,16
DA:229,14
DA:230,4
DA:232,10
DA:233,2
DA:234,2
DA:235,2
DA:238,2
DA:239,0
DA:243,2
DA:245,6
DA:246,4
DA:250,2
DA:251,2
DA:252,0
DA:256,2
DA:257,2
DA:258,2
DA:259,2
DA:260,0
DA:262,2
DA:263,2
DA:264,0
DA:265,0
DA:266,2
DA:268,1
DA:269,1
DA:270,0
DA:273,1
DA:274,4
DA:275,3
DA:276,3
DA:277,0
DA:279,3
DA:280,3
DA:281,1
DA:282,1
LF:180
LH:152
end_of_record
TN:
SF:/Users/rmac/Documents/GitHub/metabuilder-small/dbal/production/src/adapters/sql/mysql_connection.cpp
FNL:0,12,14
FNA:0,26,_ZN4dbal8adapters3sql15MySQLConnectionD1Ev
FNA:0,26,_ZN4dbal8adapters3sql15MySQLConnectionD2Ev
FNL:1,16,60
FNA:1,26,_ZN4dbal8adapters3sql15MySQLConnection7connectEv
FNL:2,62,67
FNA:2,52,_ZN4dbal8adapters3sql15MySQLConnection10disconnectEv
FNL:3,69,70
FNA:3,2366,_ZNK4dbal8adapters3sql15MySQLConnection7isAliveEv
FNL:4,9,10
FNA:4,26,_ZN4dbal8adapters3sql15MySQLConnectionC1ERKNS1_19SqlConnectionConfigE
FNA:4,26,_ZN4dbal8adapters3sql15MySQLConnectionC2ERKNS1_19SqlConnectionConfigE
FNF:5
FNH:5
DA:9,52
DA:10,52
DA:12,52
DA:13,26
DA:14,52
DA:16,26
DA:17,26
DA:18,0
DA:22,26
DA:24,26
DA:25,26
DA:26,0
DA:27,0
DA:31,26
DA:32,26
DA:34,26
DA:35,26
DA:37,26
DA:39,26
DA:40,26
DA:41,26
DA:42,26
DA:43,26
DA:44,26
DA:45,26
DA:50,26
DA:51,0
DA:52,0
DA:53,0
DA:54,0
DA:57,52
DA:58,26
DA:59,26
DA:60,26
DA:62,52
DA:63,52
DA:64,26
DA:65,26
DA:66,26
DA:67,52
DA:69,2366
DA:70,2366
LF:42
LH:35
end_of_record
TN:
SF:/Users/rmac/Documents/GitHub/metabuilder-small/dbal/production/src/adapters/sql/mysql_connection.hpp
FNL:0,32,32
FNA:0,2938,_ZNK4dbal8adapters3sql15MySQLConnection6handleEv
FNF:1
FNH:1
DA:32,2938
LF:1
LH:1
end_of_record
TN:
SF:/Users/rmac/Documents/GitHub/metabuilder-small/dbal/production/src/adapters/sql/mysql_error_mapper.hpp
FNL:0,14,36
FNA:0,25,_ZN4dbal8adapters3sql13mapMySqlErrorEj
FNF:1
FNH:1
DA:14,25
DA:15,25
DA:17,0
DA:18,0
DA:21,0
DA:22,0
DA:25,0
DA:28,0
DA:31,0
DA:32,0
DA:34,25
DA:36,25
LF:12
LH:4
end_of_record
TN:
SF:/Users/rmac/Documents/GitHub/metabuilder-small/dbal/production/src/adapters/sql/postgres_adapter.cpp
FNL:0,13,17
FNA:0,31,_ZN4dbal8adapters3sql15PostgresAdapterC1ERKNS1_19SqlConnectionConfigE
FNA:0,31,_ZN4dbal8adapters3sql15PostgresAdapterC2ERKNS1_19SqlConnectionConfigE
FNL:1,23,29
FNA:1,459,_ZN4dbal8adapters3sql15PostgresAdapter15ensureConnectedEv
FNL:2,31,64
FNA:2,428,_ZN4dbal8adapters3sql15PostgresAdapter10execParamsERKNSt3__112basic_stringIcNS3_11char_traitsIcEENS3_9allocatorIcEEEERKNS3_6vectorINS1_8SqlParamENS7_ISD_EEEE
FNL:3,70,96
FNA:3,329,_ZN4dbal8adapters3sql15PostgresAdapter8runQueryEPNS1_13SqlConnectionERKNSt3__112basic_stringIcNS5_11char_traitsIcEENS5_9allocatorIcEEEERKNS5_6vectorINS1_8SqlParamENS9_ISF_EEEE
FNL:4,98,107
FNA:4,99,_ZN4dbal8adapters3sql15PostgresAdapter11runNonQueryEPNS1_13SqlConnectionERKNSt3__112basic_stringIcNS5_11char_traitsIcEENS5_9allocatorIcEEEERKNS5_6vectorINS1_8SqlParamENS9_ISF_EEEE
FNF:5
FNH:5
DA:13,93
DA:14,93
DA:15,31
DA:16,31
DA:17,62
DA:23,459
DA:24,459
DA:25,31
DA:26,0
DA:28,31
DA:29,459
DA:31,428
DA:33,428
DA:34,428
DA:37,428
DA:38,428
DA:39,2050
DA:40,1622
DA:43,428
DA:44,428
DA:45,428
DA:46,428
DA:48,428
DA:54,428
DA:55,428
DA:56,0
DA:57,0
DA:58,0
DA:59,0
DA:60,0
DA:61,0
DA:63,428
DA:64,428
DA:70,329
DA:73,329
DA:75,329
DA:76,329
DA:78,329
DA:79,329
DA:81,902
DA:82,573
DA:83,3153
DA:84,2580
DA:85,2580
DA:86,47
DA:87,47
DA:88,2533
DA:90,2580
DA:91,573
DA:92,573
DA:94,329
DA:95,329
DA:96,329
DA:98,99
DA:101,99
DA:103,99
DA:104,99
DA:106,99
DA:107,99
LF:59
LH:52
end_of_record
TN:
SF:/Users/rmac/Documents/GitHub/metabuilder-small/dbal/production/src/adapters/sql/postgres_connection.cpp
FNL:0,12,14
FNA:0,31,_ZN4dbal8adapters3sql18PostgresConnectionD1Ev
FNA:0,31,_ZN4dbal8adapters3sql18PostgresConnectionD2Ev
FNL:1,16,37
FNA:1,31,_ZN4dbal8adapters3sql18PostgresConnection7connectEv
FNL:2,39,44
FNA:2,62,_ZN4dbal8adapters3sql18PostgresConnection10disconnectEv
FNL:3,46,47
FNA:3,459,_ZNK4dbal8adapters3sql18PostgresConnection7isAliveEv
FNL:4,50,50
FNA:4,31,_ZNK4dbal8adapters3sql18PostgresConnection13buildConnInfoEv
FNL:5,53,73
FNA:5,2232,_ZZNK4dbal8adapters3sql18PostgresConnection13buildConnInfoEvENK3$_0clERKNSt3__112basic_stringIcNS4_11char_traitsIcEENS4_9allocatorIcEEEE
FNL:6,9,10
FNA:6,31,_ZN4dbal8adapters3sql18PostgresConnectionC1ERKNS1_19SqlConnectionConfigE
FNA:6,31,_ZN4dbal8adapters3sql18PostgresConnectionC2ERKNS1_19SqlConnectionConfigE
FNF:7
FNH:7
DA:9,62
DA:10,62
DA:12,62
DA:13,31
DA:14,62
DA:16,31
DA:17,31
DA:18,0
DA:22,31
DA:24,31
DA:25,31
DA:27,31
DA:28,0
DA:29,0
DA:30,0
DA:31,0
DA:34,62
DA:35,31
DA:36,31
DA:37,31
DA:39,62
DA:40,62
DA:41,31
DA:42,31
DA:43,31
DA:44,62
DA:46,459
DA:47,459
DA:50,31
DA:53,2263
DA:54,2232
DA:55,2232
DA:56,124
DA:57,1178
DA:58,1054
DA:59,0
DA:61,124
DA:62,124
DA:63,4340
DA:65,31
DA:66,31
DA:67,31
DA:68,31
DA:69,31
DA:70,31
DA:71,31
DA:72,31
DA:73,31
LF:48
LH:42
end_of_record
TN:
SF:/Users/rmac/Documents/GitHub/metabuilder-small/dbal/production/src/adapters/sql/postgres_connection.hpp
FNL:0,32,32
FNA:0,428,_ZNK4dbal8adapters3sql18PostgresConnection6handleEv
FNF:1
FNH:1
DA:32,428
LF:1
LH:1
end_of_record
TN:
SF:/Users/rmac/Documents/GitHub/metabuilder-small/dbal/production/src/adapters/sql/postgres_error_mapper.hpp
FNL:0,15,32
FNA:0,0,_ZN4dbal8adapters3sql13mapPgSqlStateEPKc
FNF:1
FNH:0
DA:15,0
DA:16,0
DA:19,0
DA:20,0
DA:23,0
DA:26,0
DA:29,0
DA:31,0
DA:32,0
LF:9
LH:0
end_of_record
TN:
SF:/Users/rmac/Documents/GitHub/metabuilder-small/dbal/production/src/adapters/sql/sql_adapter_base.hpp
FNL:0,30,31
FNA:0,57,_ZN4dbal8adapters3sql10SqlAdapterC2ERKNS1_19SqlConnectionConfigENS1_7DialectE
FNL:1,35,38
FNA:1,57,_ZN4dbal8adapters3sql10SqlAdapter10initializeEv
FNL:2,40,40
FNA:2,0,_ZN4dbal8adapters3sql10SqlAdapterD0Ev
FNA:2,0,_ZN4dbal8adapters3sql10SqlAdapterD1Ev
FNA:2,57,_ZN4dbal8adapters3sql10SqlAdapterD2Ev
FNL:3,71,71
FNA:3,0,_ZNK4dbal8adapters3sql10SqlAdapter26supportsNativeTransactionsEv
FNL:4,80,81
FNA:4,637,_ZN4dbal8adapters3sql10SqlAdapter15ConnectionGuardC1ERNS1_7SqlPoolEPNS1_13SqlConnectionE
FNA:4,637,_ZN4dbal8adapters3sql10SqlAdapter15ConnectionGuardC2ERNS1_7SqlPoolEPNS1_13SqlConnectionE
FNL:5,82,113
FNA:5,637,_ZN4dbal8adapters3sql10SqlAdapter15ConnectionGuardD1Ev
FNA:5,637,_ZN4dbal8adapters3sql10SqlAdapter15ConnectionGuardD2Ev
FNF:6
FNH:5
DA:30,57
DA:31,57
DA:35,57
DA:36,57
DA:37,57
DA:38,57
DA:40,57
DA:71,0
DA:80,1274
DA:81,1274
DA:82,1274
DA:113,57
LF:12
LH:11
end_of_record
TN:
SF:/Users/rmac/Documents/GitHub/metabuilder-small/dbal/production/src/adapters/sql/sql_adapter_bulk.cpp
FNL:0,115,151
FNA:0,60,_ZN4dbal8adapters3sql10SqlAdapter10deleteManyERKNSt3__112basic_stringIcNS3_11char_traitsIcEENS3_9allocatorIcEEEERKN8nlohmann16json_abi_v3_11_310basic_jsonINS3_3mapENS3_6vectorES9_bxydS7_NSD_14adl_serializerENSG_IhNS7_IhEEEEvEE
FNL:1,54,113
FNA:1,3,_ZN4dbal8adapters3sql10SqlAdapter10updateManyERKNSt3__112basic_stringIcNS3_11char_traitsIcEENS3_9allocatorIcEEEERKN8nlohmann16json_abi_v3_11_310basic_jsonINS3_3mapENS3_6vectorES9_bxydS7_NSD_14adl_serializerENSG_IhNS7_IhEEEEvEESM_
FNL:2,9,52
FNA:2,1,_ZN4dbal8adapters3sql10SqlAdapter10createManyERKNSt3__112basic_stringIcNS3_11char_traitsIcEENS3_9allocatorIcEEEERKNS3_6vectorIN8nlohmann16json_abi_v3_11_310basic_jsonINS3_3mapESC_S9_bxydS7_NSE_14adl_serializerENSC_IhNS7_IhEEEEvEENS7_ISK_EEEE
FNF:3
FNH:3
DA:9,1
DA:10,1
DA:11,0
DA:14,1
DA:15,1
DA:16,0
DA:18,1
DA:20,1
DA:21,1
DA:22,0
DA:24,1
DA:27,1
DA:28,1
DA:29,0
DA:32,1
DA:33,4
DA:34,3
DA:35,3
DA:37,3
DA:38,3
DA:39,3
DA:41,0
DA:42,0
DA:43,0
DA:44,3
DA:46,1
DA:47,1
DA:48,0
DA:51,1
DA:52,1
DA:54,3
DA:55,3
DA:56,3
DA:57,1
DA:59,2
DA:61,2
DA:62,2
DA:63,0
DA:65,2
DA:68,2
DA:69,2
DA:71,2
DA:72,2
DA:75,2
DA:76,16
DA:77,14
DA:78,2
DA:79,2
DA:80,2
DA:83,2
DA:84,0
DA:87,2
DA:90,2
DA:91,18
DA:92,2
DA:93,10
DA:94,20
DA:96,2
DA:97,0
DA:99,2
DA:100,4
DA:103,2
DA:104,2
DA:105,2
DA:108,2
DA:109,2
DA:110,0
DA:111,0
DA:112,0
DA:113,3
DA:115,60
DA:116,60
DA:117,60
DA:118,1
DA:120,59
DA:122,59
DA:123,59
DA:124,0
DA:126,59
DA:128,59
DA:129,59
DA:131,59
DA:132,59
DA:135,59
DA:136,63
DA:137,2
DA:138,4
DA:141,59
DA:142,2
DA:143,2
DA:146,59
DA:147,59
DA:148,0
DA:149,0
DA:150,0
DA:151,60
LF:96
LH:78
end_of_record
TN:
SF:/Users/rmac/Documents/GitHub/metabuilder-small/dbal/production/src/adapters/sql/sql_adapter_crud.cpp
FNL:0,12,37
FNA:0,250,_ZN4dbal8adapters3sql10SqlAdapter6createERKNSt3__112basic_stringIcNS3_11char_traitsIcEENS3_9allocatorIcEEEERKN8nlohmann16json_abi_v3_11_310basic_jsonINS3_3mapENS3_6vectorES9_bxydS7_NSD_14adl_serializerENSG_IhNS7_IhEEEEvEE
FNL:1,120,271
FNA:1,35,_ZN4dbal8adapters3sql10SqlAdapter4listERKNSt3__112basic_stringIcNS3_11char_traitsIcEENS3_9allocatorIcEEEERKNS_11ListOptionsE
FNL:2,275,285
FNA:2,5,_ZN4dbal8adapters3sql10SqlAdapter16beginTransactionEv
FNL:3,287,296
FNA:3,5,_ZN4dbal8adapters3sql10SqlAdapter17commitTransactionEv
FNL:4,298,307
FNA:4,4,_ZN4dbal8adapters3sql10SqlAdapter19rollbackTransactionEv
FNL:5,39,64
FNA:5,6,_ZN4dbal8adapters3sql10SqlAdapter4readERKNSt3__112basic_stringIcNS3_11char_traitsIcEENS3_9allocatorIcEEEESB_
FNL:6,66,91
FNA:6,2,_ZN4dbal8adapters3sql10SqlAdapter6updateERKNSt3__112basic_stringIcNS3_11char_traitsIcEENS3_9allocatorIcEEEESB_RKN8nlohmann16json_abi_v3_11_310basic_jsonINS3_3mapENS3_6vectorES9_bxydS7_NSD_14adl_serializerENSG_IhNS7_IhEEEEvEE
FNL:7,93,118
FNA:7,2,_ZN4dbal8adapters3sql10SqlAdapter6removeERKNSt3__112basic_stringIcNS3_11char_traitsIcEENS3_9allocatorIcEEEESB_
FNF:8
FNH:8
DA:12,250
DA:13,250
DA:14,250
DA:15,0
DA:17,250
DA:19,250
DA:20,250
DA:21,0
DA:23,250
DA:25,250
DA:26,250
DA:29,250
DA:30,250
DA:31,0
DA:33,250
DA:34,250
DA:35,0
DA:36,0
DA:37,250
DA:39,6
DA:40,6
DA:41,6
DA:42,2
DA:44,4
DA:46,4
DA:47,4
DA:48,0
DA:50,4
DA:52,4
DA:53,4
DA:56,4
DA:57,4
DA:58,2
DA:60,2
DA:61,4
DA:62,0
DA:63,0
DA:64,6
DA:66,2
DA:67,2
DA:68,2
DA:69,0
DA:71,2
DA:73,2
DA:74,2
DA:75,0
DA:77,2
DA:79,2
DA:80,2
DA:83,2
DA:84,2
DA:85,0
DA:87,2
DA:88,2
DA:89,0
DA:90,0
DA:91,2
DA:93,2
DA:94,2
DA:95,2
DA:96,0
DA:98,2
DA:100,2
DA:101,2
DA:102,0
DA:104,2
DA:106,2
DA:107,2
DA:110,2
DA:111,2
DA:112,0
DA:114,2
DA:115,0
DA:116,0
DA:117,0
DA:118,2
DA:120,35
DA:121,35
DA:122,35
DA:123,0
DA:125,35
DA:127,35
DA:128,35
DA:129,0
DA:131,35
DA:133,35
DA:134,35
DA:135,35
DA:138,35
DA:139,280
DA:142,35
DA:144,35
DA:146,35
DA:149,35
DA:152,4
DA:153,2
DA:154,0
DA:157,4
DA:158,2
DA:159,0
DA:162,2
DA:163,2
DA:164,2
DA:165,2
DA:168,2
DA:169,2
DA:170,2
DA:171,2
DA:173,2
DA:174,2
DA:175,2
DA:177,2
DA:178,2
DA:179,8
DA:180,6
DA:181,18
DA:182,12
DA:184,6
DA:185,6
DA:186,2
DA:187,2
DA:188,2
DA:189,2
DA:190,2
DA:191,2
DA:192,2
DA:193,0
DA:194,0
DA:195,0
DA:196,0
DA:197,0
DA:198,0
DA:202,33
DA:203,33
DA:206,33
DA:208,33
DA:209,33
DA:211,33
DA:212,0
DA:213,0
DA:216,33
DA:217,33
DA:218,33
DA:222,33
DA:224,33
DA:225,33
DA:226,0
DA:227,0
DA:230,66
DA:231,33
DA:235,33
DA:236,33
DA:237,66
DA:238,33
DA:239,33
DA:242,33
DA:243,33
DA:244,33
DA:245,33
DA:246,33
DA:247,33
DA:248,33
DA:249,33
DA:250,33
DA:251,33
DA:252,33
DA:254,33
DA:255,33
DA:256,33
DA:257,162
DA:258,129
DA:261,33
DA:262,33
DA:263,33
DA:264,33
DA:265,33
DA:266,33
DA:267,33
DA:268,0
DA:269,0
DA:270,0
DA:271,35
DA:275,5
DA:276,5
DA:277,5
DA:278,5
DA:279,0
DA:281,5
DA:282,5
DA:283,5
DA:284,5
DA:285,5
DA:287,5
DA:288,5
DA:289,2
DA:291,3
DA:292,3
DA:293,3
DA:294,3
DA:295,3
DA:296,5
DA:298,4
DA:299,4
DA:300,2
DA:302,2
DA:303,2
DA:304,2
DA:305,2
DA:306,2
DA:307,4
LF:210
LH:173
end_of_record
TN:
SF:/Users/rmac/Documents/GitHub/metabuilder-small/dbal/production/src/adapters/sql/sql_adapter_helpers.cpp
FNL:0,108,111
FNA:0,2,_ZNK4dbal8adapters3sql10SqlAdapter14buildDeleteSqlERKNS0_12EntitySchemaERKNSt3__112basic_stringIcNS6_11char_traitsIcEENS6_9allocatorIcEEEE
FNL:1,11,14
FNA:1,606,_ZN4dbal8adapters3sql10SqlAdapter12executeQueryEPNS1_13SqlConnectionERKNSt3__112basic_stringIcNS5_11char_traitsIcEENS5_9allocatorIcEEEERKNS5_6vectorINS1_8SqlParamENS9_ISF_EEEE
FNL:2,113,129
FNA:2,302,_ZNK4dbal8adapters3sql10SqlAdapter14buildFieldListERKNS0_12EntitySchemaE
FNL:3,131,146
FNA:3,0,_ZNK4dbal8adapters3sql10SqlAdapter15coalesceDefaultERKNSt3__112basic_stringIcNS3_11char_traitsIcEENS3_9allocatorIcEEEESB_
FNL:4,150,176
FNA:4,255,_ZNK4dbal8adapters3sql10SqlAdapter12jsonToParamsERKNS0_12EntitySchemaERKN8nlohmann16json_abi_v3_11_310basic_jsonINSt3__13mapENS9_6vectorENS9_12basic_stringIcNS9_11char_traitsIcEENS9_9allocatorIcEEEEbxydSF_NS7_14adl_serializerENSB_IhNSF_IhEEEEvEERKSH_
FNL:5,17,20
FNA:5,395,_ZN4dbal8adapters3sql10SqlAdapter15executeNonQueryEPNS1_13SqlConnectionERKNSt3__112basic_stringIcNS5_11char_traitsIcEENS5_9allocatorIcEEEERKNS5_6vectorINS1_8SqlParamENS9_ISF_EEEE
FNL:6,178,207
FNA:6,604,_ZNK4dbal8adapters3sql10SqlAdapter9rowToJsonERKNS0_12EntitySchemaERKNS1_6SqlRowE
FNL:7,209,221
FNA:7,2979,_ZN4dbal8adapters3sql10SqlAdapter17jsonValueToStringERKN8nlohmann16json_abi_v3_11_310basic_jsonINSt3__13mapENS6_6vectorENS6_12basic_stringIcNS6_11char_traitsIcEENS6_9allocatorIcEEEEbxydSC_NS4_14adl_serializerENS8_IhNSC_IhEEEEvEE
FNL:8,223,225
FNA:8,4228,_ZN4dbal8adapters3sql10SqlAdapter11columnValueERKNS1_6SqlRowERKNSt3__112basic_stringIcNS6_11char_traitsIcEENS6_9allocatorIcEEEE
FNL:9,23,27
FNA:9,0,_ZN4dbal8adapters3sql10SqlAdapter8runQueryEPNS1_13SqlConnectionERKNSt3__112basic_stringIcNS5_11char_traitsIcEENS5_9allocatorIcEEEERKNS5_6vectorINS1_8SqlParamENS9_ISF_EEEE
FNL:10,230,244
FNA:10,0,_ZN4dbal8adapters3sql10SqlAdapter11mapSqlErrorERKNS1_8SqlErrorE
FNL:11,246,255
FNA:11,1258,_ZN4dbal8adapters3sql10SqlAdapter13joinFragmentsERKNSt3__16vectorINS3_12basic_stringIcNS3_11char_traitsIcEENS3_9allocatorIcEEEENS8_ISA_EEEERKSA_
FNL:12,257,267
FNA:12,0,_ZN4dbal8adapters3sql10SqlAdapter16toLowerSnakeCaseERKNSt3__112basic_stringIcNS3_11char_traitsIcEENS3_9allocatorIcEEEE
FNL:13,269,274
FNA:13,1539,_ZNK4dbal8adapters3sql10SqlAdapter11placeholderEm
FNL:14,276,282
FNA:14,4016,_ZNK4dbal8adapters3sql10SqlAdapter7quoteIdERKNSt3__112basic_stringIcNS3_11char_traitsIcEENS3_9allocatorIcEEEE
FNL:15,29,33
FNA:15,0,_ZN4dbal8adapters3sql10SqlAdapter11runNonQueryEPNS1_13SqlConnectionERKNSt3__112basic_stringIcNS5_11char_traitsIcEENS5_9allocatorIcEEEERKNS5_6vectorINS1_8SqlParamENS9_ISF_EEEE
FNL:16,37,65
FNA:16,253,_ZNK4dbal8adapters3sql10SqlAdapter14buildInsertSqlERKNS0_12EntitySchemaERKN8nlohmann16json_abi_v3_11_310basic_jsonINSt3__13mapENS9_6vectorENS9_12basic_stringIcNS9_11char_traitsIcEENS9_9allocatorIcEEEEbxydSF_NS7_14adl_serializerENSB_IhNSF_IhEEEEvEE
FNL:17,67,82
FNA:17,4,_ZNK4dbal8adapters3sql10SqlAdapter14buildSelectSqlERKNS0_12EntitySchemaERKN8nlohmann16json_abi_v3_11_310basic_jsonINSt3__13mapENS9_6vectorENS9_12basic_stringIcNS9_11char_traitsIcEENS9_9allocatorIcEEEEbxydSF_NS7_14adl_serializerENSB_IhNSF_IhEEEEvEE
FNL:18,84,106
FNA:18,2,_ZNK4dbal8adapters3sql10SqlAdapter14buildUpdateSqlERKNS0_12EntitySchemaERKNSt3__112basic_stringIcNS6_11char_traitsIcEENS6_9allocatorIcEEEERKN8nlohmann16json_abi_v3_11_310basic_jsonINS6_3mapENS6_6vectorESC_bxydSA_NSG_14adl_serializerENSJ_IhNSA_IhEEEEvEE
FNF:19
FNH:14
DA:11,606
DA:14,606
DA:17,395
DA:20,395
DA:23,0
DA:26,0
DA:27,0
DA:29,0
DA:32,0
DA:33,0
DA:37,253
DA:38,253
DA:39,253
DA:40,253
DA:41,253
DA:43,2024
DA:44,1771
DA:45,253
DA:47,1518
DA:49,253
DA:50,253
DA:51,253
DA:52,253
DA:53,253
DA:55,1265
DA:56,1260
DA:57,1260
DA:58,1260
DA:61,506
DA:62,253
DA:63,253
DA:64,253
DA:65,253
DA:67,4
DA:68,4
DA:69,4
DA:70,4
DA:72,4
DA:73,4
DA:74,4
DA:75,8
DA:76,4
DA:78,4
DA:79,4
DA:81,4
DA:82,4
DA:84,2
DA:85,2
DA:86,2
DA:87,2
DA:89,16
DA:90,14
DA:91,4
DA:93,10
DA:94,2
DA:95,2
DA:98,2
DA:99,0
DA:102,4
DA:103,2
DA:104,2
DA:105,2
DA:106,4
DA:108,2
DA:109,2
DA:110,2
DA:111,2
DA:113,302
DA:114,302
DA:115,2416
DA:119,2114
DA:120,0
DA:121,0
DA:122,0
DA:124,0
DA:125,2114
DA:128,302
DA:129,302
DA:131,0
DA:132,0
DA:134,0
DA:136,0
DA:137,0
DA:140,0
DA:141,0
DA:142,0
DA:143,0
DA:145,0
DA:146,0
DA:150,255
DA:151,255
DA:153,255
DA:154,2
DA:155,2
DA:157,2040
DA:158,1785
DA:159,255
DA:161,1530
DA:164,508
DA:165,253
DA:166,253
DA:167,253
DA:168,255
DA:170,1275
DA:171,1262
DA:172,1262
DA:175,255
DA:176,255
DA:178,604
DA:179,604
DA:180,4832
DA:181,4228
DA:183,4228
DA:184,0
DA:185,4228
DA:186,1208
DA:187,1208
DA:188,1208
DA:189,0
DA:191,1208
DA:192,3020
DA:193,87
DA:195,0
DA:196,87
DA:197,87
DA:198,87
DA:199,0
DA:201,87
DA:202,2933
DA:205,4228
DA:206,604
DA:207,604
DA:209,2979
DA:210,2979
DA:211,57
DA:212,2922
DA:213,0
DA:214,2922
DA:215,679
DA:216,2243
DA:217,2243
DA:219,0
DA:221,2979
DA:223,4228
DA:224,4228
DA:225,4228
DA:230,0
DA:231,0
DA:233,0
DA:235,0
DA:237,0
DA:240,0
DA:242,0
DA:244,0
DA:246,1258
DA:247,1258
DA:248,9394
DA:249,8136
DA:250,6878
DA:251,6878
DA:252,8136
DA:253,8136
DA:254,1258
DA:255,1258
DA:257,0
DA:258,0
DA:259,0
DA:260,0
DA:261,0
DA:262,0
DA:263,0
DA:264,0
DA:265,0
DA:266,0
DA:267,0
DA:269,1539
DA:270,1539
DA:271,1528
DA:273,11
DA:274,1539
DA:276,4016
DA:277,4016
DA:278,208
DA:281,3808
DA:282,4016
LF:185
LH:138
end_of_record
TN:
SF:/Users/rmac/Documents/GitHub/metabuilder-small/dbal/production/src/adapters/sql/sql_adapter_query.cpp
FNL:0,60,64
FNA:0,6,_ZN4dbal8adapters3sql10SqlAdapter11findByFieldERKNSt3__112basic_stringIcNS3_11char_traitsIcEENS3_9allocatorIcEEEESB_RKN8nlohmann16json_abi_v3_11_310basic_jsonINS3_3mapENS3_6vectorES9_bxydS7_NSD_14adl_serializerENSG_IhNS7_IhEEEEvEE
FNL:1,66,80
FNA:1,4,_ZN4dbal8adapters3sql10SqlAdapter6upsertERKNSt3__112basic_stringIcNS3_11char_traitsIcEENS3_9allocatorIcEEEESB_RKN8nlohmann16json_abi_v3_11_310basic_jsonINS3_3mapENS3_6vectorES9_bxydS7_NSD_14adl_serializerENSG_IhNS7_IhEEEEvEESM_SM_
FNL:2,9,58
FNA:2,11,_ZN4dbal8adapters3sql10SqlAdapter9findFirstERKNSt3__112basic_stringIcNS3_11char_traitsIcEENS3_9allocatorIcEEEERKN8nlohmann16json_abi_v3_11_310basic_jsonINS3_3mapENS3_6vectorES9_bxydS7_NSD_14adl_serializerENSG_IhNS7_IhEEEEvEE
FNF:3
FNH:3
DA:9,11
DA:10,11
DA:11,11
DA:12,1
DA:14,10
DA:16,10
DA:17,10
DA:18,0
DA:20,10
DA:22,10
DA:23,10
DA:24,10
DA:26,10
DA:27,10
DA:30,10
DA:31,66
DA:32,10
DA:33,26
DA:34,52
DA:36,10
DA:37,0
DA:39,10
DA:40,20
DA:43,10
DA:44,10
DA:45,10
DA:47,10
DA:50,10
DA:51,10
DA:52,4
DA:54,6
DA:55,10
DA:56,0
DA:57,0
DA:58,11
DA:60,6
DA:61,6
DA:62,6
DA:63,6
DA:64,6
DA:66,4
DA:69,4
DA:71,4
DA:73,2
DA:74,2
DA:75,2
DA:76,2
DA:78,2
DA:80,4
LF:49
LH:45
end_of_record
TN:
SF:/Users/rmac/Documents/GitHub/metabuilder-small/dbal/production/src/adapters/sql/sql_adapter_schema.cpp
FNL:0,146,191
FNA:0,57,_ZN4dbal8adapters3sql10SqlAdapter12migrateTableEPNS1_13SqlConnectionERKNS0_16EntityDefinitionENS0_10SqlDialectERNS0_20SqlTemplateGeneratorE
FNL:1,15,73
FNA:1,57,_ZN4dbal8adapters3sql10SqlAdapter11loadSchemasEv
FNL:2,195,202
FNA:2,2,_ZN4dbal8adapters3sql10SqlAdapter20getAvailableEntitiesEv
FNL:3,204,210
FNA:3,3,_ZN4dbal8adapters3sql10SqlAdapter15getEntitySchemaERKNSt3__112basic_stringIcNS3_11char_traitsIcEENS3_9allocatorIcEEEE
FNL:4,212,214
FNA:4,57,_ZN4dbal8adapters3sql10SqlAdapter5closeEv
FNL:5,218,224
FNA:5,588,_ZNK4dbal8adapters3sql10SqlAdapter23getEntitySchemaInternalERKNSt3__112basic_stringIcNS3_11char_traitsIcEENS3_9allocatorIcEEEE
FNL:6,74,81
FNA:6,456,_ZZN4dbal8adapters3sql10SqlAdapter11loadSchemasEvENK3$_0clEh
FNL:7,83,144
FNA:7,57,_ZN4dbal8adapters3sql10SqlAdapter12createTablesEv
FNF:8
FNH:8
DA:15,57
DA:18,57
DA:20,57
DA:21,57
DA:22,0
DA:24,0
DA:26,57
DA:27,57
DA:28,57
DA:30,114
DA:31,57
DA:32,57
DA:33,57
DA:35,456
DA:36,399
DA:37,399
DA:38,399
DA:39,399
DA:40,399
DA:41,399
DA:42,399
DA:43,399
DA:44,399
DA:45,399
DA:46,399
DA:47,399
DA:48,399
DA:51,57
DA:52,0
DA:53,0
DA:54,0
DA:55,0
DA:56,0
DA:57,0
DA:58,0
DA:59,0
DA:62,57
DA:63,57
DA:64,57
DA:65,57
DA:66,57
DA:69,57
DA:72,57
DA:73,57
DA:74,456
DA:75,57
DA:76,57
DA:77,57
DA:79,57
DA:80,57
DA:81,57
DA:83,57
DA:86,57
DA:87,57
DA:89,57
DA:90,57
DA:91,57
DA:92,0
DA:94,0
DA:96,57
DA:97,57
DA:98,0
DA:100,57
DA:103,57
DA:104,57
DA:105,57
DA:108,57
DA:109,57
DA:113,57
DA:114,31
DA:115,31
DA:116,26
DA:120,114
DA:122,57
DA:126,57
DA:127,57
DA:128,0
DA:129,0
DA:132,57
DA:133,114
DA:135,57
DA:136,57
DA:138,25
DA:142,57
DA:143,57
DA:144,82
DA:146,57
DA:148,57
DA:150,57
DA:151,57
DA:152,62
DA:153,31
DA:155,31
DA:156,248
DA:157,217
DA:158,217
DA:160,31
DA:162,52
DA:163,26
DA:165,26
DA:166,208
DA:167,182
DA:168,182
DA:169,182
DA:172,57
DA:173,0
DA:175,0
DA:177,456
DA:178,399
DA:179,0
DA:180,0
DA:182,0
DA:183,0
DA:184,0
DA:185,0
DA:186,0
DA:187,0
DA:188,0
DA:189,0
DA:191,57
DA:195,2
DA:196,2
DA:197,2
DA:198,6
DA:199,4
DA:201,2
DA:202,2
DA:204,3
DA:205,3
DA:206,3
DA:207,1
DA:209,2
DA:210,3
DA:212,57
DA:214,57
DA:218,588
DA:219,588
DA:220,588
DA:221,582
DA:223,6
DA:224,588
LF:141
LH:114
end_of_record
TN:
SF:/Users/rmac/Documents/GitHub/metabuilder-small/dbal/production/src/adapters/sql/sql_connection.hpp
FNL:0,102,108
FNA:0,642,_ZN4dbal8adapters3sql7SqlPool7releaseEPNS1_13SqlConnectionE
FNL:1,21,30
FNA:1,399,_ZN4dbal8adapters3sql19SqlConnectionConfigC1ERKS2_
FNA:1,57,_ZN4dbal8adapters3sql19SqlConnectionConfigC1Ev
FNA:1,399,_ZN4dbal8adapters3sql19SqlConnectionConfigC2ERKS2_
FNA:1,57,_ZN4dbal8adapters3sql19SqlConnectionConfigC2Ev
FNA:1,456,_ZN4dbal8adapters3sql19SqlConnectionConfigD1Ev
FNA:1,456,_ZN4dbal8adapters3sql19SqlConnectionConfigD2Ev
FNL:2,35,36
FNA:2,285,_ZN4dbal8adapters3sql13SqlConnectionC1ERKNS1_19SqlConnectionConfigE
FNA:2,285,_ZN4dbal8adapters3sql13SqlConnectionC2ERKNS1_19SqlConnectionConfigE
FNL:3,38,40
FNA:3,285,_ZN4dbal8adapters3sql13SqlConnectionD1Ev
FNA:3,285,_ZN4dbal8adapters3sql13SqlConnectionD2Ev
FNL:4,42,52
FNA:4,642,_ZN4dbal8adapters3sql13SqlConnection7connectEv
FNL:5,54,61
FNA:5,285,_ZN4dbal8adapters3sql13SqlConnection10disconnectEv
FNL:6,67,69
FNA:6,642,_ZN4dbal8adapters3sql13SqlConnection5touchEv
FNL:7,82
FNA:7,57,_ZN4dbal8adapters3sql7SqlPoolD1Ev
FNA:7,57,_ZN4dbal8adapters3sql7SqlPoolD2Ev
FNL:8,84,90
FNA:8,57,_ZN4dbal8adapters3sql7SqlPoolC1ERKNS1_19SqlConnectionConfigEm
FNA:8,57,_ZN4dbal8adapters3sql7SqlPoolC2ERKNS1_19SqlConnectionConfigEm
FNL:9,92,100
FNA:9,642,_ZN4dbal8adapters3sql7SqlPool7acquireEv
FNF:10
FNH:10
DA:21,513
DA:23,57
DA:30,57
DA:35,855
DA:36,855
DA:38,570
DA:39,285
DA:40,570
DA:42,642
DA:43,642
DA:44,642
DA:45,585
DA:49,57
DA:50,57
DA:51,57
DA:52,642
DA:54,285
DA:55,285
DA:56,285
DA:57,228
DA:60,57
DA:61,285
DA:67,642
DA:68,642
DA:69,642
DA:84,171
DA:85,114
DA:86,342
DA:87,285
DA:88,285
DA:89,285
DA:90,114
DA:92,642
DA:93,642
DA:94,642
DA:95,642
DA:96,642
DA:99,0
DA:100,642
DA:102,642
DA:103,642
DA:104,0
DA:106,642
DA:107,642
DA:108,642
LF:45
LH:43
end_of_record
TN:
SF:/Users/rmac/Documents/GitHub/metabuilder-small/dbal/production/src/adapters/sql/sql_connection_pool.cpp
FNL:0,16,21
FNA:0,0,_ZN4dbal8adapters3sql17SqlConnectionPoolD1Ev
FNA:0,0,_ZN4dbal8adapters3sql17SqlConnectionPoolD2Ev
FNL:1,23,39
FNA:1,0,_ZN4dbal8adapters3sql17SqlConnectionPool14initializePoolEv
FNL:2,41,44
FNA:2,0,_ZN4dbal8adapters3sql17SqlConnectionPool16createConnectionEv
FNL:3,47,68
FNA:3,0,_ZN4dbal8adapters3sql17SqlConnectionPool7acquireEv
FNL:4,70,77
FNA:4,0,_ZN4dbal8adapters3sql17SqlConnectionPool7releaseEPNS1_13SqlConnectionE
FNL:5,79,82
FNA:5,0,_ZNK4dbal8adapters3sql17SqlConnectionPool4sizeEv
FNL:6,84,87
FNA:6,0,_ZNK4dbal8adapters3sql17SqlConnectionPool9availableEv
FNL:7,9,14
FNA:7,0,_ZN4dbal8adapters3sql17SqlConnectionPoolC1ERKNS1_19SqlConnectionConfigE
FNA:7,0,_ZN4dbal8adapters3sql17SqlConnectionPoolC2ERKNS1_19SqlConnectionConfigE
FNF:8
FNH:0
DA:9,0
DA:10,0
DA:11,0
DA:12,0
DA:13,0
DA:14,0
DA:16,0
DA:17,0
DA:18,0
DA:19,0
DA:21,0
DA:23,0
DA:25,0
DA:26,0
DA:27,0
DA:28,0
DA:30,0
DA:31,0
DA:32,0
DA:33,0
DA:34,0
DA:35,0
DA:37,0
DA:38,0
DA:39,0
DA:41,0
DA:44,0
DA:47,0
DA:48,0
DA:50,0
DA:51,0
DA:52,0
DA:53,0
DA:54,0
DA:57,0
DA:58,0
DA:59,0
DA:60,0
DA:61,0
DA:63,0
DA:66,0
DA:67,0
DA:68,0
DA:70,0
DA:71,0
DA:72,0
DA:75,0
DA:76,0
DA:77,0
DA:79,0
DA:80,0
DA:81,0
DA:82,0
DA:84,0
DA:85,0
DA:86,0
DA:87,0
LF:57
LH:0
end_of_record
TN:
SF:/Users/rmac/Documents/GitHub/metabuilder-small/dbal/production/src/adapters/sql/sql_query_builder.cpp
FNL:0,10,39
FNA:0,0,_ZN4dbal8adapters3sql15SqlQueryBuilder11buildInsertERKNSt3__112basic_stringIcNS3_11char_traitsIcEENS3_9allocatorIcEEEERKNS_4core12EntitySchemaERKN8nlohmann16json_abi_v3_11_310basic_jsonINS3_3mapENS3_6vectorES9_bxydS7_NSH_14adl_serializerENSK_IhNS7_IhEEEEvEENS1_7DialectE
FNL:1,133,139
FNA:1,0,_ZN4dbal8adapters3sql15SqlQueryBuilder14buildFieldListERKNS_4core12EntitySchemaE
FNL:2,141,150
FNA:2,0,_ZN4dbal8adapters3sql15SqlQueryBuilder16buildWhereClauseERKN8nlohmann16json_abi_v3_11_310basic_jsonINSt3__13mapENS6_6vectorENS6_12basic_stringIcNS6_11char_traitsIcEENS6_9allocatorIcEEEEbxydSC_NS4_14adl_serializerENS8_IhNSC_IhEEEEvEENS1_7DialectERi
FNL:3,152,157
FNA:3,0,_ZN4dbal8adapters3sql15SqlQueryBuilder11placeholderENS1_7DialectEi
FNL:4,159,169
FNA:4,0,_ZN4dbal8adapters3sql15SqlQueryBuilder13joinFragmentsERKNSt3__16vectorINS3_12basic_stringIcNS3_11char_traitsIcEENS3_9allocatorIcEEEENS8_ISA_EEEERKSA_
FNL:5,41,54
FNA:5,0,_ZN4dbal8adapters3sql15SqlQueryBuilder11buildSelectERKNSt3__112basic_stringIcNS3_11char_traitsIcEENS3_9allocatorIcEEEERKNS_4core12EntitySchemaERKN8nlohmann16json_abi_v3_11_310basic_jsonINS3_3mapENS3_6vectorES9_bxydS7_NSH_14adl_serializerENSK_IhNS7_IhEEEEvEENS1_7DialectE
FNL:6,56,88
FNA:6,0,_ZN4dbal8adapters3sql15SqlQueryBuilder11buildUpdateERKNSt3__112basic_stringIcNS3_11char_traitsIcEENS3_9allocatorIcEEEERKNS_4core12EntitySchemaESB_RKN8nlohmann16json_abi_v3_11_310basic_jsonINS3_3mapENS3_6vectorES9_bxydS7_NSH_14adl_serializerENSK_IhNS7_IhEEEEvEENS1_7DialectE
FNL:7,90,97
FNA:7,0,_ZN4dbal8adapters3sql15SqlQueryBuilder11buildDeleteERKNSt3__112basic_stringIcNS3_11char_traitsIcEENS3_9allocatorIcEEEESB_NS1_7DialectE
FNL:8,99,131
FNA:8,0,_ZN4dbal8adapters3sql15SqlQueryBuilder9buildListERKNSt3__112basic_stringIcNS3_11char_traitsIcEENS3_9allocatorIcEEEERKNS_4core12EntitySchemaERKNS_11ListOptionsENS1_7DialectE
FNF:9
FNH:0
DA:10,0
DA:14,0
DA:15,0
DA:16,0
DA:18,0
DA:19,0
DA:20,0
DA:22,0
DA:23,0
DA:24,0
DA:25,0
DA:28,0
DA:29,0
DA:30,0
DA:31,0
DA:34,0
DA:35,0
DA:36,0
DA:38,0
DA:39,0
DA:41,0
DA:45,0
DA:46,0
DA:48,0
DA:49,0
DA:50,0
DA:51,0
DA:53,0
DA:54,0
DA:56,0
DA:61,0
DA:62,0
DA:64,0
DA:65,0
DA:66,0
DA:68,0
DA:69,0
DA:70,0
DA:73,0
DA:74,0
DA:77,0
DA:78,0
DA:79,0
DA:80,0
DA:83,0
DA:84,0
DA:85,0
DA:87,0
DA:88,0
DA:90,0
DA:93,0
DA:94,0
DA:95,0
DA:96,0
DA:97,0
DA:99,0
DA:103,0
DA:104,0
DA:106,0
DA:109,0
DA:110,0
DA:111,0
DA:114,0
DA:115,0
DA:116,0
DA:117,0
DA:118,0
DA:121,0
DA:124,0
DA:125,0
DA:127,0
DA:128,0
DA:130,0
DA:131,0
DA:133,0
DA:134,0
DA:135,0
DA:136,0
DA:138,0
DA:139,0
DA:141,0
DA:144,0
DA:145,0
DA:147,0
DA:149,0
DA:150,0
DA:152,0
DA:153,0
DA:154,0
DA:156,0
DA:157,0
DA:159,0
DA:161,0
DA:162,0
DA:163,0
DA:164,0
DA:165,0
DA:166,0
DA:167,0
DA:168,0
DA:169,0
LF:101
LH:0
end_of_record
TN:
SF:/Users/rmac/Documents/GitHub/metabuilder-small/dbal/production/src/adapters/sql/sql_result_parser.cpp
FNL:0,17,25
FNA:0,0,_ZN4dbal8adapters3sql15SqlResultParser10rowsToJsonERKNSt3__16vectorINS1_6SqlRowENS3_9allocatorIS5_EEEERKNS0_12EntitySchemaE
FNL:1,27,29
FNA:1,0,_ZN4dbal8adapters3sql15SqlResultParser14getColumnValueERKNS1_6SqlRowERKNSt3__112basic_stringIcNS6_11char_traitsIcEENS6_9allocatorIcEEEE
FNL:2,33,54
FNA:2,0,_ZN4dbal8adapters3sql15SqlResultParser12jsonToParamsERKNS0_12EntitySchemaERKN8nlohmann16json_abi_v3_11_310basic_jsonINSt3__13mapENS9_6vectorENS9_12basic_stringIcNS9_11char_traitsIcEENS9_9allocatorIcEEEEbxydSF_NS7_14adl_serializerENSB_IhNSF_IhEEEEvEERKSH_
FNL:3,56,79
FNA:3,0,_ZN4dbal8adapters3sql15SqlResultParser10parseValueERKNSt3__112basic_stringIcNS3_11char_traitsIcEENS3_9allocatorIcEEEERKNS0_11EntityFieldE
FNL:4,8,15
FNA:4,0,_ZN4dbal8adapters3sql15SqlResultParser9rowToJsonERKNS1_6SqlRowERKNS0_12EntitySchemaE
FNF:5
FNH:0
DA:8,0
DA:9,0
DA:10,0
DA:11,0
DA:12,0
DA:13,0
DA:14,0
DA:15,0
DA:17,0
DA:19,0
DA:20,0
DA:21,0
DA:22,0
DA:24,0
DA:25,0
DA:27,0
DA:28,0
DA:29,0
DA:33,0
DA:36,0
DA:39,0
DA:40,0
DA:41,0
DA:44,0
DA:45,0
DA:46,0
DA:48,0
DA:49,0
DA:50,0
DA:53,0
DA:54,0
DA:56,0
DA:57,0
DA:58,0
DA:61,0
DA:62,0
DA:63,0
DA:64,0
DA:66,0
DA:67,0
DA:68,0
DA:69,0
DA:70,0
DA:71,0
DA:72,0
DA:73,0
DA:75,0
DA:77,0
DA:79,0
LF:49
LH:0
end_of_record
TN:
SF:/Users/rmac/Documents/GitHub/metabuilder-small/dbal/production/src/adapters/sql/sql_schema_manager.cpp
FNL:0,10,12
FNA:0,0,_ZN4dbal8adapters3sql16SqlSchemaManagerC1ERKNSt3__112basic_stringIcNS3_11char_traitsIcEENS3_9allocatorIcEEEE
FNA:0,0,_ZN4dbal8adapters3sql16SqlSchemaManagerC2ERKNSt3__112basic_stringIcNS3_11char_traitsIcEENS3_9allocatorIcEEEE
FNL:1,14,36
FNA:1,0,_ZN4dbal8adapters3sql16SqlSchemaManager11loadSchemasEv
FNL:2,38,44
FNA:2,0,_ZNK4dbal8adapters3sql16SqlSchemaManager9getSchemaERKNSt3__112basic_stringIcNS3_11char_traitsIcEENS3_9allocatorIcEEEE
FNL:3,46,60
FNA:3,0,_ZNK4dbal8adapters3sql16SqlSchemaManager20getAvailableEntitiesEv
FNL:4,62,63
FNA:4,0,_ZNK4dbal8adapters3sql16SqlSchemaManager14getSchemaCountEv
FNL:5,66,86
FNA:5,0,_ZN4dbal8adapters3sql16SqlSchemaManager21convertToEntitySchemaERKNS0_16EntityDefinitionERNS0_12EntitySchemaE
FNF:6
FNH:0
DA:10,0
DA:11,0
DA:12,0
DA:14,0
DA:15,0
DA:18,0
DA:21,0
DA:22,0
DA:23,0
DA:26,0
DA:29,0
DA:30,0
DA:31,0
DA:32,0
DA:33,0
DA:35,0
DA:36,0
DA:38,0
DA:39,0
DA:40,0
DA:41,0
DA:43,0
DA:44,0
DA:46,0
DA:47,0
DA:48,0
DA:51,0
DA:52,0
DA:53,0
DA:54,0
DA:55,0
DA:56,0
DA:59,0
DA:60,0
DA:62,0
DA:63,0
DA:66,0
DA:68,0
DA:69,0
DA:72,0
DA:73,0
DA:74,0
DA:75,0
DA:76,0
DA:77,0
DA:78,0
DA:80,0
DA:81,0
DA:82,0
DA:84,0
DA:85,0
DA:86,0
LF:52
LH:0
end_of_record
TN:
SF:/Users/rmac/Documents/GitHub/metabuilder-small/dbal/production/src/adapters/sql/sql_transaction_manager.cpp
FNL:0,12,21
FNA:0,5,_ZN4dbal8adapters3sql21SqlTransactionManagerD1Ev
FNA:0,5,_ZN4dbal8adapters3sql21SqlTransactionManagerD2Ev
FNL:1,23,33
FNA:1,5,_ZN4dbal8adapters3sql21SqlTransactionManager5beginEv
FNL:2,35,44
FNA:2,3,_ZN4dbal8adapters3sql21SqlTransactionManager6commitEv
FNL:3,46,54
FNA:3,2,_ZN4dbal8adapters3sql21SqlTransactionManager8rollbackEv
FNL:4,8,10
FNA:4,5,_ZN4dbal8adapters3sql21SqlTransactionManagerC1EPNS1_13SqlConnectionE
FNA:4,5,_ZN4dbal8adapters3sql21SqlTransactionManagerC2EPNS1_13SqlConnectionE
FNF:5
FNH:5
DA:8,10
DA:9,10
DA:10,10
DA:12,10
DA:14,5
DA:16,0
DA:17,0
DA:18,0
DA:19,0
DA:20,0
DA:21,10
DA:23,5
DA:24,5
DA:25,0
DA:31,5
DA:32,5
DA:33,5
DA:35,3
DA:36,3
DA:37,0
DA:41,3
DA:42,3
DA:43,3
DA:44,3
DA:46,2
DA:47,2
DA:48,0
DA:52,2
DA:53,2
DA:54,2
LF:30
LH:22
end_of_record
TN:
SF:/Users/rmac/Documents/GitHub/metabuilder-small/dbal/production/src/adapters/sql/sql_transaction_manager.hpp
FNL:0,40,40
FNA:0,5,_ZNK4dbal8adapters3sql21SqlTransactionManager8isActiveEv
FNF:1
FNH:1
DA:40,5
LF:1
LH:1
end_of_record
TN:
SF:/Users/rmac/Documents/GitHub/metabuilder-small/dbal/production/src/adapters/sql/sql_type_mapper.cpp
FNL:0,48,60
FNA:0,0,_ZN4dbal8adapters3sql13SqlTypeMapper17jsonValueToStringERKN8nlohmann16json_abi_v3_11_310basic_jsonINSt3__13mapENS6_6vectorENS6_12basic_stringIcNS6_11char_traitsIcEENS6_9allocatorIcEEEEbxydSC_NS4_14adl_serializerENS8_IhNSC_IhEEEEvEE
FNL:1,62,78
FNA:1,0,_ZN4dbal8adapters3sql13SqlTypeMapper14sqlValueToJsonERKNSt3__112basic_stringIcNS3_11char_traitsIcEENS3_9allocatorIcEEEESB_
FNL:2,80,90
FNA:2,0,_ZN4dbal8adapters3sql13SqlTypeMapper11toSnakeCaseERKNSt3__112basic_stringIcNS3_11char_traitsIcEENS3_9allocatorIcEEEE
FNL:3,9,46
FNA:3,0,_ZN4dbal8adapters3sql13SqlTypeMapper17yamlTypeToSqlTypeERKNSt3__112basic_stringIcNS3_11char_traitsIcEENS3_9allocatorIcEEEENS1_7DialectE
FNL:4,92,94
FNA:4,0,_ZN4dbal8adapters3sql13SqlTypeMapper13isNumericTypeERKNSt3__112basic_stringIcNS3_11char_traitsIcEENS3_9allocatorIcEEEE
FNL:5,97,98
FNA:5,0,_ZN4dbal8adapters3sql13SqlTypeMapper13isBooleanTypeERKNSt3__112basic_stringIcNS3_11char_traitsIcEENS3_9allocatorIcEEEE
FNF:6
FNH:0
DA:9,0
DA:11,0
DA:12,0
DA:13,0
DA:14,0
DA:15,0
DA:16,0
DA:17,0
DA:18,0
DA:19,0
DA:21,0
DA:22,0
DA:23,0
DA:24,0
DA:26,0
DA:27,0
DA:28,0
DA:29,0
DA:31,0
DA:32,0
DA:33,0
DA:34,0
DA:36,0
DA:37,0
DA:38,0
DA:39,0
DA:41,0
DA:45,0
DA:46,0
DA:48,0
DA:49,0
DA:50,0
DA:51,0
DA:52,0
DA:53,0
DA:54,0
DA:55,0
DA:56,0
DA:58,0
DA:60,0
DA:62,0
DA:63,0
DA:64,0
DA:67,0
DA:68,0
DA:69,0
DA:71,0
DA:72,0
DA:73,0
DA:74,0
DA:75,0
DA:76,0
DA:78,0
DA:80,0
DA:81,0
DA:82,0
DA:83,0
DA:84,0
DA:85,0
DA:86,0
DA:87,0
DA:88,0
DA:89,0
DA:90,0
DA:92,0
DA:93,0
DA:94,0
DA:97,0
DA:98,0
LF:69
LH:0
end_of_record
TN:
SF:/Users/rmac/Documents/GitHub/metabuilder-small/dbal/production/src/adapters/sql/sql_types.hpp
FNL:0,14,14
FNA:0,6591,_ZN4dbal8adapters3sql8SqlParamC1EOS2_
FNA:0,121,_ZN4dbal8adapters3sql8SqlParamC1ERKS2_
FNA:0,6591,_ZN4dbal8adapters3sql8SqlParamC2EOS2_
FNA:0,121,_ZN4dbal8adapters3sql8SqlParamC2ERKS2_
FNA:0,10071,_ZN4dbal8adapters3sql8SqlParamD1Ev
FNA:0,10071,_ZN4dbal8adapters3sql8SqlParamD2Ev
FNL:1,22
FNA:1,1283,_ZN4dbal8adapters3sql6SqlRowC1EOS2_
FNA:1,1042,_ZN4dbal8adapters3sql6SqlRowC1Ev
FNA:1,1283,_ZN4dbal8adapters3sql6SqlRowC2EOS2_
FNA:1,1042,_ZN4dbal8adapters3sql6SqlRowC2Ev
FNA:1,2325,_ZN4dbal8adapters3sql6SqlRowD1Ev
FNA:1,2325,_ZN4dbal8adapters3sql6SqlRowD2Ev
FNL:2,29
FNA:2,25,_ZN4dbal8adapters3sql8SqlErrorD1Ev
FNA:2,25,_ZN4dbal8adapters3sql8SqlErrorD2Ev
FNF:3
FNH:3
DA:14,121
LF:1
LH:1
end_of_record
TN:
SF:/Users/rmac/Documents/GitHub/metabuilder-small/dbal/production/src/adapters/sql/sql_where_builder.hpp
FNL:0,111,129
FNA:0,2,_ZN4dbal8adapters3sql15SqlWhereBuilder20buildAggregateSelectERKNSt3__16vectorINS_13AggregateSpecENS3_9allocatorIS5_EEEERKNS4_INS3_12basic_stringIcNS3_11char_traitsIcEENS6_IcEEEENS6_ISF_EEEERKNS3_13unordered_setISF_NS3_4hashISF_EENS3_8equal_toISF_EESG_EERKSF_
FNL:1,134,146
FNA:1,2,_ZN4dbal8adapters3sql15SqlWhereBuilder12buildGroupByERKNSt3__16vectorINS3_12basic_stringIcNS3_11char_traitsIcEENS3_9allocatorIcEEEENS8_ISA_EEEERKNS3_13unordered_setISA_NS3_4hashISA_EENS3_8equal_toISA_EESB_EERKSA_
FNL:2,149,154
FNA:2,97,_ZN4dbal8adapters3sql15SqlWhereBuilder7quoteIdERKNSt3__112basic_stringIcNS3_11char_traitsIcEENS3_9allocatorIcEEEESB_
FNL:3,158,163
FNA:3,64,_ZN4dbal8adapters3sql15SqlWhereBuilder13validateFieldERKNSt3__112basic_stringIcNS3_11char_traitsIcEENS3_9allocatorIcEEEERKNS3_13unordered_setIS9_NS3_4hashIS9_EENS3_8equal_toIS9_EENS7_IS9_EEEE
FNL:4,166,171
FNA:4,58,_ZN4dbal8adapters3sql15SqlWhereBuilder2phEiRKNSt3__112basic_stringIcNS3_11char_traitsIcEENS3_9allocatorIcEEEE
FNL:5,174,234
FNA:5,21,_ZN4dbal8adapters3sql15SqlWhereBuilder14buildConditionERKNS_15FilterConditionERKNSt3__112basic_stringIcNS6_11char_traitsIcEENS6_9allocatorIcEEEERNS6_6vectorINS1_8SqlParamENSA_ISG_EEEERi
FNL:6,236,245
FNA:6,2,_ZN4dbal8adapters3sql15SqlWhereBuilder11aggFuncNameENS_7AggFuncE
FNL:7,247,254
FNA:7,45,_ZN4dbal8adapters3sql15SqlWhereBuilder4joinERKNSt3__16vectorINS3_12basic_stringIcNS3_11char_traitsIcEENS3_9allocatorIcEEEENS8_ISA_EEEERKSA_
FNL:8,41,83
FNA:8,35,_ZN4dbal8adapters3sql15SqlWhereBuilder5buildERKNSt3__16vectorINS_15FilterConditionENS3_9allocatorIS5_EEEERKNS4_INS_11FilterGroupENS6_ISB_EEEERKNS3_3mapINS3_12basic_stringIcNS3_11char_traitsIcEENS6_IcEEEESL_NS3_4lessISL_EENS6_INS3_4pairIKSL_SL_EEEEEERKNS3_13unordered_setISL_NS3_4hashISL_EENS3_8equal_toISL_EENS6_ISL_EEEERSP_RNS4_INS1_8SqlParamENS6_IS15_EEEERi
FNL:9,89,105
FNA:9,33,_ZN4dbal8adapters3sql15SqlWhereBuilder12buildOrderByERKNSt3__13mapINS3_12basic_stringIcNS3_11char_traitsIcEENS3_9allocatorIcEEEESA_NS3_4lessISA_EENS8_INS3_4pairIKSA_SA_EEEEEERKNS3_13unordered_setISA_NS3_4hashISA_EENS3_8equal_toISA_EENS8_ISA_EEEERSE_ST_
FNF:10
FNH:10
DA:41,35
DA:50,35
DA:53,105
DA:54,35
DA:55,35
DA:56,70
DA:57,35
DA:61,52
DA:62,17
DA:63,17
DA:67,37
DA:68,2
DA:69,2
DA:70,6
DA:71,4
DA:72,4
DA:74,2
DA:75,0
DA:76,0
DA:77,2
DA:79,2
DA:81,35
DA:82,35
DA:83,35
DA:89,33
DA:95,33
DA:96,31
DA:98,2
DA:99,6
DA:100,2
DA:101,2
DA:102,2
DA:103,2
DA:104,2
DA:105,33
DA:111,2
DA:117,2
DA:118,4
DA:119,2
DA:120,2
DA:121,2
DA:122,2
DA:123,2
DA:124,4
DA:125,2
DA:126,2
DA:128,2
DA:129,2
DA:134,2
DA:139,2
DA:140,2
DA:141,4
DA:142,2
DA:143,2
DA:145,2
DA:146,2
DA:149,97
DA:150,97
DA:151,43
DA:153,54
DA:154,97
DA:158,64
DA:160,64
DA:161,0
DA:163,64
DA:166,58
DA:167,58
DA:168,32
DA:170,26
DA:171,58
DA:174,21
DA:180,21
DA:181,21
DA:183,10
DA:184,10
DA:186,0
DA:187,0
DA:189,2
DA:190,2
DA:192,0
DA:193,0
DA:195,0
DA:196,0
DA:198,0
DA:199,0
DA:201,2
DA:202,2
DA:204,1
DA:205,1
DA:206,1
DA:207,0
DA:209,2
DA:211,0
DA:214,2
DA:215,2
DA:216,2
DA:217,6
DA:218,4
DA:219,4
DA:221,2
DA:222,2
DA:224,2
DA:225,2
DA:226,2
DA:227,2
DA:228,2
DA:229,2
DA:231,0
DA:232,0
DA:234,21
DA:236,2
DA:237,2
DA:238,2
DA:239,0
DA:240,0
DA:241,0
DA:242,0
DA:243,0
DA:245,2
DA:247,45
DA:248,45
DA:249,115
DA:250,70
DA:251,70
DA:252,70
DA:253,45
DA:254,45
LF:127
LH:107
end_of_record
TN:
SF:/Users/rmac/Documents/GitHub/metabuilder-small/dbal/production/src/adapters/sql_template_generator.hpp
FNL:0,20,28
FNA:0,106,_ZN4dbal8adapters20SqlTemplateGeneratorD1Ev
FNA:0,106,_ZN4dbal8adapters20SqlTemplateGeneratorD2Ev
FNL:1,201,210
FNA:1,106,_ZN4dbal8adapters20SqlTemplateGeneratorC1ERKNSt3__112basic_stringIcNS2_11char_traitsIcEENS2_9allocatorIcEEEE
FNA:1,106,_ZN4dbal8adapters20SqlTemplateGeneratorC2ERKNSt3__112basic_stringIcNS2_11char_traitsIcEENS2_9allocatorIcEEEE
FNL:2,216,239
FNA:2,106,_ZN4dbal8adapters20SqlTemplateGenerator19generateCreateTableERKNS0_16EntityDefinitionENS0_10SqlDialectE
FNL:3,244,272
FNA:3,106,_ZN4dbal8adapters20SqlTemplateGenerator15generateIndexesERKNS0_16EntityDefinitionENS0_10SqlDialectE
FNL:4,28,66
FNA:4,1484,_ZN4dbal8adapters20SqlTemplateGenerator12mapFieldTypeERKNS0_15FieldDefinitionENS0_10SqlDialectE
FNL:5,280,295
FNA:5,0,_ZNK4dbal8adapters20SqlTemplateGenerator22generateAlterAddColumnERKNS0_16EntityDefinitionERKNS0_15FieldDefinitionENS0_10SqlDialectE
FNL:6,301,318
FNA:6,0,_ZNK4dbal8adapters20SqlTemplateGenerator28getInlineCreateTableTemplateENS0_10SqlDialectE
FNL:7,71,198
FNA:7,212,_ZNK4dbal8adapters20SqlTemplateGenerator12entityToJsonERKNS0_16EntityDefinitionENS0_10SqlDialectE
FNF:8
FNH:6
DA:28,1484
DA:29,1484
DA:30,1484
DA:32,1484
DA:33,686
DA:34,490
DA:35,196
DA:36,196
DA:37,0
DA:38,0
DA:39,0
DA:42,798
DA:43,434
DA:44,372
DA:45,248
DA:46,124
DA:47,124
DA:48,62
DA:49,0
DA:50,0
DA:51,0
DA:52,0
DA:56,364
DA:57,312
DA:58,208
DA:59,104
DA:60,104
DA:61,52
DA:62,0
DA:63,0
DA:64,0
DA:65,0
DA:66,1484
DA:71,212
DA:72,212
DA:73,212
DA:74,212
DA:75,212
DA:78,212
DA:79,1696
DA:80,1484
DA:81,1484
DA:82,1484
DA:83,1484
DA:84,1484
DA:85,1484
DA:86,1484
DA:89,1484
DA:90,0
DA:91,0
DA:92,0
DA:93,0
DA:94,0
DA:95,0
DA:97,0
DA:98,0
DA:99,0
DA:100,0
DA:102,1484
DA:104,212
DA:105,212
DA:106,62
DA:107,212
DA:108,98
DA:109,98
DA:110,52
DA:112,212
DA:114,0
DA:115,0
DA:116,0
DA:117,0
DA:118,0
DA:119,0
DA:122,1484
DA:124,212
DA:125,62
DA:126,212
DA:127,98
DA:128,98
DA:129,52
DA:131,212
DA:134,1484
DA:135,1484
DA:136,1484
DA:137,0
DA:138,0
DA:139,0
DA:140,0
DA:141,0
DA:142,0
DA:143,0
DA:144,1484
DA:145,0
DA:146,0
DA:147,1484
DA:148,0
DA:149,0
DA:150,1484
DA:151,0
DA:152,0
DA:153,0
DA:154,0
DA:155,0
DA:156,0
DA:157,0
DA:158,0
DA:160,1484
DA:161,1484
DA:162,212
DA:165,212
DA:166,424
DA:167,212
DA:170,212
DA:171,0
DA:172,0
DA:173,0
DA:174,0
DA:175,0
DA:178,0
DA:179,0
DA:181,212
DA:182,212
DA:183,212
DA:186,212
DA:187,636
DA:188,424
DA:190,212
DA:191,212
DA:193,212
DA:194,212
DA:195,212
DA:197,212
DA:198,212
DA:201,212
DA:202,212
DA:208,106
DA:209,106
DA:210,212
DA:216,106
DA:218,106
DA:219,106
DA:220,49
DA:221,106
DA:222,31
DA:223,31
DA:224,26
DA:228,106
DA:230,106
DA:231,106
DA:232,106
DA:233,106
DA:236,0
DA:237,0
DA:238,0
DA:239,106
DA:244,106
DA:245,106
DA:246,106
DA:248,106
DA:249,0
DA:253,106
DA:254,106
DA:255,49
DA:256,106
DA:257,31
DA:258,31
DA:259,26
DA:262,212
DA:263,106
DA:264,106
DA:265,106
DA:266,106
DA:267,106
DA:268,106
DA:269,106
DA:271,106
DA:272,106
DA:280,0
DA:283,0
DA:284,0
DA:285,0
DA:286,0
DA:287,0
DA:288,0
DA:289,0
DA:292,0
DA:293,0
DA:295,0
DA:301,0
DA:302,0
DA:303,0
DA:307,0
DA:308,0
DA:313,0
DA:318,0
LF:195
LH:120
end_of_record
TN:
SF:/Users/rmac/Documents/GitHub/metabuilder-small/dbal/production/src/adapters/sqlite/sqlite_adapter.hpp
FNL:0,80,80
FNA:0,0,_ZNK4dbal8adapters6sqlite13SQLiteAdapter26supportsNativeTransactionsEv
FNF:1
FNH:0
DA:80,0
LF:1
LH:0
end_of_record
TN:
SF:/Users/rmac/Documents/GitHub/metabuilder-small/dbal/production/src/adapters/sqlite/sqlite_adapter_bulk.cpp
FNL:0,12,34
FNA:0,3,_ZN4dbal8adapters6sqlite13SQLiteAdapter10createManyERKNSt3__112basic_stringIcNS3_11char_traitsIcEENS3_9allocatorIcEEEERKNS3_6vectorIN8nlohmann16json_abi_v3_11_310basic_jsonINS3_3mapESC_S9_bxydS7_NSE_14adl_serializerENSC_IhNS7_IhEEEEvEENS7_ISK_EEEE
FNL:1,36,51
FNA:1,3,_ZN4dbal8adapters6sqlite13SQLiteAdapter10updateManyERKNSt3__112basic_stringIcNS3_11char_traitsIcEENS3_9allocatorIcEEEERKN8nlohmann16json_abi_v3_11_310basic_jsonINS3_3mapENS3_6vectorES9_bxydS7_NSD_14adl_serializerENSG_IhNS7_IhEEEEvEESM_
FNL:2,53,64
FNA:2,3,_ZN4dbal8adapters6sqlite13SQLiteAdapter10deleteManyERKNSt3__112basic_stringIcNS3_11char_traitsIcEENS3_9allocatorIcEEEERKN8nlohmann16json_abi_v3_11_310basic_jsonINS3_3mapENS3_6vectorES9_bxydS7_NSD_14adl_serializerENSG_IhNS7_IhEEEEvEE
FNF:3
FNH:3
DA:12,3
DA:13,3
DA:14,1
DA:17,2
DA:18,2
DA:19,1
DA:21,1
DA:23,1
DA:24,6
DA:25,5
DA:26,5
DA:27,5
DA:28,5
DA:29,5
DA:30,5
DA:31,5
DA:33,1
DA:34,3
DA:36,3
DA:37,3
DA:38,3
DA:39,1
DA:41,2
DA:43,2
DA:44,1
DA:47,1
DA:48,1
DA:50,1
DA:51,3
DA:53,3
DA:54,3
DA:55,3
DA:56,1
DA:58,2
DA:60,2
DA:61,2
DA:63,2
DA:64,3
LF:38
LH:38
end_of_record
TN:
SF:/Users/rmac/Documents/GitHub/metabuilder-small/dbal/production/src/adapters/sqlite/sqlite_adapter_crud.cpp
FNL:0,104,155
FNA:0,29,_ZN4dbal8adapters6sqlite13SQLiteAdapter4listERKNSt3__112basic_stringIcNS3_11char_traitsIcEENS3_9allocatorIcEEEERKNS_11ListOptionsE
FNL:1,14,30
FNA:1,398,_ZN4dbal8adapters6sqlite13SQLiteAdapter6createERKNSt3__112basic_stringIcNS3_11char_traitsIcEENS3_9allocatorIcEEEERKN8nlohmann16json_abi_v3_11_310basic_jsonINS3_3mapENS3_6vectorES9_bxydS7_NSD_14adl_serializerENSG_IhNS7_IhEEEEvEE
FNL:2,159,160
FNA:2,2,_ZN4dbal8adapters6sqlite13SQLiteAdapter16beginTransactionEv
FNL:3,163,164
FNA:3,1,_ZN4dbal8adapters6sqlite13SQLiteAdapter17commitTransactionEv
FNL:4,167,168
FNA:4,1,_ZN4dbal8adapters6sqlite13SQLiteAdapter19rollbackTransactionEv
FNL:5,32,58
FNA:5,7,_ZN4dbal8adapters6sqlite13SQLiteAdapter4readERKNSt3__112basic_stringIcNS3_11char_traitsIcEENS3_9allocatorIcEEEESB_
FNL:6,60,80
FNA:6,3,_ZN4dbal8adapters6sqlite13SQLiteAdapter6updateERKNSt3__112basic_stringIcNS3_11char_traitsIcEENS3_9allocatorIcEEEESB_RKN8nlohmann16json_abi_v3_11_310basic_jsonINS3_3mapENS3_6vectorES9_bxydS7_NSD_14adl_serializerENSG_IhNS7_IhEEEEvEE
FNL:7,82,102
FNA:7,2,_ZN4dbal8adapters6sqlite13SQLiteAdapter6removeERKNSt3__112basic_stringIcNS3_11char_traitsIcEENS3_9allocatorIcEEEESB_
FNF:8
FNH:8
DA:14,398
DA:15,398
DA:16,398
DA:17,1
DA:19,397
DA:21,397
DA:22,397
DA:24,397
DA:25,397
DA:26,0
DA:29,397
DA:30,398
DA:32,7
DA:33,7
DA:34,7
DA:35,1
DA:37,6
DA:39,6
DA:40,6
DA:42,6
DA:43,6
DA:44,0
DA:47,6
DA:48,6
DA:49,0
DA:52,6
DA:53,6
DA:54,2
DA:57,4
DA:58,7
DA:60,3
DA:61,3
DA:62,3
DA:63,1
DA:65,2
DA:67,2
DA:68,2
DA:70,2
DA:71,2
DA:72,0
DA:75,2
DA:76,0
DA:79,2
DA:80,3
DA:82,2
DA:83,2
DA:84,2
DA:85,1
DA:87,1
DA:89,1
DA:90,1
DA:92,1
DA:93,1
DA:94,0
DA:97,1
DA:98,0
DA:101,1
DA:102,2
DA:104,29
DA:105,29
DA:106,29
DA:107,1
DA:109,28
DA:112,28
DA:113,28
DA:114,28
DA:116,28
DA:117,28
DA:118,28
DA:119,28
DA:120,28
DA:121,27
DA:122,27
DA:124,1
DA:125,3
DA:127,28
DA:128,28
DA:129,28
DA:130,28
DA:132,28
DA:133,28
DA:135,28
DA:136,28
DA:137,0
DA:140,28
DA:141,28
DA:142,0
DA:145,28
DA:146,28
DA:148,28
DA:149,28
DA:150,28
DA:151,28
DA:152,28
DA:154,28
DA:155,29
DA:159,2
DA:160,2
DA:163,1
DA:164,1
DA:167,1
DA:168,1
LF:102
LH:93
end_of_record
TN:
SF:/Users/rmac/Documents/GitHub/metabuilder-small/dbal/production/src/adapters/sqlite/sqlite_adapter_query.cpp
FNL:0,108,114
FNA:0,2,_ZN4dbal8adapters6sqlite13SQLiteAdapter15getEntitySchemaERKNSt3__112basic_stringIcNS3_11char_traitsIcEENS3_9allocatorIcEEEE
FNL:1,12,46
FNA:1,1,_ZN4dbal8adapters6sqliteL22convertToAdapterSchemaERKNS_4core12EntitySchemaE
FNL:2,50,76
FNA:2,6,_ZN4dbal8adapters6sqlite13SQLiteAdapter9findFirstERKNSt3__112basic_stringIcNS3_11char_traitsIcEENS3_9allocatorIcEEEERKN8nlohmann16json_abi_v3_11_310basic_jsonINS3_3mapENS3_6vectorES9_bxydS7_NSD_14adl_serializerENSG_IhNS7_IhEEEEvEE
FNL:3,78,82
FNA:3,3,_ZN4dbal8adapters6sqlite13SQLiteAdapter11findByFieldERKNSt3__112basic_stringIcNS3_11char_traitsIcEENS3_9allocatorIcEEEESB_RKN8nlohmann16json_abi_v3_11_310basic_jsonINS3_3mapENS3_6vectorES9_bxydS7_NSD_14adl_serializerENSG_IhNS7_IhEEEEvEE
FNL:4,84,95
FNA:4,2,_ZN4dbal8adapters6sqlite13SQLiteAdapter6upsertERKNSt3__112basic_stringIcNS3_11char_traitsIcEENS3_9allocatorIcEEEESB_RKN8nlohmann16json_abi_v3_11_310basic_jsonINS3_3mapENS3_6vectorES9_bxydS7_NSD_14adl_serializerENSG_IhNS7_IhEEEEvEESM_SM_
FNL:5,99,106
FNA:5,1,_ZN4dbal8adapters6sqlite13SQLiteAdapter20getAvailableEntitiesEv
FNF:6
FNH:6
DA:12,1
DA:13,1
DA:14,1
DA:15,1
DA:18,8
DA:19,7
DA:20,7
DA:21,7
DA:22,7
DA:23,7
DA:24,7
DA:25,7
DA:26,7
DA:27,7
DA:30,2
DA:31,1
DA:32,0
DA:33,1
DA:35,1
DA:36,3
DA:37,2
DA:39,1
DA:40,1
DA:43,1
DA:45,1
DA:46,1
DA:50,6
DA:51,6
DA:52,6
DA:53,1
DA:55,5
DA:57,5
DA:58,5
DA:60,5
DA:61,5
DA:62,0
DA:65,5
DA:66,5
DA:67,0
DA:70,5
DA:71,5
DA:72,2
DA:75,3
DA:76,6
DA:78,3
DA:79,3
DA:80,3
DA:81,3
DA:82,3
DA:84,2
DA:86,2
DA:88,2
DA:89,1
DA:90,1
DA:91,1
DA:92,1
DA:93,1
DA:95,2
DA:99,1
DA:100,1
DA:101,1
DA:102,2
DA:103,1
DA:105,1
DA:106,1
DA:108,2
DA:109,2
DA:110,2
DA:111,1
DA:113,1
DA:114,2
LF:71
LH:68
end_of_record
TN:
SF:/Users/rmac/Documents/GitHub/metabuilder-small/dbal/production/src/adapters/sqlite/sqlite_adapter_schema.cpp
FNL:0,142,172
FNA:0,49,_ZN4dbal8adapters6sqlite13SQLiteAdapter12migrateTableERKNS0_16EntityDefinitionERNS0_20SqlTemplateGeneratorE
FNL:1,16,30
FNA:1,49,_ZN4dbal8adapters6sqlite13SQLiteAdapterC1ERKNSt3__112basic_stringIcNS3_11char_traitsIcEENS3_9allocatorIcEEEE
FNA:1,49,_ZN4dbal8adapters6sqlite13SQLiteAdapterC2ERKNSt3__112basic_stringIcNS3_11char_traitsIcEENS3_9allocatorIcEEEE
FNL:2,174,180
FNA:2,455,_ZNK4dbal8adapters6sqlite13SQLiteAdapter23getEntitySchemaInternalERKNSt3__112basic_stringIcNS3_11char_traitsIcEENS3_9allocatorIcEEEE
FNL:3,32,34
FNA:3,49,_ZN4dbal8adapters6sqlite13SQLiteAdapterD0Ev
FNA:3,49,_ZN4dbal8adapters6sqlite13SQLiteAdapterD1Ev
FNA:3,49,_ZN4dbal8adapters6sqlite13SQLiteAdapterD2Ev
FNL:4,36,41
FNA:4,98,_ZN4dbal8adapters6sqlite13SQLiteAdapter5closeEv
FNL:5,49,84
FNA:5,49,_ZN4dbal8adapters6sqliteL17entityDefToSchemaERKNS0_16EntityDefinitionE
FNL:6,86,90
FNA:6,49,_ZN4dbal8adapters6sqlite13SQLiteAdapter11loadSchemasEv
FNL:7,92,140
FNA:7,49,_ZN4dbal8adapters6sqlite13SQLiteAdapter12createTablesEv
FNF:8
FNH:8
DA:16,98
DA:17,98
DA:20,49
DA:21,49
DA:22,49
DA:23,49
DA:26,49
DA:28,49
DA:29,49
DA:30,98
DA:32,147
DA:33,49
DA:34,147
DA:36,98
DA:37,98
DA:38,98
DA:39,98
DA:40,98
DA:41,98
DA:49,49
DA:50,49
DA:51,49
DA:52,49
DA:53,49
DA:54,49
DA:56,392
DA:57,343
DA:58,343
DA:59,343
DA:60,343
DA:61,343
DA:62,343
DA:63,343
DA:64,343
DA:65,343
DA:66,343
DA:67,343
DA:68,343
DA:69,343
DA:70,343
DA:71,0
DA:72,0
DA:73,343
DA:74,343
DA:76,98
DA:77,49
DA:78,49
DA:79,49
DA:80,49
DA:81,49
DA:83,49
DA:84,49
DA:86,49
DA:90,49
DA:92,49
DA:95,49
DA:96,49
DA:97,49
DA:98,49
DA:100,49
DA:101,49
DA:102,49
DA:104,98
DA:106,49
DA:107,49
DA:108,49
DA:110,49
DA:112,49
DA:113,49
DA:114,49
DA:115,0
DA:116,0
DA:117,0
DA:118,0
DA:119,0
DA:120,0
DA:121,0
DA:123,49
DA:124,98
DA:125,49
DA:126,49
DA:127,0
DA:128,0
DA:129,0
DA:130,0
DA:131,0
DA:132,0
DA:133,0
DA:136,49
DA:137,49
DA:139,49
DA:140,49
DA:142,49
DA:145,49
DA:146,49
DA:147,49
DA:148,49
DA:149,49
DA:150,392
DA:151,343
DA:152,343
DA:154,49
DA:155,49
DA:157,392
DA:158,343
DA:159,0
DA:160,0
DA:161,0
DA:162,0
DA:163,0
DA:164,0
DA:165,0
DA:166,0
DA:167,0
DA:168,0
DA:169,0
DA:170,0
DA:172,49
DA:174,455
DA:175,455
DA:176,455
DA:177,445
DA:179,10
DA:180,455
LF:124
LH:96
end_of_record
TN:
SF:/Users/rmac/Documents/GitHub/metabuilder-small/dbal/production/src/adapters/sqlite/sqlite_connection_manager.cpp
FNL:0,15,17
FNA:0,49,_ZN4dbal8adapters6sqlite23SQLiteConnectionManagerD1Ev
FNA:0,49,_ZN4dbal8adapters6sqlite23SQLiteConnectionManagerD2Ev
FNL:1,19,33
FNA:1,49,_ZN4dbal8adapters6sqlite23SQLiteConnectionManager14openConnectionEv
FNL:2,35,59
FNA:2,49,_ZN4dbal8adapters6sqlite23SQLiteConnectionManager16configurePragmasEv
FNL:3,61,68
FNA:3,147,_ZN4dbal8adapters6sqlite23SQLiteConnectionManager5closeEv
FNL:4,70,75
FNA:4,402,_ZNK4dbal8adapters6sqlite23SQLiteConnectionManager18getLastInsertRowIdEv
FNL:5,77,82
FNA:5,6,_ZNK4dbal8adapters6sqlite23SQLiteConnectionManager10getChangesEv
FNL:6,84,103
FNA:6,196,_ZN4dbal8adapters6sqlite23SQLiteConnectionManager13executePragmaERKNSt3__112basic_stringIcNS3_11char_traitsIcEENS3_9allocatorIcEEEE
FNL:7,9,13
FNA:7,49,_ZN4dbal8adapters6sqlite23SQLiteConnectionManagerC1ERKNSt3__112basic_stringIcNS3_11char_traitsIcEENS3_9allocatorIcEEEE
FNA:7,49,_ZN4dbal8adapters6sqlite23SQLiteConnectionManagerC2ERKNSt3__112basic_stringIcNS3_11char_traitsIcEENS3_9allocatorIcEEEE
FNF:8
FNH:8
DA:9,147
DA:10,98
DA:11,49
DA:12,49
DA:13,98
DA:15,98
DA:16,49
DA:17,98
DA:19,49
DA:20,49
DA:21,49
DA:22,0
DA:23,0
DA:24,0
DA:25,0
DA:26,0
DA:27,0
DA:28,0
DA:30,0
DA:31,0
DA:32,49
DA:33,49
DA:35,49
DA:37,49
DA:38,49
DA:39,0
DA:40,0
DA:43,49
DA:44,49
DA:45,0
DA:46,0
DA:49,49
DA:50,49
DA:51,0
DA:52,0
DA:55,49
DA:56,49
DA:57,0
DA:58,0
DA:59,49
DA:61,147
DA:62,147
DA:63,147
DA:64,49
DA:65,49
DA:66,49
DA:67,49
DA:68,147
DA:70,402
DA:71,402
DA:72,0
DA:74,402
DA:75,402
DA:77,6
DA:78,6
DA:79,0
DA:81,6
DA:82,6
DA:84,196
DA:85,196
DA:86,0
DA:89,196
DA:90,196
DA:92,196
DA:93,0
DA:94,0
DA:95,0
DA:96,0
DA:97,0
DA:98,0
DA:99,0
DA:100,0
DA:102,196
DA:103,196
LF:74
LH:46
end_of_record
TN:
SF:/Users/rmac/Documents/GitHub/metabuilder-small/dbal/production/src/adapters/sqlite/sqlite_connection_manager.hpp
FNL:0,33,33
FNA:0,925,_ZNK4dbal8adapters6sqlite23SQLiteConnectionManager9getHandleEv
FNL:1,38,38
FNA:1,876,_ZNK4dbal8adapters6sqlite23SQLiteConnectionManager8getMutexEv
FNL:2,48,48
FNA:2,0,_ZNK4dbal8adapters6sqlite23SQLiteConnectionManager6isOpenEv
FNF:3
FNH:2
DA:33,925
DA:38,876
DA:48,0
LF:3
LH:2
end_of_record
TN:
SF:/Users/rmac/Documents/GitHub/metabuilder-small/dbal/production/src/adapters/sqlite/sqlite_prepared_statements.cpp
FNL:0,106,134
FNA:0,3,_ZN4dbal8adapters6sqlite24SQLitePreparedStatements13executeUpdateERKNSt3__112basic_stringIcNS3_11char_traitsIcEENS3_9allocatorIcEEEERKNS3_6vectorIS9_NS7_IS9_EEEE
FNL:1,12,15
FNA:1,0,_ZN4dbal8adapters6sqlite24SQLitePreparedStatements7prepareERKNSt3__112basic_stringIcNS3_11char_traitsIcEENS3_9allocatorIcEEEE
FNL:2,136,164
FNA:2,3,_ZN4dbal8adapters6sqlite24SQLitePreparedStatements13executeDeleteERKNSt3__112basic_stringIcNS3_11char_traitsIcEENS3_9allocatorIcEEEERKNS3_6vectorIS9_NS7_IS9_EEEE
FNL:3,166,170
FNA:3,408,_ZN4dbal8adapters6sqlite24SQLitePreparedStatements8finalizeEP12sqlite3_stmt
FNL:4,17,31
FNA:4,475,_ZN4dbal8adapters6sqlite24SQLitePreparedStatements13prepareLockedERKNSt3__112basic_stringIcNS3_11char_traitsIcEENS3_9allocatorIcEEEE
FNL:5,172,191
FNA:5,0,_ZNK4dbal8adapters6sqlite24SQLitePreparedStatements14mapSqliteErrorEiRKNSt3__112basic_stringIcNS3_11char_traitsIcEENS3_9allocatorIcEEEE
FNL:6,36,51
FNA:6,475,_ZN4dbal8adapters6sqlite24SQLitePreparedStatements14bindParametersEP12sqlite3_stmtRKNSt3__16vectorINS5_12basic_stringIcNS5_11char_traitsIcEENS5_9allocatorIcEEEENSA_ISC_EEEE
FNL:7,53,82
FNA:7,402,_ZN4dbal8adapters6sqlite24SQLitePreparedStatements13executeInsertERKNSt3__112basic_stringIcNS3_11char_traitsIcEENS3_9allocatorIcEEEERKNS3_6vectorIS9_NS7_IS9_EEEE
FNL:8,8,10
FNA:8,49,_ZN4dbal8adapters6sqlite24SQLitePreparedStatementsC1ERNS1_23SQLiteConnectionManagerE
FNA:8,49,_ZN4dbal8adapters6sqlite24SQLitePreparedStatementsC2ERNS1_23SQLiteConnectionManagerE
FNL:9,84,104
FNA:9,67,_ZN4dbal8adapters6sqlite24SQLitePreparedStatements13executeSelectERKNSt3__112basic_stringIcNS3_11char_traitsIcEENS3_9allocatorIcEEEERKNS3_6vectorIS9_NS7_IS9_EEEE
FNF:10
FNH:8
DA:8,98
DA:9,98
DA:10,98
DA:12,0
DA:13,0
DA:14,0
DA:15,0
DA:17,475
DA:18,475
DA:19,475
DA:20,0
DA:23,475
DA:24,475
DA:26,475
DA:27,0
DA:30,475
DA:31,475
DA:36,475
DA:38,3446
DA:40,2971
DA:41,49
DA:42,49
DA:43,5844
DA:44,2922
DA:46,2971
DA:47,0
DA:49,2971
DA:50,475
DA:51,475
DA:53,402
DA:55,402
DA:57,402
DA:58,402
DA:59,0
DA:62,402
DA:65,402
DA:66,402
DA:67,0
DA:68,0
DA:72,402
DA:73,402
DA:75,402
DA:76,0
DA:80,402
DA:81,402
DA:82,402
DA:84,67
DA:86,67
DA:88,67
DA:89,67
DA:90,0
DA:93,67
DA:96,67
DA:97,67
DA:98,0
DA:99,0
DA:103,67
DA:104,67
DA:106,3
DA:108,3
DA:110,3
DA:111,3
DA:112,0
DA:115,3
DA:118,3
DA:119,3
DA:120,0
DA:121,0
DA:125,3
DA:126,3
DA:128,3
DA:129,0
DA:132,3
DA:133,3
DA:134,3
DA:136,3
DA:138,3
DA:140,3
DA:141,3
DA:142,0
DA:145,3
DA:148,3
DA:149,3
DA:150,0
DA:151,0
DA:155,3
DA:156,3
DA:158,3
DA:159,0
DA:162,3
DA:163,3
DA:164,3
DA:166,408
DA:167,408
DA:168,408
DA:169,408
DA:170,408
DA:172,0
DA:173,0
DA:174,0
DA:175,0
DA:176,0
DA:177,0
DA:180,0
DA:182,0
DA:184,0
DA:187,0
DA:189,0
DA:191,0
LF:109
LH:75
end_of_record
TN:
SF:/Users/rmac/Documents/GitHub/metabuilder-small/dbal/production/src/adapters/sqlite/sqlite_query_builder.cpp
FNL:0,10,29
FNA:0,402,_ZN4dbal8adapters6sqlite18SQLiteQueryBuilder16buildInsertQueryERKNS_4core12EntitySchemaERKN8nlohmann16json_abi_v3_11_310basic_jsonINSt3__13mapENSA_6vectorENSA_12basic_stringIcNSA_11char_traitsIcEENSA_9allocatorIcEEEEbxydSG_NS8_14adl_serializerENSC_IhNSG_IhEEEEvEE
FNL:1,101,125
FNA:1,42,_ZN4dbal8adapters6sqlite18SQLiteQueryBuilder14conditionToSqlERKNS_15FilterConditionE
FNL:2,127,200
FNA:2,28,_ZN4dbal8adapters6sqlite18SQLiteQueryBuilder14buildListQueryERKNS_4core12EntitySchemaERKNS_11ListOptionsE
FNL:3,202,228
FNA:3,1,_ZN4dbal8adapters6sqlite18SQLiteQueryBuilder20buildUpdateManyQueryERKNS_4core12EntitySchemaERKN8nlohmann16json_abi_v3_11_310basic_jsonINSt3__13mapENSA_6vectorENSA_12basic_stringIcNSA_11char_traitsIcEENSA_9allocatorIcEEEEbxydSG_NS8_14adl_serializerENSC_IhNSG_IhEEEEvEESO_
FNL:4,230,240
FNA:4,2,_ZN4dbal8adapters6sqlite18SQLiteQueryBuilder20buildDeleteManyQueryERKNS_4core12EntitySchemaERKN8nlohmann16json_abi_v3_11_310basic_jsonINSt3__13mapENSA_6vectorENSA_12basic_stringIcNSA_11char_traitsIcEENSA_9allocatorIcEEEEbxydSG_NS8_14adl_serializerENSC_IhNSG_IhEEEEvEE
FNL:5,242,255
FNA:5,5,_ZN4dbal8adapters6sqlite18SQLiteQueryBuilder19buildFindFirstQueryERKNS_4core12EntitySchemaERKN8nlohmann16json_abi_v3_11_310basic_jsonINSt3__13mapENSA_6vectorENSA_12basic_stringIcNSA_11char_traitsIcEENSA_9allocatorIcEEEEbxydSG_NS8_14adl_serializerENSC_IhNSG_IhEEEEvEE
FNL:6,257,263
FNA:6,434,_ZN4dbal8adapters6sqlite18SQLiteQueryBuilder14buildFieldListERKNS_4core12EntitySchemaE
FNL:7,265,271
FNA:7,13,_ZN4dbal8adapters6sqlite18SQLiteQueryBuilder16buildWhereClauseERKN8nlohmann16json_abi_v3_11_310basic_jsonINSt3__13mapENS6_6vectorENS6_12basic_stringIcNS6_11char_traitsIcEENS6_9allocatorIcEEEEbxydSC_NS4_14adl_serializerENS8_IhNSC_IhEEEEvEE
FNL:8,273,275
FNA:8,6836,_ZN4dbal8adapters6sqlite18SQLiteQueryBuilder7quoteIdERKNSt3__112basic_stringIcNS3_11char_traitsIcEENS3_9allocatorIcEEEE
FNL:9,277,287
FNA:9,0,_ZN4dbal8adapters6sqlite18SQLiteQueryBuilder16toLowerSnakeCaseERKNSt3__112basic_stringIcNS3_11char_traitsIcEENS3_9allocatorIcEEEE
FNL:10,289,299
FNA:10,1321,_ZN4dbal8adapters6sqlite18SQLiteQueryBuilder13joinFragmentsERKNSt3__16vectorINS3_12basic_stringIcNS3_11char_traitsIcEENS3_9allocatorIcEEEENS8_ISA_EEEERKSA_
FNL:11,31,41
FNA:11,6,_ZN4dbal8adapters6sqlite18SQLiteQueryBuilder16buildSelectQueryERKNS_4core12EntitySchemaERKN8nlohmann16json_abi_v3_11_310basic_jsonINSt3__13mapENSA_6vectorENSA_12basic_stringIcNSA_11char_traitsIcEENSA_9allocatorIcEEEEbxydSG_NS8_14adl_serializerENSC_IhNSG_IhEEEEvEE
FNL:12,43,65
FNA:12,2,_ZN4dbal8adapters6sqlite18SQLiteQueryBuilder16buildUpdateQueryERKNS_4core12EntitySchemaERKNSt3__112basic_stringIcNS7_11char_traitsIcEENS7_9allocatorIcEEEERKN8nlohmann16json_abi_v3_11_310basic_jsonINS7_3mapENS7_6vectorESD_bxydSB_NSH_14adl_serializerENSK_IhNSB_IhEEEEvEE
FNL:13,67,70
FNA:13,1,_ZN4dbal8adapters6sqlite18SQLiteQueryBuilder16buildDeleteQueryERKNS_4core12EntitySchemaERKNSt3__112basic_stringIcNS7_11char_traitsIcEENS7_9allocatorIcEEEE
FNL:14,72,99
FNA:14,28,_ZN4dbal8adapters6sqlite18SQLiteQueryBuilder15buildCountQueryERKNS_4core12EntitySchemaERKNS_11ListOptionsE
FNF:15
FNH:14
DA:10,402
DA:11,402
DA:12,402
DA:13,402
DA:15,3216
DA:17,2814
DA:18,0
DA:20,2814
DA:21,2804
DA:22,2804
DA:23,2804
DA:26,804
DA:27,402
DA:28,402
DA:29,402
DA:31,6
DA:32,6
DA:33,6
DA:34,6
DA:36,6
DA:37,6
DA:38,6
DA:40,6
DA:41,6
DA:43,2
DA:46,2
DA:47,2
DA:49,16
DA:50,14
DA:51,4
DA:53,10
DA:54,2
DA:55,2
DA:58,2
DA:59,0
DA:62,2
DA:64,2
DA:65,4
DA:67,1
DA:68,1
DA:69,1
DA:70,1
DA:72,28
DA:74,28
DA:75,28
DA:77,28
DA:78,55
DA:79,27
DA:81,45
DA:82,17
DA:84,30
DA:85,2
DA:86,2
DA:87,6
DA:88,2
DA:89,2
DA:90,28
DA:91,27
DA:92,27
DA:93,28
DA:94,1
DA:95,2
DA:96,1
DA:97,1
DA:98,28
DA:99,28
DA:101,42
DA:102,42
DA:103,42
DA:104,10
DA:105,2
DA:106,2
DA:107,2
DA:108,2
DA:109,2
DA:110,6
DA:111,2
DA:112,2
DA:113,8
DA:115,2
DA:116,2
DA:117,2
DA:119,0
DA:120,0
DA:121,0
DA:122,2
DA:124,0
DA:125,42
DA:127,28
DA:129,28
DA:132,28
DA:133,28
DA:134,2
DA:135,3
DA:136,1
DA:138,4
DA:139,2
DA:140,2
DA:141,1
DA:142,1
DA:143,0
DA:144,0
DA:145,0
DA:147,2
DA:148,2
DA:149,2
DA:150,2
DA:151,26
DA:152,26
DA:153,26
DA:156,28
DA:158,55
DA:159,27
DA:162,45
DA:163,17
DA:166,30
DA:167,2
DA:168,2
DA:169,6
DA:170,4
DA:172,2
DA:173,2
DA:174,28
DA:175,27
DA:176,27
DA:179,28
DA:180,1
DA:181,2
DA:182,1
DA:184,1
DA:185,1
DA:188,28
DA:189,3
DA:190,9
DA:191,3
DA:192,3
DA:193,3
DA:194,3
DA:195,3
DA:197,28
DA:199,28
DA:200,28
DA:202,1
DA:205,1
DA:206,1
DA:209,1
DA:210,8
DA:211,7
DA:212,1
DA:213,1
DA:216,1
DA:217,0
DA:220,1
DA:223,1
DA:224,1
DA:225,1
DA:227,1
DA:228,1
DA:230,2
DA:232,2
DA:233,2
DA:235,2
DA:236,1
DA:237,1
DA:239,2
DA:240,2
DA:242,5
DA:244,5
DA:245,5
DA:246,5
DA:248,5
DA:249,5
DA:250,5
DA:252,5
DA:254,5
DA:255,5
DA:257,434
DA:258,434
DA:259,3472
DA:260,3038
DA:262,434
DA:263,434
DA:265,13
DA:266,13
DA:267,26
DA:268,13
DA:270,13
DA:271,13
DA:273,6836
DA:274,6836
DA:275,0
DA:277,0
DA:278,0
DA:279,0
DA:280,0
DA:281,0
DA:282,0
DA:283,0
DA:284,0
DA:285,0
DA:286,0
DA:287,0
DA:289,1321
DA:291,1321
DA:292,10097
DA:293,8776
DA:294,7455
DA:295,7455
DA:296,8776
DA:297,8776
DA:298,1321
DA:299,1321
LF:212
LH:190
end_of_record
TN:
SF:/Users/rmac/Documents/GitHub/metabuilder-small/dbal/production/src/adapters/sqlite/sqlite_result_parser.cpp
FNL:0,13,52
FNA:0,493,_ZNK4dbal8adapters6sqlite18SQLiteResultParser9rowToJsonERKNS_4core12EntitySchemaEP12sqlite3_stmt
FNL:1,54,75
FNA:1,3426,_ZNK4dbal8adapters6sqlite18SQLiteResultParser12columnToJsonERKNS_4core11EntityFieldEP12sqlite3_stmti
FNL:2,77,97
FNA:2,39,_ZN4dbal8adapters6sqlite18SQLiteResultParser11readAllRowsERKNS_4core12EntitySchemaEP12sqlite3_stmt
FNL:3,9,11
FNA:3,49,_ZN4dbal8adapters6sqlite18SQLiteResultParserC1ERNS1_23SQLiteConnectionManagerE
FNA:3,49,_ZN4dbal8adapters6sqlite18SQLiteResultParserC2ERNS1_23SQLiteConnectionManagerE
FNL:4,99,131
FNA:4,397,_ZN4dbal8adapters6sqlite18SQLiteResultParser18readInsertedRecordERKNS_4core12EntitySchemaEx
FNF:5
FNH:5
DA:9,98
DA:10,98
DA:11,98
DA:13,493
DA:14,493
DA:16,493
DA:17,3923
DA:18,3430
DA:19,3430
DA:20,0
DA:24,3430
DA:25,13733
DA:26,13729
DA:27,3426
DA:28,3426
DA:32,3430
DA:34,4
DA:35,4
DA:36,0
DA:37,4
DA:38,4
DA:39,4
DA:40,0
DA:41,0
DA:42,0
DA:43,0
DA:45,4
DA:48,3426
DA:49,3426
DA:51,493
DA:52,493
DA:54,3426
DA:57,3426
DA:59,3426
DA:60,72
DA:61,3354
DA:62,0
DA:63,0
DA:64,3354
DA:65,489
DA:66,489
DA:68,2865
DA:69,2865
DA:70,2865
DA:72,0
DA:75,3426
DA:77,39
DA:79,39
DA:82,135
DA:83,96
DA:86,39
DA:88,39
DA:89,0
DA:90,0
DA:91,0
DA:92,0
DA:93,0
DA:94,0
DA:96,39
DA:97,39
DA:99,397
DA:101,397
DA:103,397
DA:104,397
DA:105,794
DA:106,397
DA:109,397
DA:110,397
DA:111,397
DA:112,0
DA:113,0
DA:114,0
DA:115,0
DA:116,0
DA:117,0
DA:119,397
DA:121,397
DA:122,397
DA:123,0
DA:124,0
DA:127,397
DA:128,397
DA:130,397
DA:131,397
LF:84
LH:61
end_of_record
TN:
SF:/Users/rmac/Documents/GitHub/metabuilder-small/dbal/production/src/adapters/sqlite/sqlite_transaction_manager.cpp
FNL:0,100,106
FNA:0,0,_ZN4dbal8adapters6sqlite22SQLiteTransactionGuard6commitEv
FNL:1,12,23
FNA:1,2,_ZN4dbal8adapters6sqlite24SQLiteTransactionManager5beginEv
FNL:2,25,36
FNA:2,1,_ZN4dbal8adapters6sqlite24SQLiteTransactionManager6commitEv
FNL:3,38,49
FNA:3,1,_ZN4dbal8adapters6sqlite24SQLiteTransactionManager8rollbackEv
FNL:4,51,54
FNA:4,0,_ZN4dbal8adapters6sqlite24SQLiteTransactionManager9savepointERKNSt3__112basic_stringIcNS3_11char_traitsIcEENS3_9allocatorIcEEEE
FNL:5,56,59
FNA:5,0,_ZN4dbal8adapters6sqlite24SQLiteTransactionManager16releaseSavepointERKNSt3__112basic_stringIcNS3_11char_traitsIcEENS3_9allocatorIcEEEE
FNL:6,61,64
FNA:6,0,_ZN4dbal8adapters6sqlite24SQLiteTransactionManager19rollbackToSavepointERKNSt3__112basic_stringIcNS3_11char_traitsIcEENS3_9allocatorIcEEEE
FNL:7,66,84
FNA:7,4,_ZN4dbal8adapters6sqlite24SQLiteTransactionManager27executeTransactionStatementERKNSt3__112basic_stringIcNS3_11char_traitsIcEENS3_9allocatorIcEEEE
FNL:8,8,10
FNA:8,49,_ZN4dbal8adapters6sqlite24SQLiteTransactionManagerC1ERNS1_23SQLiteConnectionManagerE
FNA:8,49,_ZN4dbal8adapters6sqlite24SQLiteTransactionManagerC2ERNS1_23SQLiteConnectionManagerE
FNL:9,88,91
FNA:9,0,_ZN4dbal8adapters6sqlite22SQLiteTransactionGuardC1ERNS1_24SQLiteTransactionManagerE
FNA:9,0,_ZN4dbal8adapters6sqlite22SQLiteTransactionGuardC2ERNS1_24SQLiteTransactionManagerE
FNL:10,93,98
FNA:10,0,_ZN4dbal8adapters6sqlite22SQLiteTransactionGuardD1Ev
FNA:10,0,_ZN4dbal8adapters6sqlite22SQLiteTransactionGuardD2Ev
FNF:11
FNH:5
DA:8,98
DA:9,98
DA:10,49
DA:12,2
DA:13,2
DA:14,0
DA:17,2
DA:18,2
DA:19,2
DA:20,2
DA:21,2
DA:22,2
DA:23,4
DA:25,1
DA:26,1
DA:27,0
DA:30,1
DA:31,1
DA:32,1
DA:33,1
DA:34,1
DA:35,1
DA:36,2
DA:38,1
DA:39,1
DA:40,0
DA:43,1
DA:44,1
DA:45,1
DA:46,1
DA:47,1
DA:48,1
DA:49,2
DA:51,0
DA:52,0
DA:53,0
DA:54,0
DA:56,0
DA:57,0
DA:58,0
DA:59,0
DA:61,0
DA:62,0
DA:63,0
DA:64,0
DA:66,4
DA:67,4
DA:69,4
DA:70,4
DA:73,4
DA:74,0
DA:75,0
DA:76,0
DA:77,0
DA:78,0
DA:79,0
DA:80,0
DA:81,0
DA:83,4
DA:84,4
DA:88,0
DA:89,0
DA:90,0
DA:91,0
DA:93,0
DA:94,0
DA:95,0
DA:96,0
DA:97,0
DA:98,0
DA:100,0
DA:101,0
DA:102,0
DA:103,0
DA:104,0
DA:105,0
DA:106,0
LF:77
LH:37
end_of_record
TN:
SF:/Users/rmac/Documents/GitHub/metabuilder-small/dbal/production/src/adapters/sqlite/sqlite_transaction_manager.hpp
FNL:0,58,58
FNA:0,0,_ZNK4dbal8adapters6sqlite24SQLiteTransactionManager15isInTransactionEv
FNF:1
FNH:0
DA:58,0
LF:1
LH:0
end_of_record
TN:
SF:/Users/rmac/Documents/GitHub/metabuilder-small/dbal/production/src/adapters/sqlite/sqlite_type_converter.cpp
FNL:0,105,113
FNA:0,28,_ZN4dbal8adapters6sqlite19SQLiteTypeConverter16buildCountParamsERKNS_11ListOptionsE
FNL:1,11,23
FNA:1,2814,_ZN4dbal8adapters6sqlite19SQLiteTypeConverter17jsonValueToStringERKN8nlohmann16json_abi_v3_11_310basic_jsonINSt3__13mapENS6_6vectorENS6_12basic_stringIcNS6_11char_traitsIcEENS6_9allocatorIcEEEEbxydSC_NS4_14adl_serializerENS8_IhNSC_IhEEEEvEE
FNL:2,115,142
FNA:2,28,_ZN4dbal8adapters6sqlite19SQLiteTypeConverter15buildListParamsERKNS_11ListOptionsE
FNL:3,144,164
FNA:3,42,_ZN4dbal8adapters6sqlite19SQLiteTypeConverter21appendConditionValuesERKNS_15FilterConditionERNSt3__16vectorINS6_12basic_stringIcNS6_11char_traitsIcEENS6_9allocatorIcEEEENSB_ISD_EEEE
FNL:4,25,45
FNA:4,402,_ZN4dbal8adapters6sqlite19SQLiteTypeConverter12jsonToValuesERKNS_4core12EntitySchemaERKN8nlohmann16json_abi_v3_11_310basic_jsonINSt3__13mapENSA_6vectorENSA_12basic_stringIcNSA_11char_traitsIcEENSA_9allocatorIcEEEEbxydSG_NS8_14adl_serializerENSC_IhNSG_IhEEEEvEERKSI_
FNL:5,47,67
FNA:5,2,_ZN4dbal8adapters6sqlite19SQLiteTypeConverter17buildUpdateParamsERKNS_4core12EntitySchemaERKN8nlohmann16json_abi_v3_11_310basic_jsonINSt3__13mapENSA_6vectorENSA_12basic_stringIcNSA_11char_traitsIcEENSA_9allocatorIcEEEEbxydSG_NS8_14adl_serializerENSC_IhNSG_IhEEEEvEERKSI_
FNL:6,69,87
FNA:6,1,_ZN4dbal8adapters6sqlite19SQLiteTypeConverter21buildUpdateManyParamsERKNS_4core12EntitySchemaERKN8nlohmann16json_abi_v3_11_310basic_jsonINSt3__13mapENSA_6vectorENSA_12basic_stringIcNSA_11char_traitsIcEENSA_9allocatorIcEEEEbxydSG_NS8_14adl_serializerENSC_IhNSG_IhEEEEvEESO_
FNL:7,89,95
FNA:7,2,_ZN4dbal8adapters6sqlite19SQLiteTypeConverter21buildDeleteManyParamsERKN8nlohmann16json_abi_v3_11_310basic_jsonINSt3__13mapENS6_6vectorENS6_12basic_stringIcNS6_11char_traitsIcEENS6_9allocatorIcEEEEbxydSC_NS4_14adl_serializerENS8_IhNSC_IhEEEEvEE
FNL:8,97,103
FNA:8,5,_ZN4dbal8adapters6sqlite19SQLiteTypeConverter15buildFindParamsERKN8nlohmann16json_abi_v3_11_310basic_jsonINSt3__13mapENS6_6vectorENS6_12basic_stringIcNS6_11char_traitsIcEENS6_9allocatorIcEEEEbxydSC_NS4_14adl_serializerENS8_IhNSC_IhEEEEvEE
FNF:9
FNH:9
DA:11,2814
DA:12,2814
DA:13,49
DA:14,2765
DA:15,0
DA:16,2765
DA:17,804
DA:18,1961
DA:19,1961
DA:21,0
DA:23,2814
DA:25,402
DA:28,402
DA:30,402
DA:31,0
DA:32,0
DA:34,3216
DA:36,2814
DA:37,0
DA:39,2814
DA:40,2804
DA:41,2804
DA:44,402
DA:45,402
DA:47,2
DA:50,2
DA:53,16
DA:55,14
DA:56,4
DA:58,10
DA:59,2
DA:60,2
DA:64,2
DA:66,2
DA:67,2
DA:69,1
DA:72,1
DA:75,8
DA:76,7
DA:77,1
DA:78,1
DA:82,2
DA:83,1
DA:86,1
DA:87,1
DA:89,2
DA:90,2
DA:91,3
DA:92,1
DA:94,2
DA:95,2
DA:97,5
DA:98,5
DA:99,10
DA:100,5
DA:102,5
DA:103,5
DA:105,28
DA:106,28
DA:107,55
DA:108,45
DA:109,30
DA:110,6
DA:112,28
DA:113,28
DA:115,28
DA:116,28
DA:119,55
DA:120,27
DA:124,45
DA:125,17
DA:129,30
DA:130,6
DA:131,4
DA:136,28
DA:137,28
DA:138,28
DA:139,28
DA:141,28
DA:142,28
DA:144,42
DA:146,42
DA:149,10
DA:152,8
DA:153,2
DA:155,2
DA:156,2
DA:157,2
DA:158,2
DA:159,2
DA:161,28
DA:162,28
DA:164,42
LF:93
LH:88
end_of_record
TN:
SF:/Users/rmac/Documents/GitHub/metabuilder-small/dbal/production/src/config/env_config.hpp
FNL:0,55,56
FNA:0,163,_ZN4dbal6config9EnvConfig12getSchemaDirEv
FNL:1,59,60
FNA:1,106,_ZN4dbal6config9EnvConfig14getTemplateDirEv
FNF:2
FNH:2
DA:55,163
DA:56,163
DA:59,106
DA:60,106
LF:4
LH:4
end_of_record
TN:
SF:/Users/rmac/Documents/GitHub/metabuilder-small/dbal/production/src/config/env_parser.hpp
FNL:0,19,27
FNA:0,269,_ZN4dbal6config9EnvParser11getRequiredEPKc
FNF:1
FNH:1
DA:19,269
DA:20,269
DA:21,269
DA:22,0
DA:23,0
DA:25,269
DA:26,269
DA:27,0
LF:8
LH:5
end_of_record
TN:
SF:/Users/rmac/Documents/GitHub/metabuilder-small/dbal/production/src/core/client_config.cpp
FNL:0,10,24
FNA:0,0,_ZN4dbal4core19ClientConfigManagerC1ERKNSt3__112basic_stringIcNS2_11char_traitsIcEENS2_9allocatorIcEEEESA_SA_SA_b
FNA:0,0,_ZN4dbal4core19ClientConfigManagerC2ERKNSt3__112basic_stringIcNS2_11char_traitsIcEENS2_9allocatorIcEEEESA_SA_SA_b
FNL:1,26,28
FNA:1,0,_ZN4dbal4core19ClientConfigManager12setParameterERKNSt3__112basic_stringIcNS2_11char_traitsIcEENS2_9allocatorIcEEEESA_
FNL:2,30,36
FNA:2,0,_ZNK4dbal4core19ClientConfigManager12getParameterERKNSt3__112basic_stringIcNS2_11char_traitsIcEENS2_9allocatorIcEEEE
FNL:3,38,39
FNA:3,0,_ZNK4dbal4core19ClientConfigManager12hasParameterERKNSt3__112basic_stringIcNS2_11char_traitsIcEENS2_9allocatorIcEEEE
FNL:4,42,46
FNA:4,0,_ZNK4dbal4core19ClientConfigManager8validateEv
FNL:5,48,54
FNA:5,0,_ZNK4dbal4core19ClientConfigManager12validateModeEv
FNL:6,55,64
FNA:6,0,_ZZNK4dbal4core19ClientConfigManager12validateModeEvENK3$_0clEh
FNL:7,66,72
FNA:7,0,_ZNK4dbal4core19ClientConfigManager15validateAdapterEv
FNL:8,74,96
FNA:8,0,_ZNK4dbal4core19ClientConfigManager19validateDatabaseUrlEv
FNF:9
FNH:0
DA:10,0
DA:17,0
DA:18,0
DA:19,0
DA:20,0
DA:21,0
DA:22,0
DA:23,0
DA:24,0
DA:26,0
DA:27,0
DA:28,0
DA:30,0
DA:31,0
DA:32,0
DA:33,0
DA:35,0
DA:36,0
DA:38,0
DA:39,0
DA:42,0
DA:43,0
DA:44,0
DA:45,0
DA:46,0
DA:48,0
DA:49,0
DA:50,0
DA:53,0
DA:54,0
DA:55,0
DA:57,0
DA:58,0
DA:59,0
DA:60,0
DA:61,0
DA:64,0
DA:66,0
DA:67,0
DA:68,0
DA:72,0
DA:74,0
DA:75,0
DA:76,0
DA:80,0
DA:81,0
DA:82,0
DA:86,0
DA:87,0
DA:89,0
DA:90,0
DA:91,0
DA:92,0
DA:95,0
DA:96,0
LF:55
LH:0
end_of_record
TN:
SF:/Users/rmac/Documents/GitHub/metabuilder-small/dbal/production/src/core/compensating_transaction.cpp
FNL:0,13,18
FNA:0,0,_ZN4dbal4core23CompensatingTransactionD1Ev
FNA:0,0,_ZN4dbal4core23CompensatingTransactionD2Ev
FNL:1,20,24
FNA:1,0,_ZN4dbal4core23CompensatingTransaction12recordCreateERKNSt3__112basic_stringIcNS2_11char_traitsIcEENS2_9allocatorIcEEEESA_
FNL:2,26,30
FNA:2,0,_ZN4dbal4core23CompensatingTransaction12recordUpdateERKNSt3__112basic_stringIcNS2_11char_traitsIcEENS2_9allocatorIcEEEESA_RKN8nlohmann16json_abi_v3_11_310basic_jsonINS2_3mapENS2_6vectorES8_bxydS6_NSC_14adl_serializerENSF_IhNS6_IhEEEEvEE
FNL:3,32,37
FNA:3,0,_ZN4dbal4core23CompensatingTransaction12recordDeleteERKNSt3__112basic_stringIcNS2_11char_traitsIcEENS2_9allocatorIcEEEERKN8nlohmann16json_abi_v3_11_310basic_jsonINS2_3mapENS2_6vectorES8_bxydS6_NSC_14adl_serializerENSF_IhNS6_IhEEEEvEE
FNL:4,39,94
FNA:4,0,_ZN4dbal4core23CompensatingTransaction8rollbackEv
FNL:5,8,11
FNA:5,0,_ZN4dbal4core23CompensatingTransactionC1ERNS_8adapters7AdapterE
FNA:5,0,_ZN4dbal4core23CompensatingTransactionC2ERNS_8adapters7AdapterE
FNL:6,96,101
FNA:6,0,_ZN4dbal4core23CompensatingTransaction6commitEv
FNF:7
FNH:0
DA:8,0
DA:9,0
DA:10,0
DA:11,0
DA:13,0
DA:14,0
DA:15,0
DA:16,0
DA:17,0
DA:18,0
DA:20,0
DA:21,0
DA:22,0
DA:23,0
DA:24,0
DA:26,0
DA:27,0
DA:28,0
DA:29,0
DA:30,0
DA:32,0
DA:33,0
DA:34,0
DA:35,0
DA:36,0
DA:37,0
DA:39,0
DA:40,0
DA:41,0
DA:44,0
DA:46,0
DA:49,0
DA:50,0
DA:51,0
DA:54,0
DA:55,0
DA:56,0
DA:57,0
DA:58,0
DA:59,0
DA:61,0
DA:64,0
DA:65,0
DA:66,0
DA:67,0
DA:68,0
DA:69,0
DA:71,0
DA:74,0
DA:75,0
DA:76,0
DA:77,0
DA:78,0
DA:79,0
DA:81,0
DA:83,0
DA:85,0
DA:86,0
DA:88,0
DA:89,0
DA:92,0
DA:93,0
DA:94,0
DA:96,0
DA:97,0
DA:98,0
DA:99,0
DA:100,0
DA:101,0
LF:69
LH:0
end_of_record
TN:
SF:/Users/rmac/Documents/GitHub/metabuilder-small/dbal/production/src/core/connection_validator.cpp
FNL:0,107,110
FNA:0,0,_ZZN4dbal4core19ConnectionValidator15extractProtocolERKNSt3__112basic_stringIcNS2_11char_traitsIcEENS2_9allocatorIcEEEEENK3$_0clEh
FNL:1,112,125
FNA:1,0,_ZN4dbal4core19ConnectionValidator11isValidPathERKNSt3__112basic_stringIcNS2_11char_traitsIcEENS2_9allocatorIcEEEE
FNL:2,127,137
FNA:2,0,_ZN4dbal4core19ConnectionValidator15isValidHostPortERKNSt3__112basic_stringIcNS2_11char_traitsIcEENS2_9allocatorIcEEEEi
FNL:3,32,57
FNA:3,0,_ZN4dbal4core19ConnectionValidator14validateSQLiteERKNSt3__112basic_stringIcNS2_11char_traitsIcEENS2_9allocatorIcEEEE
FNL:4,59,78
FNA:4,0,_ZN4dbal4core19ConnectionValidator18validatePostgreSQLERKNSt3__112basic_stringIcNS2_11char_traitsIcEENS2_9allocatorIcEEEE
FNL:5,80,93
FNA:5,0,_ZN4dbal4core19ConnectionValidator13validateMySQLERKNSt3__112basic_stringIcNS2_11char_traitsIcEENS2_9allocatorIcEEEE
FNL:6,9,30
FNA:6,0,_ZN4dbal4core19ConnectionValidator8validateERKNSt3__112basic_stringIcNS2_11char_traitsIcEENS2_9allocatorIcEEEE
FNL:7,95,96
FNA:7,0,_ZN4dbal4core19ConnectionValidator14hasValidFormatERKNSt3__112basic_stringIcNS2_11char_traitsIcEENS2_9allocatorIcEEEE
FNL:8,99,106
FNA:8,0,_ZN4dbal4core19ConnectionValidator15extractProtocolERKNSt3__112basic_stringIcNS2_11char_traitsIcEENS2_9allocatorIcEEEE
FNF:9
FNH:0
DA:9,0
DA:10,0
DA:11,0
DA:14,0
DA:15,0
DA:18,0
DA:20,0
DA:21,0
DA:22,0
DA:23,0
DA:24,0
DA:25,0
DA:29,0
DA:30,0
DA:32,0
DA:34,0
DA:35,0
DA:36,0
DA:39,0
DA:42,0
DA:43,0
DA:47,0
DA:48,0
DA:52,0
DA:53,0
DA:56,0
DA:57,0
DA:59,0
DA:63,0
DA:67,0
DA:68,0
DA:72,0
DA:73,0
DA:74,0
DA:75,0
DA:77,0
DA:78,0
DA:80,0
DA:84,0
DA:88,0
DA:89,0
DA:92,0
DA:93,0
DA:95,0
DA:96,0
DA:99,0
DA:100,0
DA:101,0
DA:102,0
DA:105,0
DA:106,0
DA:107,0
DA:109,0
DA:110,0
DA:112,0
DA:114,0
DA:115,0
DA:119,0
DA:120,0
DA:124,0
DA:125,0
DA:127,0
DA:128,0
DA:129,0
DA:132,0
DA:133,0
DA:136,0
DA:137,0
LF:68
LH:0
end_of_record
TN:
SF:/Users/rmac/Documents/GitHub/metabuilder-small/dbal/production/src/core/entity_loader.cpp
FNL:0,0,15
FNA:0,1,__cxx_global_var_init
FNL:1,104,138
FNA:1,0,_ZN4dbal4core18EntitySchemaLoader9parseJsonERKN8nlohmann16json_abi_v3_11_310basic_jsonINSt3__13mapENS5_6vectorENS5_12basic_stringIcNS5_11char_traitsIcEENS5_9allocatorIcEEEEbxydSB_NS3_14adl_serializerENS7_IhNSB_IhEEEEvEE
FNL:2,140,142
FNA:2,0,_ZN4dbal4core18EntitySchemaLoader10parseFieldERKNSt3__112basic_stringIcNS2_11char_traitsIcEENS2_9allocatorIcEEEERKN8nlohmann16json_abi_v3_11_310basic_jsonINS2_3mapENS2_6vectorES8_bxydS6_NSC_14adl_serializerENSF_IhNS6_IhEEEEvEE
FNL:3,145,147
FNA:3,0,_ZN4dbal4core18EntitySchemaLoader10parseIndexERKN8nlohmann16json_abi_v3_11_310basic_jsonINSt3__13mapENS5_6vectorENS5_12basic_stringIcNS5_11char_traitsIcEENS5_9allocatorIcEEEEbxydSB_NS3_14adl_serializerENS7_IhNSB_IhEEEEvEE
FNL:4,150,152
FNA:4,0,_ZN4dbal4core18EntitySchemaLoader8parseACLERKN8nlohmann16json_abi_v3_11_310basic_jsonINSt3__13mapENS5_6vectorENS5_12basic_stringIcNS5_11char_traitsIcEENS5_9allocatorIcEEEEbxydSB_NS3_14adl_serializerENS7_IhNSB_IhEEEEvEE
FNL:5,17,29
FNA:5,0,_ZN4dbal4core18EntitySchemaLoader20getDefaultSchemaPathEv
FNL:6,31,72
FNA:6,0,_ZN4dbal4core18EntitySchemaLoader11loadSchemasERKNSt3__112basic_stringIcNS2_11char_traitsIcEENS2_9allocatorIcEEEE
FNL:7,74,97
FNA:7,0,_ZN4dbal4core18EntitySchemaLoader10loadSchemaERKNSt3__112basic_stringIcNS2_11char_traitsIcEENS2_9allocatorIcEEEE
FNL:8,99,101
FNA:8,0,_ZN4dbal4core18EntitySchemaLoader13findJsonFilesERKNSt3__112basic_stringIcNS2_11char_traitsIcEENS2_9allocatorIcEEEE
FNF:9
FNH:1
DA:15,1
DA:17,0
DA:18,0
DA:19,0
DA:20,0
DA:21,0
DA:22,0
DA:24,0
DA:25,0
DA:27,0
DA:28,0
DA:29,0
DA:31,0
DA:32,0
DA:33,0
DA:34,0
DA:35,0
DA:39,0
DA:40,0
DA:42,0
DA:45,0
DA:47,0
DA:48,0
DA:49,0
DA:50,0
DA:51,0
DA:54,0
DA:55,0
DA:56,0
DA:57,0
DA:59,0
DA:61,0
DA:62,0
DA:63,0
DA:64,0
DA:65,0
DA:66,0
DA:67,0
DA:70,0
DA:71,0
DA:72,0
DA:74,0
DA:75,0
DA:76,0
DA:80,0
DA:82,0
DA:83,0
DA:86,0
DA:87,0
DA:88,0
DA:89,0
DA:90,0
DA:91,0
DA:92,0
DA:93,0
DA:94,0
DA:96,0
DA:97,0
DA:99,0
DA:101,0
DA:104,0
DA:105,0
DA:107,0
DA:108,0
DA:109,0
DA:110,0
DA:112,0
DA:113,0
DA:114,0
DA:117,0
DA:118,0
DA:119,0
DA:121,0
DA:124,0
DA:125,0
DA:126,0
DA:127,0
DA:129,0
DA:130,0
DA:132,0
DA:133,0
DA:134,0
DA:135,0
DA:137,0
DA:138,0
DA:140,0
DA:142,0
DA:145,0
DA:147,0
DA:150,0
DA:152,0
LF:91
LH:1
end_of_record
TN:
SF:/Users/rmac/Documents/GitHub/metabuilder-small/dbal/production/src/core/error_formatter.cpp
FNL:0,13,42
FNA:0,0,_ZN4dbal14ErrorFormatter16getErrorTypeNameENS_9ErrorCodeE
FNL:1,44,57
FNA:1,0,_ZN4dbal14ErrorFormatter6toJsonERKNS_5ErrorEb
FNL:2,5,6
FNA:2,0,_ZN4dbal14ErrorFormatter12toHttpStatusERKNS_5ErrorE
FNL:3,59,63
FNA:3,0,_ZN4dbal14ErrorFormatter12toJsonStringERKNS_5ErrorEbb
FNL:4,9,10
FNA:4,0,_ZN4dbal14ErrorFormatter12toHttpStatusENS_9ErrorCodeE
FNF:5
FNH:0
DA:5,0
DA:6,0
DA:9,0
DA:10,0
DA:13,0
DA:14,0
DA:16,0
DA:18,0
DA:20,0
DA:22,0
DA:24,0
DA:26,0
DA:28,0
DA:30,0
DA:32,0
DA:34,0
DA:36,0
DA:38,0
DA:40,0
DA:42,0
DA:44,0
DA:45,0
DA:46,0
DA:48,0
DA:49,0
DA:51,0
DA:52,0
DA:53,0
DA:55,0
DA:56,0
DA:57,0
DA:59,0
DA:61,0
DA:62,0
DA:63,0
LF:35
LH:0
end_of_record
TN:
SF:/Users/rmac/Documents/GitHub/metabuilder-small/dbal/production/src/core/error_logger.cpp
FNL:0,24,31
FNA:0,0,_ZN4dbal11ErrorLogger3logERKNS_5ErrorE
FNL:1,33,44
FNA:1,0,_ZN4dbal11ErrorLogger12logExceptionERKSt9exceptionRKNSt3__112basic_stringIcNS4_11char_traitsIcEENS4_9allocatorIcEEEERKNS4_3mapISA_SA_NS4_4lessISA_EENS8_INS4_4pairISB_SA_EEEEEE
FNL:2,46,61
FNA:2,0,_ZN4dbal11ErrorLogger13formatContextERKNSt3__13mapINS1_12basic_stringIcNS1_11char_traitsIcEENS1_9allocatorIcEEEES8_NS1_4lessIS8_EENS6_INS1_4pairIKS8_S8_EEEEEE
FNL:3,63,88
FNA:3,0,_ZN4dbal11ErrorLogger11getLogLevelENS_9ErrorCodeE
FNL:4,7,22
FNA:4,0,_ZN4dbal11ErrorLogger3logERKNS_5ErrorERKNSt3__112basic_stringIcNS4_11char_traitsIcEENS4_9allocatorIcEEEERKNS4_3mapISA_SA_NS4_4lessISA_EENS8_INS4_4pairISB_SA_EEEEEE
FNF:5
FNH:0
DA:7,0
DA:9,0
DA:10,0
DA:11,0
DA:13,0
DA:14,0
DA:15,0
DA:16,0
DA:17,0
DA:18,0
DA:19,0
DA:20,0
DA:22,0
DA:24,0
DA:25,0
DA:26,0
DA:28,0
DA:29,0
DA:30,0
DA:31,0
DA:33,0
DA:36,0
DA:38,0
DA:39,0
DA:40,0
DA:41,0
DA:42,0
DA:44,0
DA:46,0
DA:47,0
DA:48,0
DA:51,0
DA:52,0
DA:53,0
DA:54,0
DA:55,0
DA:56,0
DA:57,0
DA:58,0
DA:60,0
DA:61,0
DA:63,0
DA:64,0
DA:68,0
DA:72,0
DA:79,0
DA:83,0
DA:86,0
DA:88,0
LF:49
LH:0
end_of_record
TN:
SF:/Users/rmac/Documents/GitHub/metabuilder-small/dbal/production/src/core/error_translator.cpp
FNL:0,119,147
FNA:0,0,_ZN4dbal15ErrorTranslator11fromMongoDBEiRKNSt3__112basic_stringIcNS1_11char_traitsIcEENS1_9allocatorIcEEEES9_
FNL:1,14,47
FNA:1,0,_ZN4dbal15ErrorTranslator10fromSQLiteEiRKNSt3__112basic_stringIcNS1_11char_traitsIcEENS1_9allocatorIcEEEES9_
FNL:2,149,153
FNA:2,0,_ZN4dbal15ErrorTranslator16fromRuntimeErrorERKSt13runtime_errorRKNSt3__112basic_stringIcNS4_11char_traitsIcEENS4_9allocatorIcEEEE
FNL:3,155,182
FNA:3,0,_ZN4dbal15ErrorTranslator14fromHttpStatusEiRKNSt3__112basic_stringIcNS1_11char_traitsIcEENS1_9allocatorIcEEEE
FNL:4,49,85
FNA:4,0,_ZN4dbal15ErrorTranslator12fromPostgresERKNSt3__112basic_stringIcNS1_11char_traitsIcEENS1_9allocatorIcEEEES9_S9_
FNL:5,6,12
FNA:5,0,_ZN4dbal15ErrorTranslator13appendContextERKNSt3__112basic_stringIcNS1_11char_traitsIcEENS1_9allocatorIcEEEES9_
FNL:6,87,117
FNA:6,0,_ZN4dbal15ErrorTranslator9fromMySQLEiRKNSt3__112basic_stringIcNS1_11char_traitsIcEENS1_9allocatorIcEEEES9_
FNF:7
FNH:0
DA:6,0
DA:8,0
DA:9,0
DA:11,0
DA:12,0
DA:14,0
DA:16,0
DA:18,0
DA:22,0
DA:25,0
DA:29,0
DA:32,0
DA:35,0
DA:38,0
DA:42,0
DA:45,0
DA:47,0
DA:49,0
DA:52,0
DA:55,0
DA:57,0
DA:58,0
DA:60,0
DA:61,0
DA:63,0
DA:66,0
DA:68,0
DA:69,0
DA:71,0
DA:74,0
DA:76,0
DA:79,0
DA:81,0
DA:84,0
DA:85,0
DA:87,0
DA:89,0
DA:91,0
DA:94,0
DA:98,0
DA:102,0
DA:106,0
DA:112,0
DA:115,0
DA:117,0
DA:119,0
DA:121,0
DA:123,0
DA:126,0
DA:129,0
DA:132,0
DA:135,0
DA:138,0
DA:142,0
DA:145,0
DA:147,0
DA:149,0
DA:151,0
DA:152,0
DA:153,0
DA:155,0
DA:156,0
DA:158,0
DA:160,0
DA:162,0
DA:164,0
DA:166,0
DA:168,0
DA:170,0
DA:172,0
DA:174,0
DA:176,0
DA:178,0
DA:180,0
DA:182,0
LF:75
LH:0
end_of_record
TN:
SF:/Users/rmac/Documents/GitHub/metabuilder-small/dbal/production/src/core/loaders/field_parser.cpp
FNL:0,21,23
FNA:0,0,_ZN4dbal4core7loaders11FieldParser9parseTypeERKN8nlohmann16json_abi_v3_11_310basic_jsonINSt3__13mapENS6_6vectorENS6_12basic_stringIcNS6_11char_traitsIcEENS6_9allocatorIcEEEEbxydSC_NS4_14adl_serializerENS8_IhNSC_IhEEEEvEE
FNL:1,25,32
FNA:1,0,_ZN4dbal4core7loaders11FieldParser10parseFlagsERKN8nlohmann16json_abi_v3_11_310basic_jsonINSt3__13mapENS6_6vectorENS6_12basic_stringIcNS6_11char_traitsIcEENS6_9allocatorIcEEEEbxydSC_NS4_14adl_serializerENS8_IhNSC_IhEEEEvEERNS0_11EntityFieldE
FNL:2,34,44
FNA:2,0,_ZN4dbal4core7loaders11FieldParser23parseOptionalPropertiesERKN8nlohmann16json_abi_v3_11_310basic_jsonINSt3__13mapENS6_6vectorENS6_12basic_stringIcNS6_11char_traitsIcEENS6_9allocatorIcEEEEbxydSC_NS4_14adl_serializerENS8_IhNSC_IhEEEEvEERNS0_11EntityFieldE
FNL:3,46,59
FNA:3,0,_ZN4dbal4core7loaders11FieldParser15parseValidationERKN8nlohmann16json_abi_v3_11_310basic_jsonINSt3__13mapENS6_6vectorENS6_12basic_stringIcNS6_11char_traitsIcEENS6_9allocatorIcEEEEbxydSC_NS4_14adl_serializerENS8_IhNSC_IhEEEEvEERNS0_11EntityFieldE
FNL:4,61,67
FNA:4,0,_ZN4dbal4core7loaders11FieldParser15parseEnumValuesERKN8nlohmann16json_abi_v3_11_310basic_jsonINSt3__13mapENS6_6vectorENS6_12basic_stringIcNS6_11char_traitsIcEENS6_9allocatorIcEEEEbxydSC_NS4_14adl_serializerENS8_IhNSC_IhEEEEvEE
FNL:5,8,19
FNA:5,0,_ZN4dbal4core7loaders11FieldParser10parseFieldERKNSt3__112basic_stringIcNS3_11char_traitsIcEENS3_9allocatorIcEEEERKN8nlohmann16json_abi_v3_11_310basic_jsonINS3_3mapENS3_6vectorES9_bxydS7_NSD_14adl_serializerENSG_IhNS7_IhEEEEvEE
FNF:6
FNH:0
DA:8,0
DA:9,0
DA:10,0
DA:11,0
DA:12,0
DA:13,0
DA:14,0
DA:15,0
DA:16,0
DA:17,0
DA:18,0
DA:19,0
DA:21,0
DA:22,0
DA:23,0
DA:25,0
DA:26,0
DA:27,0
DA:28,0
DA:29,0
DA:30,0
DA:31,0
DA:32,0
DA:34,0
DA:35,0
DA:36,0
DA:37,0
DA:38,0
DA:39,0
DA:40,0
DA:41,0
DA:42,0
DA:43,0
DA:44,0
DA:46,0
DA:47,0
DA:48,0
DA:49,0
DA:50,0
DA:52,0
DA:53,0
DA:54,0
DA:55,0
DA:57,0
DA:58,0
DA:59,0
DA:61,0
DA:62,0
DA:63,0
DA:64,0
DA:66,0
DA:67,0
LF:52
LH:0
end_of_record
TN:
SF:/Users/rmac/Documents/GitHub/metabuilder-small/dbal/production/src/core/loaders/json_parser.cpp
FNL:0,12,22
FNA:0,0,_ZN4dbal4core7loaders10JsonParser8loadFileERKNSt3__112basic_stringIcNS3_11char_traitsIcEENS3_9allocatorIcEEEE
FNL:1,24,41
FNA:1,0,_ZN4dbal4core7loaders10JsonParser13findJsonFilesERKNSt3__112basic_stringIcNS3_11char_traitsIcEENS3_9allocatorIcEEEE
FNL:2,43,45
FNA:2,0,_ZN4dbal4core7loaders10JsonParser10fileExistsERKNSt3__112basic_stringIcNS3_11char_traitsIcEENS3_9allocatorIcEEEE
FNF:3
FNH:0
DA:12,0
DA:13,0
DA:14,0
DA:17,0
DA:18,0
DA:19,0
DA:20,0
DA:21,0
DA:22,0
DA:24,0
DA:25,0
DA:26,0
DA:29,0
DA:30,0
DA:31,0
DA:32,0
DA:34,0
DA:35,0
DA:37,0
DA:38,0
DA:39,0
DA:40,0
DA:41,0
DA:43,0
DA:44,0
DA:45,0
LF:26
LH:0
end_of_record
TN:
SF:/Users/rmac/Documents/GitHub/metabuilder-small/dbal/production/src/core/loaders/relation_parser.cpp
FNL:0,17,24
FNA:0,0,_ZN4dbal4core7loaders14RelationParser8parseACLERKN8nlohmann16json_abi_v3_11_310basic_jsonINSt3__13mapENS6_6vectorENS6_12basic_stringIcNS6_11char_traitsIcEENS6_9allocatorIcEEEEbxydSC_NS4_14adl_serializerENS8_IhNSC_IhEEEEvEE
FNL:1,26,33
FNA:1,0,_ZN4dbal4core7loaders14RelationParser16parseIndexFieldsERKN8nlohmann16json_abi_v3_11_310basic_jsonINSt3__13mapENS6_6vectorENS6_12basic_stringIcNS6_11char_traitsIcEENS6_9allocatorIcEEEEbxydSC_NS4_14adl_serializerENS8_IhNSC_IhEEEEvEE
FNL:2,35,40
FNA:2,0,_ZN4dbal4core7loaders14RelationParser17parseACLOperationERKN8nlohmann16json_abi_v3_11_310basic_jsonINSt3__13mapENS6_6vectorENS6_12basic_stringIcNS6_11char_traitsIcEENS6_9allocatorIcEEEEbxydSC_NS4_14adl_serializerENS8_IhNSC_IhEEEEvEE
FNL:3,8,15
FNA:3,0,_ZN4dbal4core7loaders14RelationParser10parseIndexERKN8nlohmann16json_abi_v3_11_310basic_jsonINSt3__13mapENS6_6vectorENS6_12basic_stringIcNS6_11char_traitsIcEENS6_9allocatorIcEEEEbxydSC_NS4_14adl_serializerENS8_IhNSC_IhEEEEvEE
FNF:4
FNH:0
DA:8,0
DA:9,0
DA:10,0
DA:11,0
DA:12,0
DA:13,0
DA:14,0
DA:15,0
DA:17,0
DA:18,0
DA:19,0
DA:20,0
DA:21,0
DA:22,0
DA:23,0
DA:24,0
DA:26,0
DA:27,0
DA:28,0
DA:29,0
DA:30,0
DA:31,0
DA:32,0
DA:33,0
DA:35,0
DA:36,0
DA:37,0
DA:38,0
DA:39,0
DA:40,0
LF:30
LH:0
end_of_record
TN:
SF:/Users/rmac/Documents/GitHub/metabuilder-small/dbal/production/src/core/loaders/schema_cache.cpp
FNL:0,20,23
FNA:0,0,_ZN4dbal4core7loaders11SchemaCache3putERKNSt3__112basic_stringIcNS3_11char_traitsIcEENS3_9allocatorIcEEEERKNS0_12EntitySchemaE
FNL:1,25,28
FNA:1,0,_ZN4dbal4core7loaders11SchemaCache8containsERKNSt3__112basic_stringIcNS3_11char_traitsIcEENS3_9allocatorIcEEEE
FNL:2,30,41
FNA:2,0,_ZN4dbal4core7loaders11SchemaCache14getEntityNamesEv
FNL:3,43,46
FNA:3,0,_ZN4dbal4core7loaders11SchemaCache6getAllEv
FNL:4,48,51
FNA:4,0,_ZN4dbal4core7loaders11SchemaCache5clearEv
FNL:5,53,56
FNA:5,0,_ZN4dbal4core7loaders11SchemaCache6removeERKNSt3__112basic_stringIcNS3_11char_traitsIcEENS3_9allocatorIcEEEE
FNL:6,58,61
FNA:6,0,_ZN4dbal4core7loaders11SchemaCache4sizeEv
FNL:7,9,18
FNA:7,0,_ZN4dbal4core7loaders11SchemaCache3getERKNSt3__112basic_stringIcNS3_11char_traitsIcEENS3_9allocatorIcEEEE
FNF:8
FNH:0
DA:9,0
DA:10,0
DA:12,0
DA:13,0
DA:14,0
DA:17,0
DA:18,0
DA:20,0
DA:21,0
DA:22,0
DA:23,0
DA:25,0
DA:26,0
DA:27,0
DA:28,0
DA:30,0
DA:31,0
DA:33,0
DA:34,0
DA:36,0
DA:37,0
DA:40,0
DA:41,0
DA:43,0
DA:44,0
DA:45,0
DA:46,0
DA:48,0
DA:49,0
DA:50,0
DA:51,0
DA:53,0
DA:54,0
DA:55,0
DA:56,0
DA:58,0
DA:59,0
DA:60,0
DA:61,0
LF:39
LH:0
end_of_record
TN:
SF:/Users/rmac/Documents/GitHub/metabuilder-small/dbal/production/src/core/loaders/schema_validator.cpp
FNL:0,10,18
FNA:0,0,_ZN4dbal4core7loaders15SchemaValidator8validateERKNS0_12EntitySchemaE
FNL:1,106,109
FNA:1,0,_ZN4dbal4core7loaders15SchemaValidator16isValidFieldTypeERKNSt3__112basic_stringIcNS3_11char_traitsIcEENS3_9allocatorIcEEEE
FNL:2,111,117
FNA:2,0,_ZN4dbal4core7loaders15SchemaValidator18getValidFieldTypesEv
FNL:3,20,32
FNA:3,0,_ZN4dbal4core7loaders15SchemaValidator16validateMetadataERKNS0_12EntitySchemaERNS1_16ValidationResultE
FNL:4,34,51
FNA:4,0,_ZN4dbal4core7loaders15SchemaValidator14validateFieldsERKNS0_12EntitySchemaERNS1_16ValidationResultE
FNL:5,53,79
FNA:5,0,_ZN4dbal4core7loaders15SchemaValidator13validateFieldERKNS0_11EntityFieldERNS1_16ValidationResultE
FNL:6,81,104
FNA:6,0,_ZN4dbal4core7loaders15SchemaValidator15validateIndexesERKNS0_12EntitySchemaERNS1_16ValidationResultE
FNF:7
FNH:0
DA:10,0
DA:11,0
DA:13,0
DA:14,0
DA:15,0
DA:17,0
DA:18,0
DA:20,0
DA:21,0
DA:22,0
DA:23,0
DA:25,0
DA:26,0
DA:27,0
DA:29,0
DA:30,0
DA:31,0
DA:32,0
DA:34,0
DA:35,0
DA:37,0
DA:38,0
DA:40,0
DA:41,0
DA:42,0
DA:43,0
DA:44,0
DA:45,0
DA:48,0
DA:49,0
DA:50,0
DA:51,0
DA:53,0
DA:54,0
DA:55,0
DA:56,0
DA:59,0
DA:60,0
DA:61,0
DA:64,0
DA:65,0
DA:66,0
DA:69,0
DA:70,0
DA:71,0
DA:74,0
DA:75,0
DA:76,0
DA:77,0
DA:78,0
DA:79,0
DA:81,0
DA:82,0
DA:83,0
DA:84,0
DA:85,0
DA:89,0
DA:90,0
DA:91,0
DA:92,0
DA:93,0
DA:94,0
DA:98,0
DA:99,0
DA:100,0
DA:101,0
DA:104,0
DA:106,0
DA:107,0
DA:108,0
DA:109,0
DA:111,0
DA:112,0
DA:113,0
DA:114,0
DA:115,0
DA:117,0
LF:77
LH:0
end_of_record
TN:
SF:/Users/rmac/Documents/GitHub/metabuilder-small/dbal/production/src/core/metadata_cache.cpp
FNL:0,100,101
FNA:0,0,_ZNK4dbal4core13MetadataCache15calculateExpiryEv
FNL:1,11,15
FNA:1,0,_ZN4dbal4core13MetadataCache22cacheAvailableEntitiesERKNSt3__16vectorINS2_12basic_stringIcNS2_11char_traitsIcEENS2_9allocatorIcEEEENS7_IS9_EEEE
FNL:2,17,27
FNA:2,0,_ZNK4dbal4core13MetadataCache20getAvailableEntitiesEv
FNL:3,29,32
FNA:3,0,_ZNK4dbal4core13MetadataCache20hasAvailableEntitiesEv
FNL:4,34,42
FNA:4,0,_ZN4dbal4core13MetadataCache17cacheEntitySchemaERKNSt3__112basic_stringIcNS2_11char_traitsIcEENS2_9allocatorIcEEEERKN8nlohmann16json_abi_v3_11_310basic_jsonINS2_3mapENS2_6vectorES8_bxydS6_NSC_14adl_serializerENSF_IhNS6_IhEEEEvEE
FNL:5,44,55
FNA:5,0,_ZNK4dbal4core13MetadataCache15getEntitySchemaERKNSt3__112basic_stringIcNS2_11char_traitsIcEENS2_9allocatorIcEEEE
FNL:6,57,62
FNA:6,0,_ZNK4dbal4core13MetadataCache15hasEntitySchemaERKNSt3__112basic_stringIcNS2_11char_traitsIcEENS2_9allocatorIcEEEE
FNL:7,6,9
FNA:7,0,_ZN4dbal4core13MetadataCacheC1Ei
FNA:7,0,_ZN4dbal4core13MetadataCacheC2Ei
FNL:8,64,73
FNA:8,0,_ZN4dbal4core13MetadataCache13invalidateAllEv
FNL:9,75,82
FNA:9,0,_ZN4dbal4core13MetadataCache16invalidateSchemaERKNSt3__112basic_stringIcNS2_11char_traitsIcEENS2_9allocatorIcEEEE
FNL:10,84,98
FNA:10,0,_ZNK4dbal4core13MetadataCache13getStatisticsEv
FNF:11
FNH:0
DA:6,0
DA:7,0
DA:8,0
DA:9,0
DA:11,0
DA:12,0
DA:13,0
DA:14,0
DA:15,0
DA:17,0
DA:18,0
DA:20,0
DA:21,0
DA:22,0
DA:25,0
DA:26,0
DA:27,0
DA:29,0
DA:30,0
DA:31,0
DA:32,0
DA:34,0
DA:35,0
DA:37,0
DA:38,0
DA:39,0
DA:41,0
DA:42,0
DA:44,0
DA:45,0
DA:47,0
DA:48,0
DA:49,0
DA:50,0
DA:53,0
DA:54,0
DA:55,0
DA:57,0
DA:58,0
DA:60,0
DA:61,0
DA:62,0
DA:64,0
DA:65,0
DA:68,0
DA:70,0
DA:71,0
DA:73,0
DA:75,0
DA:76,0
DA:78,0
DA:79,0
DA:80,0
DA:81,0
DA:82,0
DA:84,0
DA:85,0
DA:87,0
DA:88,0
DA:89,0
DA:90,0
DA:91,0
DA:93,0
DA:94,0
DA:95,0
DA:97,0
DA:98,0
DA:100,0
DA:101,0
LF:69
LH:0
end_of_record
TN:
SF:/Users/rmac/Documents/GitHub/metabuilder-small/dbal/production/src/core/operation_executor.cpp
FNL:0,6,9
FNA:0,0,_ZN4dbal4core17OperationExecutorC1EPNS_8adapters7AdapterE
FNA:0,0,_ZN4dbal4core17OperationExecutorC2EPNS_8adapters7AdapterE
FNF:1
FNH:0
DA:6,0
DA:7,0
DA:8,0
DA:9,0
LF:4
LH:0
end_of_record
TN:
SF:/Users/rmac/Documents/GitHub/metabuilder-small/dbal/production/src/core/prisma_datasource_generator.cpp
FNL:0,13,14
FNA:0,0,_ZN4dbal4core25PrismaDatasourceGenerator14generateClientEv
FNL:1,6,7
FNA:1,0,_ZN4dbal4core25PrismaDatasourceGenerator18generateDatasourceEv
FNF:2
FNH:0
DA:6,0
DA:7,0
DA:13,0
DA:14,0
LF:4
LH:0
end_of_record
TN:
SF:/Users/rmac/Documents/GitHub/metabuilder-small/dbal/production/src/core/prisma_enum_generator.cpp
FNL:0,7,19
FNA:0,0,_ZN4dbal4core19PrismaEnumGenerator12generateEnumERKNSt3__112basic_stringIcNS2_11char_traitsIcEENS2_9allocatorIcEEEERKNS2_6vectorIS8_NS6_IS8_EEEE
FNF:1
FNH:0
DA:7,0
DA:8,0
DA:10,0
DA:12,0
DA:13,0
DA:16,0
DA:18,0
DA:19,0
LF:8
LH:0
end_of_record
TN:
SF:/Users/rmac/Documents/GitHub/metabuilder-small/dbal/production/src/core/prisma_file_writer.cpp
FNL:0,14,32
FNA:0,0,_ZN4dbal4core16PrismaFileWriter10getTempDirEv
FNL:1,34,53
FNA:1,0,_ZN4dbal4core16PrismaFileWriter15writeToTempFileERKNSt3__112basic_stringIcNS2_11char_traitsIcEENS2_9allocatorIcEEEE
FNF:2
FNH:0
DA:14,0
DA:23,0
DA:27,0
DA:28,0
DA:29,0
DA:31,0
DA:32,0
DA:34,0
DA:35,0
DA:36,0
DA:39,0
DA:40,0
DA:41,0
DA:44,0
DA:45,0
DA:47,0
DA:48,0
DA:49,0
DA:50,0
DA:51,0
DA:52,0
DA:53,0
LF:22
LH:0
end_of_record
TN:
SF:/Users/rmac/Documents/GitHub/metabuilder-small/dbal/production/src/core/prisma_generator.cpp
FNL:0,41,42
FNA:0,0,_ZN4dbal4core15PrismaGenerator15writeToTempFileERKNSt3__112basic_stringIcNS2_11char_traitsIcEENS2_9allocatorIcEEEE
FNL:1,45,46
FNA:1,0,_ZN4dbal4core15PrismaGenerator10getTempDirEv
FNL:2,7,39
FNA:2,0,_ZN4dbal4core15PrismaGenerator14generateSchemaERKNSt3__13mapINS2_12basic_stringIcNS2_11char_traitsIcEENS2_9allocatorIcEEEENS0_12EntitySchemaENS2_4lessIS9_EENS7_INS2_4pairIKS9_SA_EEEEEE
FNF:3
FNH:0
DA:7,0
DA:8,0
DA:11,0
DA:12,0
DA:13,0
DA:14,0
DA:17,0
DA:20,0
DA:23,0
DA:25,0
DA:28,0
DA:29,0
DA:30,0
DA:31,0
DA:33,0
DA:35,0
DA:38,0
DA:39,0
DA:41,0
DA:42,0
DA:45,0
DA:46,0
LF:22
LH:0
end_of_record
TN:
SF:/Users/rmac/Documents/GitHub/metabuilder-small/dbal/production/src/core/prisma_model_generator.cpp
FNL:0,151,178
FNA:0,0,_ZN4dbal4core20PrismaModelGenerator15generateIndexesERKNS0_12EntitySchemaE
FNL:1,36,53
FNA:1,0,_ZN4dbal4core20PrismaModelGenerator13generateFieldERKNS0_11EntityFieldE
FNL:2,55,83
FNA:2,0,_ZN4dbal4core20PrismaModelGenerator17fieldTypeToPrismaERKNSt3__112basic_stringIcNS2_11char_traitsIcEENS2_9allocatorIcEEEE
FNL:3,85,149
FNA:3,0,_ZN4dbal4core20PrismaModelGenerator23generateFieldAttributesERKNS0_11EntityFieldE
FNL:4,9,34
FNA:4,0,_ZN4dbal4core20PrismaModelGenerator13generateModelERKNS0_12EntitySchemaE
FNF:5
FNH:0
DA:9,0
DA:10,0
DA:13,0
DA:14,0
DA:15,0
DA:16,0
DA:18,0
DA:21,0
DA:22,0
DA:26,0
DA:27,0
DA:28,0
DA:29,0
DA:31,0
DA:33,0
DA:34,0
DA:36,0
DA:37,0
DA:39,0
DA:42,0
DA:43,0
DA:44,0
DA:47,0
DA:48,0
DA:49,0
DA:50,0
DA:52,0
DA:53,0
DA:55,0
DA:56,0
DA:57,0
DA:58,0
DA:59,0
DA:60,0
DA:61,0
DA:62,0
DA:63,0
DA:64,0
DA:65,0
DA:66,0
DA:67,0
DA:68,0
DA:69,0
DA:70,0
DA:71,0
DA:72,0
DA:75,0
DA:76,0
DA:77,0
DA:81,0
DA:82,0
DA:83,0
DA:85,0
DA:86,0
DA:89,0
DA:90,0
DA:91,0
DA:94,0
DA:95,0
DA:96,0
DA:97,0
DA:98,0
DA:99,0
DA:100,0
DA:101,0
DA:102,0
DA:103,0
DA:104,0
DA:107,0
DA:108,0
DA:109,0
DA:110,0
DA:111,0
DA:112,0
DA:113,0
DA:114,0
DA:115,0
DA:116,0
DA:119,0
DA:120,0
DA:121,0
DA:125,0
DA:126,0
DA:127,0
DA:128,0
DA:129,0
DA:130,0
DA:131,0
DA:132,0
DA:133,0
DA:135,0
DA:136,0
DA:137,0
DA:138,0
DA:139,0
DA:142,0
DA:143,0
DA:144,0
DA:145,0
DA:146,0
DA:148,0
DA:149,0
DA:151,0
DA:152,0
DA:153,0
DA:156,0
DA:158,0
DA:159,0
DA:160,0
DA:161,0
DA:162,0
DA:163,0
DA:164,0
DA:166,0
DA:167,0
DA:168,0
DA:170,0
DA:171,0
DA:172,0
DA:174,0
DA:177,0
DA:178,0
LF:122
LH:0
end_of_record
TN:
SF:/Users/rmac/Documents/GitHub/metabuilder-small/dbal/production/src/core/prisma_relation_generator.cpp
FNL:0,48,57
FNA:0,0,_ZN4dbal4core23PrismaRelationGenerator16generateOnDeleteERKNSt3__112basic_stringIcNS2_11char_traitsIcEENS2_9allocatorIcEEEE
FNL:1,7,46
FNA:1,0,_ZN4dbal4core23PrismaRelationGenerator16generateRelationERKNS0_11RelationDefE
FNF:2
FNH:0
DA:7,0
DA:8,0
DA:10,0
DA:12,0
DA:13,0
DA:14,0
DA:15,0
DA:16,0
DA:18,0
DA:19,0
DA:20,0
DA:21,0
DA:22,0
DA:23,0
DA:25,0
DA:26,0
DA:27,0
DA:29,0
DA:30,0
DA:31,0
DA:33,0
DA:34,0
DA:35,0
DA:37,0
DA:38,0
DA:39,0
DA:42,0
DA:43,0
DA:45,0
DA:46,0
DA:48,0
DA:49,0
DA:50,0
DA:51,0
DA:52,0
DA:53,0
DA:54,0
DA:56,0
DA:57,0
LF:39
LH:0
end_of_record
TN:
SF:/Users/rmac/Documents/GitHub/metabuilder-small/dbal/production/src/errors.cpp
FNL:0,13,14
FNA:0,0,_ZN4dbal5Error12unauthorizedERKNSt3__112basic_stringIcNS1_11char_traitsIcEENS1_9allocatorIcEEEE
FNL:1,17,18
FNA:1,0,_ZN4dbal5Error9forbiddenERKNSt3__112basic_stringIcNS1_11char_traitsIcEENS1_9allocatorIcEEEE
FNL:2,21,22
FNA:2,17,_ZN4dbal5Error15validationErrorERKNSt3__112basic_stringIcNS1_11char_traitsIcEENS1_9allocatorIcEEEE
FNL:3,25,26
FNA:3,4,_ZN4dbal5Error8internalERKNSt3__112basic_stringIcNS1_11char_traitsIcEENS1_9allocatorIcEEEE
FNL:4,29,30
FNA:4,0,_ZN4dbal5Error16sandboxViolationERKNSt3__112basic_stringIcNS1_11char_traitsIcEENS1_9allocatorIcEEEE
FNL:5,33,34
FNA:5,0,_ZN4dbal5Error13maliciousCodeERKNSt3__112basic_stringIcNS1_11char_traitsIcEENS1_9allocatorIcEEEE
FNL:6,5,6
FNA:6,10,_ZN4dbal5Error8notFoundERKNSt3__112basic_stringIcNS1_11char_traitsIcEENS1_9allocatorIcEEEE
FNL:7,9,10
FNA:7,0,_ZN4dbal5Error8conflictERKNSt3__112basic_stringIcNS1_11char_traitsIcEENS1_9allocatorIcEEEE
FNF:8
FNH:3
DA:5,10
DA:6,10
DA:9,0
DA:10,0
DA:13,0
DA:14,0
DA:17,0
DA:18,0
DA:21,17
DA:22,17
DA:25,4
DA:26,4
DA:29,0
DA:30,0
DA:33,0
DA:34,0
LF:16
LH:6
end_of_record
