TN:
SF:/Library/Developer/CommandLineTools/SDKs/MacOSX.sdk/usr/include/_ctype.h
FNL:0,140,142
FNA:0,35958,_Z7isasciii
FNL:1,158,164
FNA:1,35958,_Z8__istypeim
FNL:2,169,175
FNA:2,0,_Z9__isctypeim
FNL:3,217,219
FNA:3,30764,_Z7isalnumi
FNL:4,223,225
FNA:4,5194,_Z7isalphai
FNL:5,242,244
FNA:5,0,_Z7isdigiti
FNL:6,278,280
FNA:6,0,_Z7isupperi
FNL:7,297,299
FNA:7,13499,_Z7toloweri
FNL:8,303,305
FNA:8,414,_Z7toupperi
FNF:9
FNH:6
DA:140,35958
DA:142,35958
DA:158,35958
DA:163,35958
DA:164,0
DA:169,0
DA:174,0
DA:175,0
DA:217,30764
DA:219,30764
DA:223,5194
DA:225,5194
DA:242,0
DA:244,0
DA:278,0
DA:280,0
DA:297,13499
DA:299,13499
DA:303,414
DA:305,414
LF:20
LH:12
end_of_record
TN:
SF:/Library/Developer/CommandLineTools/SDKs/MacOSX.sdk/usr/include/c++/v1/__algorithm/all_of.h
FNL:0,25,31
FNA:0,0,_ZNSt3__18__all_ofB8ne200100INS_11__wrap_iterIPKcEES4_NS_10__identityEZNK8nlohmann16json_abi_v3_11_312json_pointerINS_12basic_stringIcNS_11char_traitsIcEENS_9allocatorIcEEEEE13get_uncheckedINS7_10basic_jsonINS_3mapENS_6vectorESE_bxydSC_NS7_14adl_serializerENSJ_IhNSC_IhEEEEvEEEERT_PSO_EUlhE_EEbSO_T0_RT2_RT1_
FNA:0,682,_ZNSt3__18__all_ofB8ne200100IPKN8nlohmann16json_abi_v3_11_36detail8json_refINS2_10basic_jsonINS_3mapENS_6vectorENS_12basic_stringIcNS_11char_traitsIcEENS_9allocatorIcEEEEbxydSB_NS2_14adl_serializerENS7_IhNSB_IhEEEEvEEEESK_NS_10__identityEZNSH_C1ESt16initializer_listISI_EbNS3_7value_tEEUlRSJ_E_EEbT_T0_RT2_RT1_
FNL:1,35,37
FNA:1,0,_ZNSt3__16all_ofB8ne200100INS_11__wrap_iterIPKcEEZNK8nlohmann16json_abi_v3_11_312json_pointerINS_12basic_stringIcNS_11char_traitsIcEENS_9allocatorIcEEEEE13get_uncheckedINS6_10basic_jsonINS_3mapENS_6vectorESD_bxydSB_NS6_14adl_serializerENSI_IhNSB_IhEEEEvEEEERT_PSN_EUlhE_EEbSN_SN_T0_
FNA:1,682,_ZNSt3__16all_ofB8ne200100IPKN8nlohmann16json_abi_v3_11_36detail8json_refINS2_10basic_jsonINS_3mapENS_6vectorENS_12basic_stringIcNS_11char_traitsIcEENS_9allocatorIcEEEEbxydSB_NS2_14adl_serializerENS7_IhNSB_IhEEEEvEEEEZNSH_C1ESt16initializer_listISI_EbNS3_7value_tEEUlRSJ_E_EEbT_SQ_T0_
FNF:2
FNH:2
DA:25,682
DA:26,692
DA:27,183
DA:28,173
DA:29,10
DA:30,509
DA:31,682
DA:35,682
DA:37,682
LF:9
LH:9
end_of_record
TN:
SF:/Library/Developer/CommandLineTools/SDKs/MacOSX.sdk/usr/include/c++/v1/__algorithm/comp.h
FNL:0,24,25
FNA:0,0,_ZNKSt3__110__equal_toclB8ne200100IN8nlohmann16json_abi_v3_11_310basic_jsonINS_3mapENS_6vectorENS_12basic_stringIcNS_11char_traitsIcEENS_9allocatorIcEEEEbxydSA_NS3_14adl_serializerENS6_IhNSA_IhEEEEvEESG_EEbRKT_RKT0_
FNA:0,0,_ZNKSt3__110__equal_toclB8ne200100INS_4pairIKNS_12basic_stringIcNS_11char_traitsIcEENS_9allocatorIcEEEEN8nlohmann16json_abi_v3_11_310basic_jsonINS_3mapENS_6vectorES8_bxydS6_NSB_14adl_serializerENSE_IhNS6_IhEEEEvEEEESJ_EEbRKT_RKT0_
FNA:0,0,_ZNKSt3__110__equal_toclB8ne200100IccEEbRKT_RKT0_
FNL:1,40,41
FNA:1,0,_ZNKSt3__16__lessIvvEclB8ne200100IN8nlohmann16json_abi_v3_11_310basic_jsonINS_3mapENS_6vectorENS_12basic_stringIcNS_11char_traitsIcEENS_9allocatorIcEEEEbxydSB_NS4_14adl_serializerENS7_IhNSB_IhEEEEvEESH_EEbRKT_RKT0_
FNA:1,0,_ZNKSt3__16__lessIvvEclB8ne200100IPKNS_10shared_ptrIN4inja14ExpressionNodeEEES8_EEbRKT_RKT0_
FNA:1,7548,_ZNKSt3__16__lessIvvEclB8ne200100IPKcS4_EEbRKT_RKT0_
FNA:1,0,_ZNKSt3__16__lessIvvEclB8ne200100IllEEbRKT_RKT0_
FNA:1,636768,_ZNKSt3__16__lessIvvEclB8ne200100ImmEEbRKT_RKT0_
FNF:2
FNH:1
DA:24,0
DA:25,0
DA:40,644316
DA:41,644316
LF:4
LH:2
end_of_record
TN:
SF:/Library/Developer/CommandLineTools/SDKs/MacOSX.sdk/usr/include/c++/v1/__algorithm/copy.h
FNL:0,101,102
FNA:0,0,_ZNKSt3__111__copy_implclB8ne200100IhhLi0EEENS_4pairIPT_PT0_EES4_S4_S6_
FNL:1,108,109
FNA:1,165,_ZNSt3__16__copyB8ne200100INS_14__bit_iteratorINS_6vectorIbNS_9allocatorIbEEEELb0ELm0EEES6_S6_EENS_4pairIT_T1_EES8_T0_S9_
FNA:1,1908,_ZNSt3__16__copyB8ne200100IPKNS_10shared_ptrIN4inja14ExpressionNodeEEES6_PS4_EENS_4pairIT_T1_EES9_T0_SA_
FNA:1,0,_ZNSt3__16__copyB8ne200100IPKNS_12basic_stringIcNS_11char_traitsIcEENS_9allocatorIcEEEES8_PS6_EENS_4pairIT_T1_EESB_T0_SC_
FNA:1,0,_ZNSt3__16__copyB8ne200100IPN4dbal4core11EntityFieldES4_S4_EENS_4pairIT_T1_EES6_T0_S7_
FNA:1,0,_ZNSt3__16__copyB8ne200100IPN4dbal4core11EntityIndexES4_S4_EENS_4pairIT_T1_EES6_T0_S7_
FNA:1,49,_ZNSt3__16__copyB8ne200100IPN4dbal4core11RelationDefES4_S4_EENS_4pairIT_T1_EES6_T0_S7_
FNA:1,0,_ZNSt3__16__copyB8ne200100IPN4dbal8adapters11EntityFieldES4_S4_EENS_4pairIT_T1_EES6_T0_S7_
FNA:1,114,_ZNSt3__16__copyB8ne200100IPN4dbal8adapters11RelationDefES4_S4_EENS_4pairIT_T1_EES6_T0_S7_
FNA:1,4,_ZNSt3__16__copyB8ne200100IPN8nlohmann16json_abi_v3_11_310basic_jsonINS_3mapENS_6vectorENS_12basic_stringIcNS_11char_traitsIcEENS_9allocatorIcEEEEbxydS9_NS2_14adl_serializerENS5_IhNS9_IhEEEEvEESG_SG_EENS_4pairIT_T1_EESI_T0_SJ_
FNA:1,1026,_ZNSt3__16__copyB8ne200100IPNS_12basic_stringIcNS_11char_traitsIcEENS_9allocatorIcEEEES7_S7_EENS_4pairIT_T1_EES9_T0_SA_
FNA:1,0,_ZNSt3__16__copyB8ne200100IPNS_4pairImPKcEES5_S5_EENS1_IT_T1_EES6_T0_S7_
FNA:1,0,_ZNSt3__16__copyB8ne200100IPNS_9sub_matchIPKcEES5_S5_EENS_4pairIT_T1_EES7_T0_S8_
FNA:1,0,_ZNSt3__16__copyB8ne200100IPhS1_S1_EENS_4pairIT_T1_EES3_T0_S4_
FNL:2,114,115
FNA:2,0,_ZNSt3__14copyB8ne200100IPKNS_10shared_ptrIN4inja14ExpressionNodeEEEPS4_EET0_T_S9_S8_
FNA:2,0,_ZNSt3__14copyB8ne200100IPKNS_12basic_stringIcNS_11char_traitsIcEENS_9allocatorIcEEEEPS6_EET0_T_SB_SA_
FNA:2,0,_ZNSt3__14copyB8ne200100IPN4dbal4core11EntityFieldES4_EET0_T_S6_S5_
FNA:2,0,_ZNSt3__14copyB8ne200100IPN4dbal4core11EntityIndexES4_EET0_T_S6_S5_
FNA:2,0,_ZNSt3__14copyB8ne200100IPN4dbal4core11RelationDefES4_EET0_T_S6_S5_
FNA:2,0,_ZNSt3__14copyB8ne200100IPN4dbal8adapters11EntityFieldES4_EET0_T_S6_S5_
FNA:2,0,_ZNSt3__14copyB8ne200100IPN4dbal8adapters11RelationDefES4_EET0_T_S6_S5_
FNA:2,0,_ZNSt3__14copyB8ne200100IPN8nlohmann16json_abi_v3_11_310basic_jsonINS_3mapENS_6vectorENS_12basic_stringIcNS_11char_traitsIcEENS_9allocatorIcEEEEbxydS9_NS2_14adl_serializerENS5_IhNS9_IhEEEEvEESG_EET0_T_SI_SH_
FNA:2,0,_ZNSt3__14copyB8ne200100IPNS_12basic_stringIcNS_11char_traitsIcEENS_9allocatorIcEEEES7_EET0_T_S9_S8_
FNA:2,0,_ZNSt3__14copyB8ne200100IPNS_4pairImPKcEES5_EET0_T_S7_S6_
FNA:2,0,_ZNSt3__14copyB8ne200100IPNS_9sub_matchIPKcEES5_EET0_T_S7_S6_
FNA:2,0,_ZNSt3__14copyB8ne200100IPhS1_EET0_T_S3_S2_
FNL:3,38,45
FNA:3,165,_ZNKSt3__111__copy_implclB8ne200100INS_14__bit_iteratorINS_6vectorIbNS_9allocatorIbEEEELb0ELm0EEES7_S7_EENS_4pairIT_T1_EES9_T0_SA_
FNA:3,1908,_ZNKSt3__111__copy_implclB8ne200100IPKNS_10shared_ptrIN4inja14ExpressionNodeEEES7_PS5_EENS_4pairIT_T1_EESA_T0_SB_
FNA:3,0,_ZNKSt3__111__copy_implclB8ne200100IPKNS_12basic_stringIcNS_11char_traitsIcEENS_9allocatorIcEEEES9_PS7_EENS_4pairIT_T1_EESC_T0_SD_
FNA:3,0,_ZNKSt3__111__copy_implclB8ne200100IPN4dbal4core11EntityFieldES5_S5_EENS_4pairIT_T1_EES7_T0_S8_
FNA:3,0,_ZNKSt3__111__copy_implclB8ne200100IPN4dbal4core11EntityIndexES5_S5_EENS_4pairIT_T1_EES7_T0_S8_
FNA:3,49,_ZNKSt3__111__copy_implclB8ne200100IPN4dbal4core11RelationDefES5_S5_EENS_4pairIT_T1_EES7_T0_S8_
FNA:3,0,_ZNKSt3__111__copy_implclB8ne200100IPN4dbal8adapters11EntityFieldES5_S5_EENS_4pairIT_T1_EES7_T0_S8_
FNA:3,114,_ZNKSt3__111__copy_implclB8ne200100IPN4dbal8adapters11RelationDefES5_S5_EENS_4pairIT_T1_EES7_T0_S8_
FNA:3,4,_ZNKSt3__111__copy_implclB8ne200100IPN8nlohmann16json_abi_v3_11_310basic_jsonINS_3mapENS_6vectorENS_12basic_stringIcNS_11char_traitsIcEENS_9allocatorIcEEEEbxydSA_NS3_14adl_serializerENS6_IhNSA_IhEEEEvEESH_SH_EENS_4pairIT_T1_EESJ_T0_SK_
FNA:3,1026,_ZNKSt3__111__copy_implclB8ne200100IPNS_12basic_stringIcNS_11char_traitsIcEENS_9allocatorIcEEEES8_S8_EENS_4pairIT_T1_EESA_T0_SB_
FNA:3,0,_ZNKSt3__111__copy_implclB8ne200100IPNS_4pairImPKcEES6_S6_EENS2_IT_T1_EES7_T0_S8_
FNA:3,0,_ZNKSt3__111__copy_implclB8ne200100IPNS_9sub_matchIPKcEES6_S6_EENS_4pairIT_T1_EES8_T0_S9_
FNF:4
FNH:2
DA:38,3266
DA:39,3266
DA:40,0
DA:41,0
DA:42,0
DA:45,3266
DA:101,0
DA:102,0
DA:108,3266
DA:109,3266
DA:114,0
DA:115,0
LF:12
LH:5
end_of_record
TN:
SF:/Library/Developer/CommandLineTools/SDKs/MacOSX.sdk/usr/include/c++/v1/__algorithm/copy_move_common.h
FNL:0,61,66
FNA:0,0,_ZNSt3__119__copy_trivial_implB8ne200100IPNS_10shared_ptrIN4inja12FunctionNodeEEES5_EENS_4pairIPT_PT0_EES8_S8_SA_
FNA:0,0,_ZNSt3__119__copy_trivial_implB8ne200100IPNS_10unique_ptrIN4dbal8adapters3sql13SqlConnectionENS_14default_deleteIS5_EEEES9_EENS_4pairIPT_PT0_EESC_SC_SE_
FNA:0,0,_ZNSt3__119__copy_trivial_implB8ne200100IPNS_7__stateIcEES3_EENS_4pairIPT_PT0_EES6_S6_S8_
FNA:0,0,_ZNSt3__119__copy_trivial_implB8ne200100IPPKN4inja8DataNodeES5_EENS_4pairIPT_PT0_EES8_S8_SA_
FNA:0,0,_ZNSt3__119__copy_trivial_implB8ne200100IPPKN8nlohmann16json_abi_v3_11_310basic_jsonINS_3mapENS_6vectorENS_12basic_stringIcNS_11char_traitsIcEENS_9allocatorIcEEEEbxydS9_NS2_14adl_serializerENS5_IhNS9_IhEEEEvEESI_EENS_4pairIPT_PT0_EESL_SL_SN_
FNA:0,0,_ZNSt3__119__copy_trivial_implB8ne200100IPPN4inja15IfStatementNodeES4_EENS_4pairIPT_PT0_EES7_S7_S9_
FNA:0,0,_ZNSt3__119__copy_trivial_implB8ne200100IPPN4inja16ForStatementNodeES4_EENS_4pairIPT_PT0_EES7_S7_S9_
FNA:0,0,_ZNSt3__119__copy_trivial_implB8ne200100IPPN4inja18BlockStatementNodeES4_EENS_4pairIPT_PT0_EES7_S7_S9_
FNA:0,0,_ZNSt3__119__copy_trivial_implB8ne200100IhhEENS_4pairIPT_PT0_EES3_S3_S5_
FNL:1,71,77
FNA:1,0,_ZNSt3__128__copy_backward_trivial_implB8ne200100IPNS_10shared_ptrIN4inja12FunctionNodeEEES5_EENS_4pairIPT_PT0_EES8_S8_SA_
FNA:1,0,_ZNSt3__128__copy_backward_trivial_implB8ne200100IPNS_10unique_ptrIN4dbal8adapters3sql13SqlConnectionENS_14default_deleteIS5_EEEES9_EENS_4pairIPT_PT0_EESC_SC_SE_
FNA:1,0,_ZNSt3__128__copy_backward_trivial_implB8ne200100IPNS_7__stateIcEES3_EENS_4pairIPT_PT0_EES6_S6_S8_
FNA:1,0,_ZNSt3__128__copy_backward_trivial_implB8ne200100IPPKN4inja8DataNodeES5_EENS_4pairIPT_PT0_EES8_S8_SA_
FNA:1,0,_ZNSt3__128__copy_backward_trivial_implB8ne200100IPPKN8nlohmann16json_abi_v3_11_310basic_jsonINS_3mapENS_6vectorENS_12basic_stringIcNS_11char_traitsIcEENS_9allocatorIcEEEEbxydS9_NS2_14adl_serializerENS5_IhNS9_IhEEEEvEESI_EENS_4pairIPT_PT0_EESL_SL_SN_
FNA:1,0,_ZNSt3__128__copy_backward_trivial_implB8ne200100IPPN4inja15IfStatementNodeES4_EENS_4pairIPT_PT0_EES7_S7_S9_
FNA:1,0,_ZNSt3__128__copy_backward_trivial_implB8ne200100IPPN4inja16ForStatementNodeES4_EENS_4pairIPT_PT0_EES7_S7_S9_
FNA:1,0,_ZNSt3__128__copy_backward_trivial_implB8ne200100IPPN4inja18BlockStatementNodeES4_EENS_4pairIPT_PT0_EES7_S7_S9_
FNL:2,92,96
FNA:2,165,_ZNSt3__124__copy_move_unwrap_itersB8ne200100INS_11__copy_implENS_14__bit_iteratorINS_6vectorIbNS_9allocatorIbEEEELb0ELm0EEES7_S7_Li0EEENS_4pairIT0_T2_EES9_T1_SA_
FNA:2,1908,_ZNSt3__124__copy_move_unwrap_itersB8ne200100INS_11__copy_implEPKNS_10shared_ptrIN4inja14ExpressionNodeEEES7_PS5_Li0EEENS_4pairIT0_T2_EESA_T1_SB_
FNA:2,0,_ZNSt3__124__copy_move_unwrap_itersB8ne200100INS_11__copy_implEPKNS_12basic_stringIcNS_11char_traitsIcEENS_9allocatorIcEEEES9_PS7_Li0EEENS_4pairIT0_T2_EESC_T1_SD_
FNA:2,0,_ZNSt3__124__copy_move_unwrap_itersB8ne200100INS_11__copy_implEPN4dbal4core11EntityFieldES5_S5_Li0EEENS_4pairIT0_T2_EES7_T1_S8_
FNA:2,0,_ZNSt3__124__copy_move_unwrap_itersB8ne200100INS_11__copy_implEPN4dbal4core11EntityIndexES5_S5_Li0EEENS_4pairIT0_T2_EES7_T1_S8_
FNA:2,49,_ZNSt3__124__copy_move_unwrap_itersB8ne200100INS_11__copy_implEPN4dbal4core11RelationDefES5_S5_Li0EEENS_4pairIT0_T2_EES7_T1_S8_
FNA:2,0,_ZNSt3__124__copy_move_unwrap_itersB8ne200100INS_11__copy_implEPN4dbal8adapters11EntityFieldES5_S5_Li0EEENS_4pairIT0_T2_EES7_T1_S8_
FNA:2,114,_ZNSt3__124__copy_move_unwrap_itersB8ne200100INS_11__copy_implEPN4dbal8adapters11RelationDefES5_S5_Li0EEENS_4pairIT0_T2_EES7_T1_S8_
FNA:2,4,_ZNSt3__124__copy_move_unwrap_itersB8ne200100INS_11__copy_implEPN8nlohmann16json_abi_v3_11_310basic_jsonINS_3mapENS_6vectorENS_12basic_stringIcNS_11char_traitsIcEENS_9allocatorIcEEEEbxydSA_NS3_14adl_serializerENS6_IhNSA_IhEEEEvEESH_SH_Li0EEENS_4pairIT0_T2_EESJ_T1_SK_
FNA:2,1026,_ZNSt3__124__copy_move_unwrap_itersB8ne200100INS_11__copy_implEPNS_12basic_stringIcNS_11char_traitsIcEENS_9allocatorIcEEEES8_S8_Li0EEENS_4pairIT0_T2_EESA_T1_SB_
FNA:2,0,_ZNSt3__124__copy_move_unwrap_itersB8ne200100INS_11__copy_implEPNS_4pairImPKcEES6_S6_Li0EEENS2_IT0_T2_EES7_T1_S8_
FNA:2,0,_ZNSt3__124__copy_move_unwrap_itersB8ne200100INS_11__copy_implEPNS_9sub_matchIPKcEES6_S6_Li0EEENS_4pairIT0_T2_EES8_T1_S9_
FNA:2,0,_ZNSt3__124__copy_move_unwrap_itersB8ne200100INS_11__copy_implEPhS2_S2_Li0EEENS_4pairIT0_T2_EES4_T1_S5_
FNA:2,5627,_ZNSt3__124__copy_move_unwrap_itersB8ne200100INS_11__move_implINS_17_ClassicAlgPolicyEEENS_11__wrap_iterIPN8nlohmann16json_abi_v3_11_310basic_jsonINS_3mapENS_6vectorENS_12basic_stringIcNS_11char_traitsIcEENS_9allocatorIcEEEEbxydSD_NS6_14adl_serializerENS9_IhNSD_IhEEEEvEEEESL_NS_20back_insert_iteratorINS9_ISJ_NSD_ISJ_EEEEEELi0EEENS_4pairIT0_T2_EESR_T1_SS_
FNA:2,0,_ZNSt3__124__copy_move_unwrap_itersB8ne200100INS_11__move_implINS_17_ClassicAlgPolicyEEEPN8nlohmann16json_abi_v3_11_310basic_jsonINS_3mapENS_6vectorENS_12basic_stringIcNS_11char_traitsIcEENS_9allocatorIcEEEEbxydSC_NS5_14adl_serializerENS8_IhNSC_IhEEEEvEESJ_SJ_Li0EEENS_4pairIT0_T2_EESL_T1_SM_
FNA:2,0,_ZNSt3__124__copy_move_unwrap_itersB8ne200100INS_11__move_implINS_17_ClassicAlgPolicyEEEPNS_10shared_ptrIN4inja14ExpressionNodeEEES8_S8_Li0EEENS_4pairIT0_T2_EESA_T1_SB_
FNA:2,0,_ZNSt3__124__copy_move_unwrap_itersB8ne200100INS_11__move_implINS_17_ClassicAlgPolicyEEEPPNS_10shared_ptrIN4inja12FunctionNodeEEES9_S9_Li0EEENS_4pairIT0_T2_EESB_T1_SC_
FNA:2,0,_ZNSt3__124__copy_move_unwrap_itersB8ne200100INS_11__move_implINS_17_ClassicAlgPolicyEEEPPNS_10unique_ptrIN4dbal8adapters3sql13SqlConnectionENS_14default_deleteIS8_EEEESD_SD_Li0EEENS_4pairIT0_T2_EESF_T1_SG_
FNA:2,0,_ZNSt3__124__copy_move_unwrap_itersB8ne200100INS_11__move_implINS_17_ClassicAlgPolicyEEEPPNS_7__stateIcEES7_S7_Li0EEENS_4pairIT0_T2_EES9_T1_SA_
FNA:2,0,_ZNSt3__124__copy_move_unwrap_itersB8ne200100INS_11__move_implINS_17_ClassicAlgPolicyEEEPPPKN4inja8DataNodeES9_S9_Li0EEENS_4pairIT0_T2_EESB_T1_SC_
FNA:2,0,_ZNSt3__124__copy_move_unwrap_itersB8ne200100INS_11__move_implINS_17_ClassicAlgPolicyEEEPPPKN8nlohmann16json_abi_v3_11_310basic_jsonINS_3mapENS_6vectorENS_12basic_stringIcNS_11char_traitsIcEENS_9allocatorIcEEEEbxydSC_NS5_14adl_serializerENS8_IhNSC_IhEEEEvEESM_SM_Li0EEENS_4pairIT0_T2_EESO_T1_SP_
FNA:2,0,_ZNSt3__124__copy_move_unwrap_itersB8ne200100INS_11__move_implINS_17_ClassicAlgPolicyEEEPPPN4inja15IfStatementNodeES8_S8_Li0EEENS_4pairIT0_T2_EESA_T1_SB_
FNA:2,0,_ZNSt3__124__copy_move_unwrap_itersB8ne200100INS_11__move_implINS_17_ClassicAlgPolicyEEEPPPN4inja16ForStatementNodeES8_S8_Li0EEENS_4pairIT0_T2_EESA_T1_SB_
FNA:2,0,_ZNSt3__124__copy_move_unwrap_itersB8ne200100INS_11__move_implINS_17_ClassicAlgPolicyEEEPPPN4inja18BlockStatementNodeES8_S8_Li0EEENS_4pairIT0_T2_EESA_T1_SB_
FNA:2,0,_ZNSt3__124__copy_move_unwrap_itersB8ne200100INS_20__move_backward_implINS_17_ClassicAlgPolicyEEEPNS_10shared_ptrIN4inja14ExpressionNodeEEES8_S8_Li0EEENS_4pairIT0_T2_EESA_T1_SB_
FNA:2,0,_ZNSt3__124__copy_move_unwrap_itersB8ne200100INS_20__move_backward_implINS_17_ClassicAlgPolicyEEEPPNS_10shared_ptrIN4inja12FunctionNodeEEES9_S9_Li0EEENS_4pairIT0_T2_EESB_T1_SC_
FNA:2,0,_ZNSt3__124__copy_move_unwrap_itersB8ne200100INS_20__move_backward_implINS_17_ClassicAlgPolicyEEEPPNS_10unique_ptrIN4dbal8adapters3sql13SqlConnectionENS_14default_deleteIS8_EEEESD_SD_Li0EEENS_4pairIT0_T2_EESF_T1_SG_
FNA:2,0,_ZNSt3__124__copy_move_unwrap_itersB8ne200100INS_20__move_backward_implINS_17_ClassicAlgPolicyEEEPPNS_7__stateIcEES7_S7_Li0EEENS_4pairIT0_T2_EES9_T1_SA_
FNA:2,0,_ZNSt3__124__copy_move_unwrap_itersB8ne200100INS_20__move_backward_implINS_17_ClassicAlgPolicyEEEPPPKN4inja8DataNodeES9_S9_Li0EEENS_4pairIT0_T2_EESB_T1_SC_
FNA:2,0,_ZNSt3__124__copy_move_unwrap_itersB8ne200100INS_20__move_backward_implINS_17_ClassicAlgPolicyEEEPPPKN8nlohmann16json_abi_v3_11_310basic_jsonINS_3mapENS_6vectorENS_12basic_stringIcNS_11char_traitsIcEENS_9allocatorIcEEEEbxydSC_NS5_14adl_serializerENS8_IhNSC_IhEEEEvEESM_SM_Li0EEENS_4pairIT0_T2_EESO_T1_SP_
FNA:2,0,_ZNSt3__124__copy_move_unwrap_itersB8ne200100INS_20__move_backward_implINS_17_ClassicAlgPolicyEEEPPPN4inja15IfStatementNodeES8_S8_Li0EEENS_4pairIT0_T2_EESA_T1_SB_
FNA:2,0,_ZNSt3__124__copy_move_unwrap_itersB8ne200100INS_20__move_backward_implINS_17_ClassicAlgPolicyEEEPPPN4inja16ForStatementNodeES8_S8_Li0EEENS_4pairIT0_T2_EESA_T1_SB_
FNA:2,0,_ZNSt3__124__copy_move_unwrap_itersB8ne200100INS_20__move_backward_implINS_17_ClassicAlgPolicyEEEPPPN4inja18BlockStatementNodeES8_S8_Li0EEENS_4pairIT0_T2_EESA_T1_SB_
FNF:3
FNH:1
DA:61,0
DA:62,0
DA:64,0
DA:66,0
DA:71,0
DA:72,0
DA:73,0
DA:75,0
DA:77,0
DA:92,8893
DA:93,8893
DA:94,8893
DA:95,17786
DA:96,8893
LF:14
LH:5
end_of_record
TN:
SF:/Library/Developer/CommandLineTools/SDKs/MacOSX.sdk/usr/include/c++/v1/__algorithm/equal.h
FNL:0,37,43
FNA:0,0,_ZNSt3__117__equal_iter_implB8ne200100INS_20__map_const_iteratorINS_21__tree_const_iteratorINS_12__value_typeINS_12basic_stringIcNS_11char_traitsIcEENS_9allocatorIcEEEEN8nlohmann16json_abi_v3_11_310basic_jsonINS_3mapENS_6vectorES9_bxydS7_NSB_14adl_serializerENSE_IhNS7_IhEEEEvEEEEPNS_11__tree_nodeISJ_PvEElEEEESP_NS_10__equal_toEEEbT_SR_T0_RT1_
FNA:0,0,_ZNSt3__117__equal_iter_implB8ne200100IPKN8nlohmann16json_abi_v3_11_310basic_jsonINS_3mapENS_6vectorENS_12basic_stringIcNS_11char_traitsIcEENS_9allocatorIcEEEEbxydS9_NS2_14adl_serializerENS5_IhNS9_IhEEEEvEESH_NS_10__equal_toEEEbT_SJ_T0_RT1_
FNL:1,52,53
FNA:1,0,_ZNSt3__117__equal_iter_implB8ne200100IKcS1_NS_10__equal_toELi0EEEbPT_S4_PT0_RT1_
FNA:1,0,_ZNSt3__117__equal_iter_implB8ne200100IKhS1_NS_10__equal_toELi0EEEbPT_S4_PT0_RT1_
FNL:2,58,60
FNA:2,0,_ZNSt3__15equalB8ne200100INS_11__wrap_iterIPKN8nlohmann16json_abi_v3_11_310basic_jsonINS_3mapENS_6vectorENS_12basic_stringIcNS_11char_traitsIcEENS_9allocatorIcEEEEbxydSA_NS3_14adl_serializerENS6_IhNSA_IhEEEEvEEEESJ_NS_10__equal_toEEEbT_SL_T0_T1_
FNA:2,0,_ZNSt3__15equalB8ne200100INS_11__wrap_iterIPKhEES4_NS_10__equal_toEEEbT_S6_T0_T1_
FNA:2,0,_ZNSt3__15equalB8ne200100INS_20__map_const_iteratorINS_21__tree_const_iteratorINS_12__value_typeINS_12basic_stringIcNS_11char_traitsIcEENS_9allocatorIcEEEEN8nlohmann16json_abi_v3_11_310basic_jsonINS_3mapENS_6vectorES9_bxydS7_NSB_14adl_serializerENSE_IhNS7_IhEEEEvEEEEPNS_11__tree_nodeISJ_PvEElEEEESP_NS_10__equal_toEEEbT_SR_T0_T1_
FNA:2,0,_ZNSt3__15equalB8ne200100IPKcS2_NS_10__equal_toEEEbT_S4_T0_T1_
FNL:3,65,66
FNA:3,0,_ZNSt3__15equalB8ne200100INS_11__wrap_iterIPKN8nlohmann16json_abi_v3_11_310basic_jsonINS_3mapENS_6vectorENS_12basic_stringIcNS_11char_traitsIcEENS_9allocatorIcEEEEbxydSA_NS3_14adl_serializerENS6_IhNSA_IhEEEEvEEEESJ_EEbT_SK_T0_
FNA:3,0,_ZNSt3__15equalB8ne200100INS_11__wrap_iterIPKhEES4_EEbT_S5_T0_
FNA:3,0,_ZNSt3__15equalB8ne200100INS_20__map_const_iteratorINS_21__tree_const_iteratorINS_12__value_typeINS_12basic_stringIcNS_11char_traitsIcEENS_9allocatorIcEEEEN8nlohmann16json_abi_v3_11_310basic_jsonINS_3mapENS_6vectorES9_bxydS7_NSB_14adl_serializerENSE_IhNS7_IhEEEEvEEEEPNS_11__tree_nodeISJ_PvEElEEEESP_EEbT_SQ_T0_
FNA:3,0,_ZNSt3__15equalB8ne200100IPKcS2_EEbT_S3_T0_
FNF:4
FNH:0
DA:37,0
DA:39,0
DA:40,0
DA:41,0
DA:42,0
DA:43,0
DA:52,0
DA:53,0
DA:58,0
DA:59,0
DA:60,0
DA:65,0
DA:66,0
LF:13
LH:0
end_of_record
TN:
SF:/Library/Developer/CommandLineTools/SDKs/MacOSX.sdk/usr/include/c++/v1/__algorithm/fill_n.h
FNL:0,81,84
FNA:0,0,_ZNSt3__18__fill_nB8ne200100IPNS_9sub_matchIPKcEEmS4_EET_S6_T0_RKT1_
FNA:0,291,_ZNSt3__18__fill_nB8ne200100IPcmcEET_S2_T0_RKT1_
FNL:1,89,90
FNA:1,0,_ZNSt3__16fill_nB8ne200100IPNS_9sub_matchIPKcEEmS4_EET_S6_T0_RKT1_
FNA:1,291,_ZNSt3__16fill_nB8ne200100IPcmcEET_S2_T0_RKT1_
FNF:2
FNH:2
DA:81,291
DA:82,582
DA:83,291
DA:84,291
DA:89,291
DA:90,291
LF:6
LH:6
end_of_record
TN:
SF:/Library/Developer/CommandLineTools/SDKs/MacOSX.sdk/usr/include/c++/v1/__algorithm/find.h
FNL:0,178,181
FNA:0,0,_ZNSt3__14findB8ne200100IN8nlohmann16json_abi_v3_11_36detail9iter_implIKNS2_10basic_jsonINS_3mapENS_6vectorENS_12basic_stringIcNS_11char_traitsIcEENS_9allocatorIcEEEEbxydSB_NS2_14adl_serializerENS7_IhNSB_IhEEEEvEEEESH_EET_SK_SK_RKT0_
FNA:0,1,_ZNSt3__14findB8ne200100INS_11__wrap_iterIPKNS_12basic_stringIcNS_11char_traitsIcEENS_9allocatorIcEEEEEEA9_cEET_SC_SC_RKT0_
FNA:0,0,_ZNSt3__14findB8ne200100INS_11__wrap_iterIPKcEEcEET_S5_S5_RKT0_
FNA:0,2,_ZNSt3__14findB8ne200100INS_11__wrap_iterIPNS_12basic_stringIcNS_11char_traitsIcEENS_9allocatorIcEEEEEEA9_cEET_SB_SB_RKT0_
FNA:0,0,_ZNSt3__14findB8ne200100INS_11__wrap_iterIPNS_12basic_stringIcNS_11char_traitsIcEENS_9allocatorIcEEEEEES7_EET_SA_SA_RKT0_
FNA:0,0,_ZNSt3__14findB8ne200100IPKccEET_S3_S3_RKT0_
FNL:1,47,51
FNA:1,0,_ZNSt3__16__findB8ne200100IN8nlohmann16json_abi_v3_11_36detail9iter_implIKNS2_10basic_jsonINS_3mapENS_6vectorENS_12basic_stringIcNS_11char_traitsIcEENS_9allocatorIcEEEEbxydSB_NS2_14adl_serializerENS7_IhNSB_IhEEEEvEEEESJ_SH_NS_10__identityEEET_SL_T0_RKT1_RT2_
FNA:1,1,_ZNSt3__16__findB8ne200100IPKNS_12basic_stringIcNS_11char_traitsIcEENS_9allocatorIcEEEES8_A9_cNS_10__identityEEET_SB_T0_RKT1_RT2_
FNA:1,2,_ZNSt3__16__findB8ne200100IPNS_12basic_stringIcNS_11char_traitsIcEENS_9allocatorIcEEEES7_A9_cNS_10__identityEEET_SA_T0_RKT1_RT2_
FNA:1,0,_ZNSt3__16__findB8ne200100IPNS_12basic_stringIcNS_11char_traitsIcEENS_9allocatorIcEEEES7_S6_NS_10__identityEEET_S9_T0_RKT1_RT2_
FNL:2,61,65
FNA:2,0,_ZNSt3__16__findB8ne200100IKccNS_10__identityELi0EEEPT_S4_S4_RKT0_RT1_
FNF:3
FNH:2
DA:47,3
DA:48,5
DA:49,5
DA:50,3
DA:51,3
DA:61,0
DA:62,0
DA:63,0
DA:64,0
DA:65,0
DA:178,3
DA:180,3
DA:181,3
LF:13
LH:8
end_of_record
TN:
SF:/Library/Developer/CommandLineTools/SDKs/MacOSX.sdk/usr/include/c++/v1/__algorithm/find_first_of.h
FNL:0,23,34
FNA:0,2756,_ZNSt3__118__find_first_of_ceB8ne200100IPKcS2_RDoFbccEEET_S5_S5_T0_S6_OT1_
FNF:1
FNH:1
DA:23,2756
DA:29,16856
DA:30,47388
DA:31,33288
DA:32,16644
DA:33,212
DA:34,2756
LF:7
LH:7
end_of_record
TN:
SF:/Library/Developer/CommandLineTools/SDKs/MacOSX.sdk/usr/include/c++/v1/__algorithm/iter_swap.h
FNL:0,23,27
FNA:0,0,_ZNSt3__19iter_swapB8ne200100IN8nlohmann16json_abi_v3_11_36detail9iter_implINS2_10basic_jsonINS_3mapENS_6vectorENS_12basic_stringIcNS_11char_traitsIcEENS_9allocatorIcEEEEbxydSB_NS2_14adl_serializerENS7_IhNSB_IhEEEEvEEEESI_EEvT_T0_
FNF:1
FNH:0
DA:23,0
DA:26,0
DA:27,0
LF:3
LH:0
end_of_record
TN:
SF:/Library/Developer/CommandLineTools/SDKs/MacOSX.sdk/usr/include/c++/v1/__algorithm/iterator_operations.h
FNL:0,103,109
FNA:0,0,_ZNSt3__18_IterOpsINS_17_ClassicAlgPolicyEE25__validate_iter_referenceB8ne200100IRN8nlohmann16json_abi_v3_11_36detail9iter_implINS5_10basic_jsonINS_3mapENS_6vectorENS_12basic_stringIcNS_11char_traitsIcEENS_9allocatorIcEEEEbxydSE_NS5_14adl_serializerENSA_IhNSE_IhEEEEvEEEEEEvv
FNA:0,8540,_ZNSt3__18_IterOpsINS_17_ClassicAlgPolicyEE25__validate_iter_referenceB8ne200100IRPN8nlohmann16json_abi_v3_11_310basic_jsonINS_3mapENS_6vectorENS_12basic_stringIcNS_11char_traitsIcEENS_9allocatorIcEEEEbxydSC_NS5_14adl_serializerENS8_IhNSC_IhEEEEvEEEEvv
FNA:0,0,_ZNSt3__18_IterOpsINS_17_ClassicAlgPolicyEE25__validate_iter_referenceB8ne200100IRPNS_10shared_ptrIN4inja14ExpressionNodeEEEEEvv
FNL:1,117,120
FNA:1,0,_ZNSt3__18_IterOpsINS_17_ClassicAlgPolicyEE11__iter_moveB8ne200100IRN8nlohmann16json_abi_v3_11_36detail9iter_implINS5_10basic_jsonINS_3mapENS_6vectorENS_12basic_stringIcNS_11char_traitsIcEENS_9allocatorIcEEEEbxydSE_NS5_14adl_serializerENSA_IhNSE_IhEEEEvEEEELi0EEEDTclsr3stdE4movedeclsr3stdE7declvalIRT_EEEEOSN_
FNA:1,8540,_ZNSt3__18_IterOpsINS_17_ClassicAlgPolicyEE11__iter_moveB8ne200100IRPN8nlohmann16json_abi_v3_11_310basic_jsonINS_3mapENS_6vectorENS_12basic_stringIcNS_11char_traitsIcEENS_9allocatorIcEEEEbxydSC_NS5_14adl_serializerENS8_IhNSC_IhEEEEvEELi0EEEDTclsr3stdE4movedeclsr3stdE7declvalIRT_EEEEOSL_
FNA:1,0,_ZNSt3__18_IterOpsINS_17_ClassicAlgPolicyEE11__iter_moveB8ne200100IRPNS_10shared_ptrIN4inja14ExpressionNodeEEELi0EEEDTclsr3stdE4movedeclsr3stdE7declvalIRT_EEEEOSA_
FNL:2,137,139
FNA:2,0,_ZNSt3__18_IterOpsINS_17_ClassicAlgPolicyEE9iter_swapB8ne200100IN8nlohmann16json_abi_v3_11_36detail9iter_implINS5_10basic_jsonINS_3mapENS_6vectorENS_12basic_stringIcNS_11char_traitsIcEENS_9allocatorIcEEEEbxydSE_NS5_14adl_serializerENSA_IhNSE_IhEEEEvEEEESL_EEvOT_OT0_
FNA:2,0,_ZNSt3__18_IterOpsINS_17_ClassicAlgPolicyEE9iter_swapB8ne200100IRN8nlohmann16json_abi_v3_11_36detail9iter_implINS5_10basic_jsonINS_3mapENS_6vectorENS_12basic_stringIcNS_11char_traitsIcEENS_9allocatorIcEEEEbxydSE_NS5_14adl_serializerENSA_IhNSE_IhEEEEvEEEESL_EEvOT_OT0_
FNA:2,0,_ZNSt3__18_IterOpsINS_17_ClassicAlgPolicyEE9iter_swapB8ne200100IRN8nlohmann16json_abi_v3_11_36detail9iter_implINS5_10basic_jsonINS_3mapENS_6vectorENS_12basic_stringIcNS_11char_traitsIcEENS_9allocatorIcEEEEbxydSE_NS5_14adl_serializerENSA_IhNSE_IhEEEEvEEEESM_EEvOT_OT0_
FNL:3,143,144
FNA:3,0,_ZNSt3__18_IterOpsINS_17_ClassicAlgPolicyEE4nextB8ne200100IN8nlohmann16json_abi_v3_11_36detail9iter_implINS5_10basic_jsonINS_3mapENS_6vectorENS_12basic_stringIcNS_11char_traitsIcEENS_9allocatorIcEEEEbxydSE_NS5_14adl_serializerENSA_IhNSE_IhEEEEvEEEEEET_SM_SM_
FNA:3,0,_ZNSt3__18_IterOpsINS_17_ClassicAlgPolicyEE4nextB8ne200100IPNS_10shared_ptrIN4inja14ExpressionNodeEEEEET_S9_S9_
FNL:4,161,163
FNA:4,0,_ZNSt3__18_IterOpsINS_17_ClassicAlgPolicyEE12__advance_toB8ne200100IPKcEEvRT_S6_
FNF:5
FNH:2
DA:103,8540
DA:109,8540
DA:117,8540
DA:118,8540
DA:120,8540
DA:137,0
DA:138,0
DA:139,0
DA:143,0
DA:144,0
DA:161,0
DA:162,0
DA:163,0
LF:13
LH:5
end_of_record
TN:
SF:/Library/Developer/CommandLineTools/SDKs/MacOSX.sdk/usr/include/c++/v1/__algorithm/lexicographical_compare_three_way.h
FNL:0,37,63
FNA:0,0,_ZNSt3__145__lexicographical_compare_three_way_fast_pathB8ne200100INS_11__wrap_iterIPKN8nlohmann16json_abi_v3_11_310basic_jsonINS_3mapENS_6vectorENS_12basic_stringIcNS_11char_traitsIcEENS_9allocatorIcEEEEbxydSA_NS3_14adl_serializerENS6_IhNSA_IhEEEEvEEEESJ_NS_17__synth_three_wayMUlTyTyRKT_RKT0_E_EEEDTclfp3_defp_defp1_EESK_SK_SN_SN_RT1_
FNA:0,0,_ZNSt3__145__lexicographical_compare_three_way_fast_pathB8ne200100INS_11__wrap_iterIPKhEES4_NS_17__synth_three_wayMUlTyTyRKT_RKT0_E_EEEDTclfp3_defp_defp1_EES5_S5_S8_S8_RT1_
FNL:1,67,90
FNA:1,0,_ZNSt3__145__lexicographical_compare_three_way_slow_pathB8ne200100INS_20__map_const_iteratorINS_21__tree_const_iteratorINS_12__value_typeINS_12basic_stringIcNS_11char_traitsIcEENS_9allocatorIcEEEEN8nlohmann16json_abi_v3_11_310basic_jsonINS_3mapENS_6vectorES9_bxydS7_NSB_14adl_serializerENSE_IhNS7_IhEEEEvEEEEPNS_11__tree_nodeISJ_PvEElEEEESP_NS_17__synth_three_wayMUlTyTyRKT_RKT0_E_EEEDTclfp3_defp_defp1_EESQ_SQ_ST_ST_RT1_
FNL:2,93,108
FNA:2,0,_ZNSt3__133lexicographical_compare_three_wayB8ne200100INS_11__wrap_iterIPKN8nlohmann16json_abi_v3_11_310basic_jsonINS_3mapENS_6vectorENS_12basic_stringIcNS_11char_traitsIcEENS_9allocatorIcEEEEbxydSA_NS3_14adl_serializerENS6_IhNSA_IhEEEEvEEEESJ_NS_17__synth_three_wayMUlTyTyRKT_RKT0_E_EEEDTclfp3_defp_defp1_EESK_SK_SN_SN_T1_
FNA:2,0,_ZNSt3__133lexicographical_compare_three_wayB8ne200100INS_11__wrap_iterIPKhEES4_NS_17__synth_three_wayMUlTyTyRKT_RKT0_E_EEEDTclfp3_defp_defp1_EES5_S5_S8_S8_T1_
FNA:2,0,_ZNSt3__133lexicographical_compare_three_wayB8ne200100INS_20__map_const_iteratorINS_21__tree_const_iteratorINS_12__value_typeINS_12basic_stringIcNS_11char_traitsIcEENS_9allocatorIcEEEEN8nlohmann16json_abi_v3_11_310basic_jsonINS_3mapENS_6vectorES9_bxydS7_NSB_14adl_serializerENSE_IhNS7_IhEEEEvEEEEPNS_11__tree_nodeISJ_PvEElEEEESP_NS_17__synth_three_wayMUlTyTyRKT_RKT0_E_EEEDTclfp3_defp_defp1_EESQ_SQ_ST_ST_T1_
FNF:3
FNH:0
DA:37,0
DA:49,0
DA:50,0
DA:51,0
DA:53,0
DA:54,0
DA:55,0
DA:56,0
DA:58,0
DA:59,0
DA:60,0
DA:62,0
DA:63,0
DA:67,0
DA:70,0
DA:71,0
DA:72,0
DA:74,0
DA:75,0
DA:76,0
DA:77,0
DA:78,0
DA:79,0
DA:82,0
DA:83,0
DA:84,0
DA:87,0
DA:88,0
DA:90,0
DA:93,0
DA:100,0
DA:103,0
DA:104,0
DA:107,0
DA:108,0
LF:35
LH:0
end_of_record
TN:
SF:/Library/Developer/CommandLineTools/SDKs/MacOSX.sdk/usr/include/c++/v1/__algorithm/make_heap.h
FNL:0,31,42
FNA:0,0,_ZNSt3__111__make_heapB8ne200100INS_17_ClassicAlgPolicyERNS_6__lessIvvEEN8nlohmann16json_abi_v3_11_36detail9iter_implINS6_10basic_jsonINS_3mapENS_6vectorENS_12basic_stringIcNS_11char_traitsIcEENS_9allocatorIcEEEEbxydSF_NS6_14adl_serializerENSB_IhNSF_IhEEEEvEEEEEEvT1_SN_OT0_
FNF:1
FNH:0
DA:31,0
DA:32,0
DA:35,0
DA:36,0
DA:38,0
DA:39,0
DA:40,0
DA:41,0
DA:42,0
LF:9
LH:0
end_of_record
TN:
SF:/Library/Developer/CommandLineTools/SDKs/MacOSX.sdk/usr/include/c++/v1/__algorithm/max.h
FNL:0,29,30
FNA:0,50184,_ZNSt3__13maxB8ne200100ImNS_6__lessIvvEEEERKT_S5_S5_T0_
FNL:1,35,36
FNA:1,50184,_ZNSt3__13maxB8ne200100ImEERKT_S3_S3_
FNF:2
FNH:2
DA:29,50184
DA:30,50184
DA:35,50184
DA:36,50184
LF:4
LH:4
end_of_record
TN:
SF:/Library/Developer/CommandLineTools/SDKs/MacOSX.sdk/usr/include/c++/v1/__algorithm/max_element.h
FNL:0,26,35
FNA:0,0,_ZNSt3__113__max_elementB8ne200100IRNS_6__lessIvvEEN8nlohmann16json_abi_v3_11_36detail9iter_implIKNS5_10basic_jsonINS_3mapENS_6vectorENS_12basic_stringIcNS_11char_traitsIcEENS_9allocatorIcEEEEbxydSE_NS5_14adl_serializerENSA_IhNSE_IhEEEEvEEEEEET0_SN_SN_T_
FNL:1,40,43
FNA:1,0,_ZNSt3__111max_elementB8ne200100IN8nlohmann16json_abi_v3_11_36detail9iter_implIKNS2_10basic_jsonINS_3mapENS_6vectorENS_12basic_stringIcNS_11char_traitsIcEENS_9allocatorIcEEEEbxydSB_NS2_14adl_serializerENS7_IhNSB_IhEEEEvEEEENS_6__lessIvvEEEET_SM_SM_T0_
FNL:2,48,49
FNA:2,0,_ZNSt3__111max_elementB8ne200100IN8nlohmann16json_abi_v3_11_36detail9iter_implIKNS2_10basic_jsonINS_3mapENS_6vectorENS_12basic_stringIcNS_11char_traitsIcEENS_9allocatorIcEEEEbxydSB_NS2_14adl_serializerENS7_IhNSB_IhEEEEvEEEEEET_SK_SK_
FNF:3
FNH:0
DA:26,0
DA:29,0
DA:30,0
DA:31,0
DA:32,0
DA:33,0
DA:34,0
DA:35,0
DA:40,0
DA:43,0
DA:48,0
DA:49,0
LF:12
LH:0
end_of_record
TN:
SF:/Library/Developer/CommandLineTools/SDKs/MacOSX.sdk/usr/include/c++/v1/__algorithm/min.h
FNL:0,29,30
FNA:0,0,_ZNSt3__13minB8ne200100IlNS_6__lessIvvEEEERKT_S5_S5_T0_
FNA:0,586585,_ZNSt3__13minB8ne200100ImNS_6__lessIvvEEEERKT_S5_S5_T0_
FNL:1,35,36
FNA:1,0,_ZNSt3__13minB8ne200100IlEERKT_S3_S3_
FNA:1,586585,_ZNSt3__13minB8ne200100ImEERKT_S3_S3_
FNF:2
FNH:2
DA:29,586585
DA:30,586585
DA:35,586585
DA:36,586585
LF:4
LH:4
end_of_record
TN:
SF:/Library/Developer/CommandLineTools/SDKs/MacOSX.sdk/usr/include/c++/v1/__algorithm/min_element.h
FNL:0,32,42
FNA:0,0,_ZNSt3__113__min_elementB8ne200100IRNS_6__lessIvvEEN8nlohmann16json_abi_v3_11_36detail9iter_implIKNS5_10basic_jsonINS_3mapENS_6vectorENS_12basic_stringIcNS_11char_traitsIcEENS_9allocatorIcEEEEbxydSE_NS5_14adl_serializerENSA_IhNSE_IhEEEEvEEEESM_NS_10__identityEEET0_SO_T1_T_RT2_
FNL:1,45,47
FNA:1,0,_ZNSt3__113__min_elementB8ne200100IRNS_6__lessIvvEEN8nlohmann16json_abi_v3_11_36detail9iter_implIKNS5_10basic_jsonINS_3mapENS_6vectorENS_12basic_stringIcNS_11char_traitsIcEENS_9allocatorIcEEEEbxydSE_NS5_14adl_serializerENSA_IhNSE_IhEEEEvEEEESM_EET0_SN_T1_T_
FNL:2,52,58
FNA:2,0,_ZNSt3__111min_elementB8ne200100IN8nlohmann16json_abi_v3_11_36detail9iter_implIKNS2_10basic_jsonINS_3mapENS_6vectorENS_12basic_stringIcNS_11char_traitsIcEENS_9allocatorIcEEEEbxydSB_NS2_14adl_serializerENS7_IhNSB_IhEEEEvEEEENS_6__lessIvvEEEET_SM_SM_T0_
FNL:3,63,64
FNA:3,0,_ZNSt3__111min_elementB8ne200100IN8nlohmann16json_abi_v3_11_36detail9iter_implIKNS2_10basic_jsonINS_3mapENS_6vectorENS_12basic_stringIcNS_11char_traitsIcEENS_9allocatorIcEEEEbxydSB_NS2_14adl_serializerENS7_IhNSB_IhEEEEvEEEEEET_SK_SK_
FNF:4
FNH:0
DA:32,0
DA:33,0
DA:34,0
DA:36,0
DA:37,0
DA:38,0
DA:39,0
DA:41,0
DA:42,0
DA:45,0
DA:46,0
DA:47,0
DA:52,0
DA:58,0
DA:63,0
DA:64,0
LF:16
LH:0
end_of_record
TN:
SF:/Library/Developer/CommandLineTools/SDKs/MacOSX.sdk/usr/include/c++/v1/__algorithm/move.h
FNL:0,104,105
FNA:0,0,_ZNKSt3__111__move_implINS_17_ClassicAlgPolicyEEclB8ne200100IPNS_10shared_ptrIN4inja12FunctionNodeEEES8_Li0EEENS_4pairIPT_PT0_EESB_SB_SD_
FNA:0,0,_ZNKSt3__111__move_implINS_17_ClassicAlgPolicyEEclB8ne200100IPNS_10unique_ptrIN4dbal8adapters3sql13SqlConnectionENS_14default_deleteIS8_EEEESC_Li0EEENS_4pairIPT_PT0_EESF_SF_SH_
FNA:0,0,_ZNKSt3__111__move_implINS_17_ClassicAlgPolicyEEclB8ne200100IPNS_7__stateIcEES6_Li0EEENS_4pairIPT_PT0_EES9_S9_SB_
FNA:0,0,_ZNKSt3__111__move_implINS_17_ClassicAlgPolicyEEclB8ne200100IPPKN4inja8DataNodeES8_Li0EEENS_4pairIPT_PT0_EESB_SB_SD_
FNA:0,0,_ZNKSt3__111__move_implINS_17_ClassicAlgPolicyEEclB8ne200100IPPKN8nlohmann16json_abi_v3_11_310basic_jsonINS_3mapENS_6vectorENS_12basic_stringIcNS_11char_traitsIcEENS_9allocatorIcEEEEbxydSC_NS5_14adl_serializerENS8_IhNSC_IhEEEEvEESL_Li0EEENS_4pairIPT_PT0_EESO_SO_SQ_
FNA:0,0,_ZNKSt3__111__move_implINS_17_ClassicAlgPolicyEEclB8ne200100IPPN4inja15IfStatementNodeES7_Li0EEENS_4pairIPT_PT0_EESA_SA_SC_
FNA:0,0,_ZNKSt3__111__move_implINS_17_ClassicAlgPolicyEEclB8ne200100IPPN4inja16ForStatementNodeES7_Li0EEENS_4pairIPT_PT0_EESA_SA_SC_
FNA:0,0,_ZNKSt3__111__move_implINS_17_ClassicAlgPolicyEEclB8ne200100IPPN4inja18BlockStatementNodeES7_Li0EEENS_4pairIPT_PT0_EESA_SA_SC_
FNL:1,111,113
FNA:1,5627,_ZNSt3__16__moveB8ne200100INS_17_ClassicAlgPolicyENS_11__wrap_iterIPN8nlohmann16json_abi_v3_11_310basic_jsonINS_3mapENS_6vectorENS_12basic_stringIcNS_11char_traitsIcEENS_9allocatorIcEEEEbxydSB_NS4_14adl_serializerENS7_IhNSB_IhEEEEvEEEESJ_NS_20back_insert_iteratorINS7_ISH_NSB_ISH_EEEEEEEENS_4pairIT0_T2_EESP_T1_SQ_
FNA:1,0,_ZNSt3__16__moveB8ne200100INS_17_ClassicAlgPolicyEPN8nlohmann16json_abi_v3_11_310basic_jsonINS_3mapENS_6vectorENS_12basic_stringIcNS_11char_traitsIcEENS_9allocatorIcEEEEbxydSA_NS3_14adl_serializerENS6_IhNSA_IhEEEEvEESH_SH_EENS_4pairIT0_T2_EESJ_T1_SK_
FNA:1,0,_ZNSt3__16__moveB8ne200100INS_17_ClassicAlgPolicyEPNS_10shared_ptrIN4inja14ExpressionNodeEEES6_S6_EENS_4pairIT0_T2_EES8_T1_S9_
FNA:1,0,_ZNSt3__16__moveB8ne200100INS_17_ClassicAlgPolicyEPPNS_10shared_ptrIN4inja12FunctionNodeEEES7_S7_EENS_4pairIT0_T2_EES9_T1_SA_
FNA:1,0,_ZNSt3__16__moveB8ne200100INS_17_ClassicAlgPolicyEPPNS_10unique_ptrIN4dbal8adapters3sql13SqlConnectionENS_14default_deleteIS6_EEEESB_SB_EENS_4pairIT0_T2_EESD_T1_SE_
FNA:1,0,_ZNSt3__16__moveB8ne200100INS_17_ClassicAlgPolicyEPPNS_7__stateIcEES5_S5_EENS_4pairIT0_T2_EES7_T1_S8_
FNA:1,0,_ZNSt3__16__moveB8ne200100INS_17_ClassicAlgPolicyEPPPKN4inja8DataNodeES7_S7_EENS_4pairIT0_T2_EES9_T1_SA_
FNA:1,0,_ZNSt3__16__moveB8ne200100INS_17_ClassicAlgPolicyEPPPKN8nlohmann16json_abi_v3_11_310basic_jsonINS_3mapENS_6vectorENS_12basic_stringIcNS_11char_traitsIcEENS_9allocatorIcEEEEbxydSA_NS3_14adl_serializerENS6_IhNSA_IhEEEEvEESK_SK_EENS_4pairIT0_T2_EESM_T1_SN_
FNA:1,0,_ZNSt3__16__moveB8ne200100INS_17_ClassicAlgPolicyEPPPN4inja15IfStatementNodeES6_S6_EENS_4pairIT0_T2_EES8_T1_S9_
FNA:1,0,_ZNSt3__16__moveB8ne200100INS_17_ClassicAlgPolicyEPPPN4inja16ForStatementNodeES6_S6_EENS_4pairIT0_T2_EES8_T1_S9_
FNA:1,0,_ZNSt3__16__moveB8ne200100INS_17_ClassicAlgPolicyEPPPN4inja18BlockStatementNodeES6_S6_EENS_4pairIT0_T2_EES8_T1_S9_
FNL:2,118,122
FNA:2,5627,_ZNSt3__14moveB8ne200100INS_11__wrap_iterIPN8nlohmann16json_abi_v3_11_310basic_jsonINS_3mapENS_6vectorENS_12basic_stringIcNS_11char_traitsIcEENS_9allocatorIcEEEEbxydSA_NS3_14adl_serializerENS6_IhNSA_IhEEEEvEEEENS_20back_insert_iteratorINS6_ISG_NSA_ISG_EEEEEEEET0_T_SO_SN_
FNA:2,0,_ZNSt3__14moveB8ne200100IPN8nlohmann16json_abi_v3_11_310basic_jsonINS_3mapENS_6vectorENS_12basic_stringIcNS_11char_traitsIcEENS_9allocatorIcEEEEbxydS9_NS2_14adl_serializerENS5_IhNS9_IhEEEEvEESG_EET0_T_SI_SH_
FNA:2,0,_ZNSt3__14moveB8ne200100IPNS_10shared_ptrIN4inja14ExpressionNodeEEES5_EET0_T_S7_S6_
FNA:2,0,_ZNSt3__14moveB8ne200100IPPNS_10shared_ptrIN4inja12FunctionNodeEEES6_EET0_T_S8_S7_
FNA:2,0,_ZNSt3__14moveB8ne200100IPPNS_10unique_ptrIN4dbal8adapters3sql13SqlConnectionENS_14default_deleteIS5_EEEESA_EET0_T_SC_SB_
FNA:2,0,_ZNSt3__14moveB8ne200100IPPNS_7__stateIcEES4_EET0_T_S6_S5_
FNA:2,0,_ZNSt3__14moveB8ne200100IPPPKN4inja8DataNodeES6_EET0_T_S8_S7_
FNA:2,0,_ZNSt3__14moveB8ne200100IPPPKN8nlohmann16json_abi_v3_11_310basic_jsonINS_3mapENS_6vectorENS_12basic_stringIcNS_11char_traitsIcEENS_9allocatorIcEEEEbxydS9_NS2_14adl_serializerENS5_IhNS9_IhEEEEvEESJ_EET0_T_SL_SK_
FNA:2,0,_ZNSt3__14moveB8ne200100IPPPN4inja15IfStatementNodeES5_EET0_T_S7_S6_
FNA:2,0,_ZNSt3__14moveB8ne200100IPPPN4inja16ForStatementNodeES5_EET0_T_S7_S6_
FNA:2,0,_ZNSt3__14moveB8ne200100IPPPN4inja18BlockStatementNodeES5_EET0_T_S7_S6_
FNL:3,42,48
FNA:3,5627,_ZNKSt3__111__move_implINS_17_ClassicAlgPolicyEEclB8ne200100IPN8nlohmann16json_abi_v3_11_310basic_jsonINS_3mapENS_6vectorENS_12basic_stringIcNS_11char_traitsIcEENS_9allocatorIcEEEEbxydSC_NS5_14adl_serializerENS8_IhNSC_IhEEEEvEESJ_NS_20back_insert_iteratorINS8_ISI_NSC_ISI_EEEEEEEENS_4pairIT_T1_EESP_T0_SQ_
FNA:3,0,_ZNKSt3__111__move_implINS_17_ClassicAlgPolicyEEclB8ne200100IPN8nlohmann16json_abi_v3_11_310basic_jsonINS_3mapENS_6vectorENS_12basic_stringIcNS_11char_traitsIcEENS_9allocatorIcEEEEbxydSC_NS5_14adl_serializerENS8_IhNSC_IhEEEEvEESJ_SJ_EENS_4pairIT_T1_EESL_T0_SM_
FNA:3,0,_ZNKSt3__111__move_implINS_17_ClassicAlgPolicyEEclB8ne200100IPNS_10shared_ptrIN4inja14ExpressionNodeEEES8_S8_EENS_4pairIT_T1_EESA_T0_SB_
FNF:4
FNH:3
DA:42,5627
DA:43,14167
DA:44,8540
DA:45,8540
DA:46,8540
DA:48,5627
DA:104,0
DA:105,0
DA:111,5627
DA:112,5627
DA:113,5627
DA:118,5627
DA:122,5627
LF:13
LH:11
end_of_record
TN:
SF:/Library/Developer/CommandLineTools/SDKs/MacOSX.sdk/usr/include/c++/v1/__algorithm/move_backward.h
FNL:0,113,114
FNA:0,0,_ZNKSt3__120__move_backward_implINS_17_ClassicAlgPolicyEEclB8ne200100IPNS_10shared_ptrIN4inja12FunctionNodeEEES8_Li0EEENS_4pairIPT_PT0_EESB_SB_SD_
FNA:0,0,_ZNKSt3__120__move_backward_implINS_17_ClassicAlgPolicyEEclB8ne200100IPNS_10unique_ptrIN4dbal8adapters3sql13SqlConnectionENS_14default_deleteIS8_EEEESC_Li0EEENS_4pairIPT_PT0_EESF_SF_SH_
FNA:0,0,_ZNKSt3__120__move_backward_implINS_17_ClassicAlgPolicyEEclB8ne200100IPNS_7__stateIcEES6_Li0EEENS_4pairIPT_PT0_EES9_S9_SB_
FNA:0,0,_ZNKSt3__120__move_backward_implINS_17_ClassicAlgPolicyEEclB8ne200100IPPKN4inja8DataNodeES8_Li0EEENS_4pairIPT_PT0_EESB_SB_SD_
FNA:0,0,_ZNKSt3__120__move_backward_implINS_17_ClassicAlgPolicyEEclB8ne200100IPPKN8nlohmann16json_abi_v3_11_310basic_jsonINS_3mapENS_6vectorENS_12basic_stringIcNS_11char_traitsIcEENS_9allocatorIcEEEEbxydSC_NS5_14adl_serializerENS8_IhNSC_IhEEEEvEESL_Li0EEENS_4pairIPT_PT0_EESO_SO_SQ_
FNA:0,0,_ZNKSt3__120__move_backward_implINS_17_ClassicAlgPolicyEEclB8ne200100IPPN4inja15IfStatementNodeES7_Li0EEENS_4pairIPT_PT0_EESA_SA_SC_
FNA:0,0,_ZNKSt3__120__move_backward_implINS_17_ClassicAlgPolicyEEclB8ne200100IPPN4inja16ForStatementNodeES7_Li0EEENS_4pairIPT_PT0_EESA_SA_SC_
FNA:0,0,_ZNKSt3__120__move_backward_implINS_17_ClassicAlgPolicyEEclB8ne200100IPPN4inja18BlockStatementNodeES7_Li0EEENS_4pairIPT_PT0_EESA_SA_SC_
FNL:1,120,126
FNA:1,0,_ZNSt3__115__move_backwardB8ne200100INS_17_ClassicAlgPolicyEPNS_10shared_ptrIN4inja14ExpressionNodeEEES6_S6_EENS_4pairIT0_T2_EES8_T1_S9_
FNA:1,0,_ZNSt3__115__move_backwardB8ne200100INS_17_ClassicAlgPolicyEPPNS_10shared_ptrIN4inja12FunctionNodeEEES7_S7_EENS_4pairIT0_T2_EES9_T1_SA_
FNA:1,0,_ZNSt3__115__move_backwardB8ne200100INS_17_ClassicAlgPolicyEPPNS_10unique_ptrIN4dbal8adapters3sql13SqlConnectionENS_14default_deleteIS6_EEEESB_SB_EENS_4pairIT0_T2_EESD_T1_SE_
FNA:1,0,_ZNSt3__115__move_backwardB8ne200100INS_17_ClassicAlgPolicyEPPNS_7__stateIcEES5_S5_EENS_4pairIT0_T2_EES7_T1_S8_
FNA:1,0,_ZNSt3__115__move_backwardB8ne200100INS_17_ClassicAlgPolicyEPPPKN4inja8DataNodeES7_S7_EENS_4pairIT0_T2_EES9_T1_SA_
FNA:1,0,_ZNSt3__115__move_backwardB8ne200100INS_17_ClassicAlgPolicyEPPPKN8nlohmann16json_abi_v3_11_310basic_jsonINS_3mapENS_6vectorENS_12basic_stringIcNS_11char_traitsIcEENS_9allocatorIcEEEEbxydSA_NS3_14adl_serializerENS6_IhNSA_IhEEEEvEESK_SK_EENS_4pairIT0_T2_EESM_T1_SN_
FNA:1,0,_ZNSt3__115__move_backwardB8ne200100INS_17_ClassicAlgPolicyEPPPN4inja15IfStatementNodeES6_S6_EENS_4pairIT0_T2_EES8_T1_S9_
FNA:1,0,_ZNSt3__115__move_backwardB8ne200100INS_17_ClassicAlgPolicyEPPPN4inja16ForStatementNodeES6_S6_EENS_4pairIT0_T2_EES8_T1_S9_
FNA:1,0,_ZNSt3__115__move_backwardB8ne200100INS_17_ClassicAlgPolicyEPPPN4inja18BlockStatementNodeES6_S6_EENS_4pairIT0_T2_EES8_T1_S9_
FNL:2,131,132
FNA:2,0,_ZNSt3__113move_backwardB8ne200100IPNS_10shared_ptrIN4inja14ExpressionNodeEEES5_EET0_T_S7_S6_
FNA:2,0,_ZNSt3__113move_backwardB8ne200100IPPNS_10shared_ptrIN4inja12FunctionNodeEEES6_EET0_T_S8_S7_
FNA:2,0,_ZNSt3__113move_backwardB8ne200100IPPNS_10unique_ptrIN4dbal8adapters3sql13SqlConnectionENS_14default_deleteIS5_EEEESA_EET0_T_SC_SB_
FNA:2,0,_ZNSt3__113move_backwardB8ne200100IPPNS_7__stateIcEES4_EET0_T_S6_S5_
FNA:2,0,_ZNSt3__113move_backwardB8ne200100IPPPKN4inja8DataNodeES6_EET0_T_S8_S7_
FNA:2,0,_ZNSt3__113move_backwardB8ne200100IPPPKN8nlohmann16json_abi_v3_11_310basic_jsonINS_3mapENS_6vectorENS_12basic_stringIcNS_11char_traitsIcEENS_9allocatorIcEEEEbxydS9_NS2_14adl_serializerENS5_IhNS9_IhEEEEvEESJ_EET0_T_SL_SK_
FNA:2,0,_ZNSt3__113move_backwardB8ne200100IPPPN4inja15IfStatementNodeES5_EET0_T_S7_S6_
FNA:2,0,_ZNSt3__113move_backwardB8ne200100IPPPN4inja16ForStatementNodeES5_EET0_T_S7_S6_
FNA:2,0,_ZNSt3__113move_backwardB8ne200100IPPPN4inja18BlockStatementNodeES5_EET0_T_S7_S6_
FNL:3,41,49
FNA:3,0,_ZNKSt3__120__move_backward_implINS_17_ClassicAlgPolicyEEclB8ne200100IPNS_10shared_ptrIN4inja14ExpressionNodeEEES8_S8_EENS_4pairIT_T1_EESA_T0_SB_
FNF:4
FNH:0
DA:41,0
DA:42,0
DA:43,0
DA:45,0
DA:46,0
DA:49,0
DA:113,0
DA:114,0
DA:120,0
DA:125,0
DA:126,0
DA:131,0
DA:132,0
LF:13
LH:0
end_of_record
TN:
SF:/Library/Developer/CommandLineTools/SDKs/MacOSX.sdk/usr/include/c++/v1/__algorithm/partial_sort.h
FNL:0,35,54
FNA:0,0,_ZNSt3__119__partial_sort_implB8ne200100INS_17_ClassicAlgPolicyERNS_6__lessIvvEEN8nlohmann16json_abi_v3_11_36detail9iter_implINS6_10basic_jsonINS_3mapENS_6vectorENS_12basic_stringIcNS_11char_traitsIcEENS_9allocatorIcEEEEbxydSF_NS6_14adl_serializerENSB_IhNSF_IhEEEEvEEEESM_EET1_SN_SN_T2_OT0_
FNL:1,58,70
FNA:1,0,_ZNSt3__114__partial_sortB8ne200100INS_17_ClassicAlgPolicyERNS_6__lessIvvEEN8nlohmann16json_abi_v3_11_36detail9iter_implINS6_10basic_jsonINS_3mapENS_6vectorENS_12basic_stringIcNS_11char_traitsIcEENS_9allocatorIcEEEEbxydSF_NS6_14adl_serializerENSB_IhNSF_IhEEEEvEEEESM_EET1_SN_SN_T2_RT0_
FNF:2
FNH:0
DA:35,0
DA:37,0
DA:38,0
DA:41,0
DA:43,0
DA:44,0
DA:45,0
DA:46,0
DA:47,0
DA:48,0
DA:49,0
DA:50,0
DA:51,0
DA:53,0
DA:54,0
DA:58,0
DA:59,0
DA:60,0
DA:62,0
DA:65,0
DA:67,0
DA:69,0
DA:70,0
LF:23
LH:0
end_of_record
TN:
SF:/Library/Developer/CommandLineTools/SDKs/MacOSX.sdk/usr/include/c++/v1/__algorithm/pop_heap.h
FNL:0,35,59
FNA:0,0,_ZNSt3__110__pop_heapB8ne200100INS_17_ClassicAlgPolicyENS_6__lessIvvEEN8nlohmann16json_abi_v3_11_36detail9iter_implINS5_10basic_jsonINS_3mapENS_6vectorENS_12basic_stringIcNS_11char_traitsIcEENS_9allocatorIcEEEEbxydSE_NS5_14adl_serializerENSA_IhNSE_IhEEEEvEEEEEEvT1_SM_RT0_NS_15iterator_traitsISM_E15difference_typeE
FNF:1
FNH:0
DA:35,0
DA:42,0
DA:45,0
DA:46,0
DA:47,0
DA:48,0
DA:50,0
DA:51,0
DA:52,0
DA:53,0
DA:54,0
DA:55,0
DA:56,0
DA:58,0
DA:59,0
LF:15
LH:0
end_of_record
TN:
SF:/Library/Developer/CommandLineTools/SDKs/MacOSX.sdk/usr/include/c++/v1/__algorithm/push_heap.h
FNL:0,32,56
FNA:0,0,_ZNSt3__19__sift_upB8ne200100INS_17_ClassicAlgPolicyERNS_6__lessIvvEEN8nlohmann16json_abi_v3_11_36detail9iter_implINS6_10basic_jsonINS_3mapENS_6vectorENS_12basic_stringIcNS_11char_traitsIcEENS_9allocatorIcEEEEbxydSF_NS6_14adl_serializerENSB_IhNSF_IhEEEEvEEEEEEvT1_SN_OT0_NS_15iterator_traitsISN_E15difference_typeE
FNF:1
FNH:0
DA:32,0
DA:38,0
DA:39,0
DA:40,0
DA:42,0
DA:43,0
DA:44,0
DA:45,0
DA:46,0
DA:47,0
DA:48,0
DA:49,0
DA:50,0
DA:51,0
DA:53,0
DA:54,0
DA:55,0
DA:56,0
LF:18
LH:0
end_of_record
TN:
SF:/Library/Developer/CommandLineTools/SDKs/MacOSX.sdk/usr/include/c++/v1/__algorithm/search.h
FNL:0,130,143
FNA:0,0,_ZNSt3__113__search_implB8ne200100IPKcS2_PcS3_NS_10__equal_toENS_10__identityES5_Li0EEENS_4pairIT_S7_EES7_T0_T1_T2_RT3_RT4_RT5_
FNL:1,164,172
FNA:1,0,_ZNSt3__16searchB8ne200100IPKcPcNS_10__equal_toEEET_S5_S5_T0_S6_T1_
FNL:2,177,178
FNA:2,0,_ZNSt3__16searchB8ne200100IPKcPcEET_S4_S4_T0_S5_
FNL:3,83,118
FNA:3,0,_ZNSt3__127__search_random_access_implB8ne200100INS_17_ClassicAlgPolicyEPKcS3_PcS4_NS_10__equal_toENS_10__identityES6_llEENS_4pairIT0_S8_EES8_T1_T2_T3_RT4_RT5_RT6_T7_T8_
FNF:4
FNH:0
DA:83,0
DA:93,0
DA:95,0
DA:96,0
DA:97,0
DA:98,0
DA:99,0
DA:101,0
DA:102,0
DA:103,0
DA:106,0
DA:107,0
DA:108,0
DA:109,0
DA:110,0
DA:111,0
DA:112,0
DA:113,0
DA:114,0
DA:118,0
DA:130,0
DA:132,0
DA:133,0
DA:134,0
DA:136,0
DA:137,0
DA:138,0
DA:141,0
DA:142,0
DA:143,0
DA:164,0
DA:171,0
DA:172,0
DA:177,0
DA:178,0
LF:35
LH:0
end_of_record
TN:
SF:/Library/Developer/CommandLineTools/SDKs/MacOSX.sdk/usr/include/c++/v1/__algorithm/sift_down.h
FNL:0,29,80
FNA:0,0,_ZNSt3__111__sift_downB8ne200100INS_17_ClassicAlgPolicyERNS_6__lessIvvEEN8nlohmann16json_abi_v3_11_36detail9iter_implINS6_10basic_jsonINS_3mapENS_6vectorENS_12basic_stringIcNS_11char_traitsIcEENS_9allocatorIcEEEEbxydSF_NS6_14adl_serializerENSB_IhNSF_IhEEEEvEEEEEEvT1_OT0_NS_15iterator_traitsISN_E15difference_typeESN_
FNL:1,83,112
FNA:1,0,_ZNSt3__117__floyd_sift_downB8ne200100INS_17_ClassicAlgPolicyERNS_6__lessIvvEEN8nlohmann16json_abi_v3_11_36detail9iter_implINS6_10basic_jsonINS_3mapENS_6vectorENS_12basic_stringIcNS_11char_traitsIcEENS_9allocatorIcEEEEbxydSF_NS6_14adl_serializerENSB_IhNSF_IhEEEEvEEEEEET1_SN_OT0_NS_15iterator_traitsISN_E15difference_typeE
FNF:2
FNH:0
DA:29,0
DA:39,0
DA:41,0
DA:42,0
DA:44,0
DA:45,0
DA:47,0
DA:49,0
DA:50,0
DA:51,0
DA:54,0
DA:56,0
DA:58,0
DA:59,0
DA:61,0
DA:62,0
DA:64,0
DA:65,0
DA:68,0
DA:69,0
DA:71,0
DA:73,0
DA:74,0
DA:75,0
DA:78,0
DA:79,0
DA:80,0
DA:83,0
DA:90,0
DA:91,0
DA:92,0
DA:94,0
DA:95,0
DA:96,0
DA:98,0
DA:100,0
DA:101,0
DA:102,0
DA:105,0
DA:106,0
DA:109,0
DA:110,0
DA:112,0
LF:43
LH:0
end_of_record
TN:
SF:/Library/Developer/CommandLineTools/SDKs/MacOSX.sdk/usr/include/c++/v1/__algorithm/sort.h
FNL:0,112,135
FNA:0,0,_ZNSt3__17__sort3B8ne200100INS_17_ClassicAlgPolicyERNS_6__lessIvvEEN8nlohmann16json_abi_v3_11_36detail9iter_implINS6_10basic_jsonINS_3mapENS_6vectorENS_12basic_stringIcNS_11char_traitsIcEENS_9allocatorIcEEEEbxydSF_NS6_14adl_serializerENSB_IhNSF_IhEEEEvEEEELi0EEEbT1_SN_SN_T0_
FNL:1,161,177
FNA:1,0,_ZNSt3__17__sort4B8ne200100INS_17_ClassicAlgPolicyERNS_6__lessIvvEEN8nlohmann16json_abi_v3_11_36detail9iter_implINS6_10basic_jsonINS_3mapENS_6vectorENS_12basic_stringIcNS_11char_traitsIcEENS_9allocatorIcEEEEbxydSF_NS6_14adl_serializerENSB_IhNSF_IhEEEEvEEEELi0EEEvT1_SN_SN_SN_T0_
FNL:2,205,226
FNA:2,0,_ZNSt3__17__sort5B8ne200100INS_17_ClassicAlgPolicyERNS_6__lessIvvEEN8nlohmann16json_abi_v3_11_36detail9iter_implINS6_10basic_jsonINS_3mapENS_6vectorENS_12basic_stringIcNS_11char_traitsIcEENS_9allocatorIcEEEEbxydSF_NS6_14adl_serializerENSB_IhNSF_IhEEEEvEEEELi0EEEvT1_SN_SN_SN_SN_T0_
FNL:3,244,265
FNA:3,0,_ZNSt3__116__insertion_sortB8ne200100INS_17_ClassicAlgPolicyERNS_6__lessIvvEEN8nlohmann16json_abi_v3_11_36detail9iter_implINS6_10basic_jsonINS_3mapENS_6vectorENS_12basic_stringIcNS_11char_traitsIcEENS_9allocatorIcEEEEbxydSF_NS6_14adl_serializerENSB_IhNSF_IhEEEEvEEEEEEvT1_SN_T0_
FNL:4,274,298
FNA:4,0,_ZNSt3__126__insertion_sort_unguardedB8ne200100INS_17_ClassicAlgPolicyERNS_6__lessIvvEEN8nlohmann16json_abi_v3_11_36detail9iter_implINS6_10basic_jsonINS_3mapENS_6vectorENS_12basic_stringIcNS_11char_traitsIcEENS_9allocatorIcEEEEbxydSF_NS6_14adl_serializerENSB_IhNSF_IhEEEEvEEEEEEvT1_SN_T0_
FNL:5,302,352
FNA:5,0,_ZNSt3__127__insertion_sort_incompleteB8ne200100INS_17_ClassicAlgPolicyERNS_6__lessIvvEEN8nlohmann16json_abi_v3_11_36detail9iter_implINS6_10basic_jsonINS_3mapENS_6vectorENS_12basic_stringIcNS_11char_traitsIcEENS_9allocatorIcEEEEbxydSF_NS6_14adl_serializerENSB_IhNSF_IhEEEEvEEEEEEbT1_SN_T0_
FNL:6,355,368
FNA:6,0,_ZNSt3__117__swap_bitmap_posB8ne200100INS_17_ClassicAlgPolicyEN8nlohmann16json_abi_v3_11_36detail9iter_implINS3_10basic_jsonINS_3mapENS_6vectorENS_12basic_stringIcNS_11char_traitsIcEENS_9allocatorIcEEEEbxydSC_NS3_14adl_serializerENS8_IhNSC_IhEEEEvEEEEEEvT0_SK_RySL_
FNL:7,374,384
FNA:7,0,_ZNSt3__122__populate_left_bitsetB8ne200100IRNS_6__lessIvvEEN8nlohmann16json_abi_v3_11_36detail9iter_implINS5_10basic_jsonINS_3mapENS_6vectorENS_12basic_stringIcNS_11char_traitsIcEENS_9allocatorIcEEEEbxydSE_NS5_14adl_serializerENSA_IhNSE_IhEEEEvEEEESK_EEvT0_T_RT1_Ry
FNL:8,390,400
FNA:8,0,_ZNSt3__123__populate_right_bitsetB8ne200100IRNS_6__lessIvvEEN8nlohmann16json_abi_v3_11_36detail9iter_implINS5_10basic_jsonINS_3mapENS_6vectorENS_12basic_stringIcNS_11char_traitsIcEENS_9allocatorIcEEEEbxydSE_NS5_14adl_serializerENSA_IhNSE_IhEEEEvEEEESK_EEvT0_T_RT1_Ry
FNL:9,406,450
FNA:9,0,_ZNSt3__133__bitset_partition_partial_blocksB8ne200100INS_17_ClassicAlgPolicyERNS_6__lessIvvEEN8nlohmann16json_abi_v3_11_36detail9iter_implINS6_10basic_jsonINS_3mapENS_6vectorENS_12basic_stringIcNS_11char_traitsIcEENS_9allocatorIcEEEEbxydSF_NS6_14adl_serializerENSB_IhNSF_IhEEEEvEEEESL_EEvRT1_SO_T0_RT2_RySS_
FNL:10,453,483
FNA:10,0,_ZNSt3__124__swap_bitmap_pos_withinB8ne200100INS_17_ClassicAlgPolicyEN8nlohmann16json_abi_v3_11_36detail9iter_implINS3_10basic_jsonINS_3mapENS_6vectorENS_12basic_stringIcNS_11char_traitsIcEENS_9allocatorIcEEEEbxydSC_NS3_14adl_serializerENS8_IhNSC_IhEEEEvEEEEEEvRT0_SL_RySM_
FNL:11,495,578
FNA:11,0,_ZNSt3__118__bitset_partitionB8ne200100INS_17_ClassicAlgPolicyEN8nlohmann16json_abi_v3_11_36detail9iter_implINS3_10basic_jsonINS_3mapENS_6vectorENS_12basic_stringIcNS_11char_traitsIcEENS_9allocatorIcEEEEbxydSC_NS3_14adl_serializerENS8_IhNSC_IhEEEEvEEEERNS_6__lessIvvEEEENS_4pairIT0_bEESO_SO_T1_
FNL:12,587,649
FNA:12,0,_ZNSt3__132__partition_with_equals_on_rightB8ne200100INS_17_ClassicAlgPolicyEN8nlohmann16json_abi_v3_11_36detail9iter_implINS3_10basic_jsonINS_3mapENS_6vectorENS_12basic_stringIcNS_11char_traitsIcEENS_9allocatorIcEEEEbxydSC_NS3_14adl_serializerENS8_IhNSC_IhEEEEvEEEERNS_6__lessIvvEEEENS_4pairIT0_bEESO_SO_T1_
FNL:13,655,707
FNA:13,0,_ZNSt3__131__partition_with_equals_on_leftB8ne200100INS_17_ClassicAlgPolicyEN8nlohmann16json_abi_v3_11_36detail9iter_implINS3_10basic_jsonINS_3mapENS_6vectorENS_12basic_stringIcNS_11char_traitsIcEENS_9allocatorIcEEEEbxydSC_NS3_14adl_serializerENS8_IhNSC_IhEEEEvEEEERNS_6__lessIvvEEEET0_SN_SN_T1_
FNL:14,717,829
FNA:14,0,_ZNSt3__111__introsortINS_17_ClassicAlgPolicyERNS_6__lessIvvEEN8nlohmann16json_abi_v3_11_36detail9iter_implINS6_10basic_jsonINS_3mapENS_6vectorENS_12basic_stringIcNS_11char_traitsIcEENS_9allocatorIcEEEEbxydSF_NS6_14adl_serializerENSB_IhNSF_IhEEEEvEEEELb0EEEvT1_SN_T0_NS_15iterator_traitsISN_E15difference_typeEb
FNL:15,832,848
FNA:15,0,_ZNSt3__17__log2iB8ne200100IlEET_S1_
FNL:16,881,890
FNA:16,0,_ZNSt3__115__sort_dispatchB8ne200100INS_17_ClassicAlgPolicyEN8nlohmann16json_abi_v3_11_36detail9iter_implINS3_10basic_jsonINS_3mapENS_6vectorENS_12basic_stringIcNS_11char_traitsIcEENS_9allocatorIcEEEEbxydSC_NS3_14adl_serializerENS8_IhNSC_IhEEEEvEEEENS_6__lessIvvEEEEvT0_SM_RT1_
FNL:17,946,956
FNA:17,0,_ZNSt3__111__sort_implB8ne200100INS_17_ClassicAlgPolicyEN8nlohmann16json_abi_v3_11_36detail9iter_implINS3_10basic_jsonINS_3mapENS_6vectorENS_12basic_stringIcNS_11char_traitsIcEENS_9allocatorIcEEEEbxydSC_NS3_14adl_serializerENS8_IhNSC_IhEEEEvEEEENS_6__lessIvvEEEEvT0_SM_RT1_
FNL:18,960,962
FNA:18,0,_ZNSt3__14sortB8ne200100IN8nlohmann16json_abi_v3_11_36detail9iter_implINS2_10basic_jsonINS_3mapENS_6vectorENS_12basic_stringIcNS_11char_traitsIcEENS_9allocatorIcEEEEbxydSB_NS2_14adl_serializerENS7_IhNSB_IhEEEEvEEEENS_6__lessIvvEEEEvT_SL_T0_
FNL:19,966,968
FNA:19,0,_ZNSt3__14sortB8ne200100IN8nlohmann16json_abi_v3_11_36detail9iter_implINS2_10basic_jsonINS_3mapENS_6vectorENS_12basic_stringIcNS_11char_traitsIcEENS_9allocatorIcEEEEbxydSB_NS2_14adl_serializerENS7_IhNSB_IhEEEEvEEEEEEvT_SJ_
FNF:20
FNH:0
DA:112,0
DA:115,0
DA:117,0
DA:118,0
DA:120,0
DA:121,0
DA:122,0
DA:123,0
DA:125,0
DA:127,0
DA:128,0
DA:130,0
DA:132,0
DA:133,0
DA:134,0
DA:135,0
DA:161,0
DA:167,0
DA:168,0
DA:169,0
DA:170,0
DA:171,0
DA:172,0
DA:173,0
DA:174,0
DA:175,0
DA:176,0
DA:177,0
DA:205,0
DA:213,0
DA:214,0
DA:215,0
DA:216,0
DA:217,0
DA:218,0
DA:219,0
DA:220,0
DA:221,0
DA:222,0
DA:223,0
DA:224,0
DA:225,0
DA:226,0
DA:244,0
DA:248,0
DA:249,0
DA:250,0
DA:251,0
DA:252,0
DA:253,0
DA:254,0
DA:255,0
DA:256,0
DA:257,0
DA:258,0
DA:259,0
DA:260,0
DA:261,0
DA:262,0
DA:263,0
DA:264,0
DA:265,0
DA:274,0
DA:278,0
DA:279,0
DA:280,0
DA:282,0
DA:283,0
DA:284,0
DA:285,0
DA:286,0
DA:287,0
DA:288,0
DA:289,0
DA:290,0
DA:294,0
DA:295,0
DA:296,0
DA:297,0
DA:298,0
DA:302,0
DA:306,0
DA:309,0
DA:311,0
DA:312,0
DA:313,0
DA:315,0
DA:316,0
DA:318,0
DA:319,0
DA:320,0
DA:322,0
DA:323,0
DA:324,0
DA:325,0
DA:326,0
DA:327,0
DA:328,0
DA:329,0
DA:332,0
DA:333,0
DA:334,0
DA:335,0
DA:336,0
DA:337,0
DA:338,0
DA:339,0
DA:340,0
DA:341,0
DA:342,0
DA:343,0
DA:344,0
DA:345,0
DA:346,0
DA:347,0
DA:348,0
DA:349,0
DA:350,0
DA:351,0
DA:352,0
DA:355,0
DA:361,0
DA:362,0
DA:363,0
DA:364,0
DA:365,0
DA:366,0
DA:368,0
DA:374,0
DA:377,0
DA:378,0
DA:379,0
DA:380,0
DA:381,0
DA:382,0
DA:384,0
DA:390,0
DA:393,0
DA:394,0
DA:395,0
DA:396,0
DA:397,0
DA:398,0
DA:400,0
DA:406,0
DA:414,0
DA:417,0
DA:418,0
DA:419,0
DA:420,0
DA:422,0
DA:423,0
DA:424,0
DA:425,0
DA:426,0
DA:429,0
DA:430,0
DA:431,0
DA:432,0
DA:433,0
DA:434,0
DA:435,0
DA:436,0
DA:439,0
DA:440,0
DA:441,0
DA:442,0
DA:443,0
DA:444,0
DA:445,0
DA:446,0
DA:447,0
DA:448,0
DA:449,0
DA:450,0
DA:453,0
DA:457,0
DA:460,0
DA:461,0
DA:462,0
DA:463,0
DA:464,0
DA:465,0
DA:466,0
DA:467,0
DA:469,0
DA:470,0
DA:473,0
DA:474,0
DA:475,0
DA:476,0
DA:477,0
DA:478,0
DA:479,0
DA:480,0
DA:482,0
DA:483,0
DA:495,0
DA:500,0
DA:501,0
DA:504,0
DA:506,0
DA:508,0
DA:509,0
DA:513,0
DA:514,0
DA:515,0
DA:519,0
DA:522,0
DA:526,0
DA:527,0
DA:528,0
DA:533,0
DA:534,0
DA:535,0
DA:536,0
DA:537,0
DA:541,0
DA:542,0
DA:543,0
DA:546,0
DA:549,0
DA:550,0
DA:553,0
DA:554,0
DA:557,0
DA:560,0
DA:561,0
DA:565,0
DA:566,0
DA:569,0
DA:572,0
DA:573,0
DA:574,0
DA:575,0
DA:576,0
DA:577,0
DA:578,0
DA:587,0
DA:592,0
DA:593,0
DA:595,0
DA:599,0
DA:600,0
DA:604,0
DA:607,0
DA:608,0
DA:610,0
DA:612,0
DA:616,0
DA:617,0
DA:623,0
DA:627,0
DA:628,0
DA:629,0
DA:630,0
DA:634,0
DA:635,0
DA:639,0
DA:640,0
DA:643,0
DA:644,0
DA:645,0
DA:646,0
DA:647,0
DA:648,0
DA:649,0
DA:655,0
DA:659,0
DA:660,0
DA:662,0
DA:663,0
DA:665,0
DA:666,0
DA:670,0
DA:671,0
DA:672,0
DA:676,0
DA:679,0
DA:683,0
DA:684,0
DA:685,0
DA:686,0
DA:687,0
DA:688,0
DA:689,0
DA:693,0
DA:694,0
DA:698,0
DA:699,0
DA:701,0
DA:702,0
DA:703,0
DA:704,0
DA:705,0
DA:706,0
DA:707,0
DA:717,0
DA:726,0
DA:728,0
DA:729,0
DA:730,0
DA:731,0
DA:734,0
DA:736,0
DA:737,0
DA:738,0
DA:740,0
DA:741,0
DA:743,0
DA:744,0
DA:745,0
DA:747,0
DA:748,0
DA:749,0
DA:750,0
DA:751,0
DA:752,0
DA:753,0
DA:754,0
DA:757,0
DA:758,0
DA:759,0
DA:760,0
DA:761,0
DA:763,0
DA:765,0
DA:767,0
DA:768,0
DA:770,0
DA:772,0
DA:775,0
DA:776,0
DA:777,0
DA:778,0
DA:779,0
DA:780,0
DA:781,0
DA:782,0
DA:783,0
DA:784,0
DA:785,0
DA:796,0
DA:797,0
DA:798,0
DA:799,0
DA:802,0
DA:803,0
DA:804,0
DA:805,0
DA:806,0
DA:809,0
DA:810,0
DA:811,0
DA:812,0
DA:813,0
DA:814,0
DA:815,0
DA:817,0
DA:818,0
DA:819,0
DA:822,0
DA:824,0
DA:825,0
DA:826,0
DA:827,0
DA:829,0
DA:832,0
DA:833,0
DA:834,0
DA:838,0
DA:848,0
DA:881,0
DA:883,0
DA:888,0
DA:889,0
DA:890,0
DA:946,0
DA:947,0
DA:953,0
DA:955,0
DA:956,0
DA:960,0
DA:961,0
DA:962,0
DA:966,0
DA:967,0
DA:968,0
LF:388
LH:0
end_of_record
TN:
SF:/Library/Developer/CommandLineTools/SDKs/MacOSX.sdk/usr/include/c++/v1/__algorithm/sort_heap.h
FNL:0,34,42
FNA:0,0,_ZNSt3__111__sort_heapB8ne200100INS_17_ClassicAlgPolicyERNS_6__lessIvvEEN8nlohmann16json_abi_v3_11_36detail9iter_implINS6_10basic_jsonINS_3mapENS_6vectorENS_12basic_stringIcNS_11char_traitsIcEENS_9allocatorIcEEEEbxydSF_NS6_14adl_serializerENSB_IhNSF_IhEEEEvEEEEEEvT1_SN_OT0_
FNF:1
FNH:0
DA:34,0
DA:35,0
DA:36,0
DA:39,0
DA:40,0
DA:41,0
DA:42,0
LF:7
LH:0
end_of_record
TN:
SF:/Library/Developer/CommandLineTools/SDKs/MacOSX.sdk/usr/include/c++/v1/__algorithm/transform.h
FNL:0,22,25
FNA:0,212,_ZNSt3__19transformB8ne200100INS_11__wrap_iterIPcEES3_PFiiEEET0_T_S7_S6_T1_
FNA:0,0,_ZNSt3__19transformB8ne200100INS_11__wrap_iterIPcEES3_ZN4dbal4core19ConnectionValidator15extractProtocolERKNS_12basic_stringIcNS_11char_traitsIcEENS_9allocatorIcEEEEE3$_0EET0_T_SH_SG_T1_
FNA:0,1141,_ZNSt3__19transformB8ne200100INS_11__wrap_iterIPcEES3_ZN4dbal8adapters12SchemaLoader17loadFromDirectoryERKNS_12basic_stringIcNS_11char_traitsIcEENS_9allocatorIcEEEEEUlhE_EET0_T_SH_SG_T1_
FNA:0,57,_ZNSt3__19transformB8ne200100INS_11__wrap_iterIPcEES3_ZN4dbal8adapters3sql10SqlAdapter11loadSchemasEvE3$_0EET0_T_SA_S9_T1_
FNA:0,0,_ZNSt3__19transformB8ne200100INS_11__wrap_iterIPcEES3_ZN4inja8Renderer5visitERKNS4_12FunctionNodeEEUlcE0_EET0_T_SB_SA_T1_
FNA:0,0,_ZNSt3__19transformB8ne200100INS_11__wrap_iterIPcEES3_ZN4inja8Renderer5visitERKNS4_12FunctionNodeEEUlcE1_EET0_T_SB_SA_T1_
FNA:0,0,_ZNSt3__19transformB8ne200100INS_11__wrap_iterIPcEES3_ZN4inja8Renderer5visitERKNS4_12FunctionNodeEEUlcE_EET0_T_SB_SA_T1_
FNA:0,0,_ZNSt3__19transformB8ne200100INS_11__wrap_iterIPcEES3_ZNK4dbal4core19ClientConfigManager12validateModeEvE3$_0EET0_T_S9_S8_T1_
FNF:1
FNH:1
DA:22,1410
DA:23,14909
DA:24,13499
DA:25,1410
LF:4
LH:4
end_of_record
TN:
SF:/Library/Developer/CommandLineTools/SDKs/MacOSX.sdk/usr/include/c++/v1/__algorithm/unwrap_iter.h
FNL:0,39,39
FNA:0,0,_ZNSt3__118__unwrap_iter_implIN8nlohmann16json_abi_v3_11_36detail9iter_implIKNS2_10basic_jsonINS_3mapENS_6vectorENS_12basic_stringIcNS_11char_traitsIcEENS_9allocatorIcEEEEbxydSB_NS2_14adl_serializerENS7_IhNSB_IhEEEEvEEEELb0EE8__rewrapB8ne200100ESJ_SJ_
FNA:0,330,_ZNSt3__118__unwrap_iter_implINS_14__bit_iteratorINS_6vectorIbNS_9allocatorIbEEEELb0ELm0EEELb0EE8__rewrapB8ne200100ES6_S6_
FNA:0,5627,_ZNSt3__118__unwrap_iter_implINS_20back_insert_iteratorINS_6vectorIN8nlohmann16json_abi_v3_11_310basic_jsonINS_3mapES2_NS_12basic_stringIcNS_11char_traitsIcEENS_9allocatorIcEEEEbxydSA_NS4_14adl_serializerENS2_IhNSA_IhEEEEvEENSA_ISG_EEEEEELb0EE8__rewrapB8ne200100ESJ_SJ_
FNL:1,40,40
FNA:1,0,_ZNSt3__118__unwrap_iter_implIN8nlohmann16json_abi_v3_11_36detail9iter_implIKNS2_10basic_jsonINS_3mapENS_6vectorENS_12basic_stringIcNS_11char_traitsIcEENS_9allocatorIcEEEEbxydSB_NS2_14adl_serializerENS7_IhNSB_IhEEEEvEEEELb0EE8__unwrapB8ne200100ESJ_
FNA:1,0,_ZNSt3__118__unwrap_iter_implIN8nlohmann16json_abi_v3_11_36detail9iter_implINS2_10basic_jsonINS_3mapENS_6vectorENS_12basic_stringIcNS_11char_traitsIcEENS_9allocatorIcEEEEbxydSB_NS2_14adl_serializerENS7_IhNSB_IhEEEEvEEEELb0EE8__unwrapB8ne200100ESI_
FNA:1,495,_ZNSt3__118__unwrap_iter_implINS_14__bit_iteratorINS_6vectorIbNS_9allocatorIbEEEELb0ELm0EEELb0EE8__unwrapB8ne200100ES6_
FNA:1,0,_ZNSt3__118__unwrap_iter_implINS_20__map_const_iteratorINS_21__tree_const_iteratorINS_12__value_typeINS_12basic_stringIcNS_11char_traitsIcEENS_9allocatorIcEEEEN8nlohmann16json_abi_v3_11_310basic_jsonINS_3mapENS_6vectorES9_bxydS7_NSB_14adl_serializerENSE_IhNS7_IhEEEEvEEEEPNS_11__tree_nodeISJ_PvEElEEEELb0EE8__unwrapB8ne200100ESP_
FNA:1,5627,_ZNSt3__118__unwrap_iter_implINS_20back_insert_iteratorINS_6vectorIN8nlohmann16json_abi_v3_11_310basic_jsonINS_3mapES2_NS_12basic_stringIcNS_11char_traitsIcEENS_9allocatorIcEEEEbxydSA_NS4_14adl_serializerENS2_IhNSA_IhEEEEvEENSA_ISG_EEEEEELb0EE8__unwrapB8ne200100ESJ_
FNL:2,51,52
FNA:2,880,_ZNSt3__118__unwrap_iter_implINS_11__wrap_iterIPKNS_12basic_stringIcNS_11char_traitsIcEENS_9allocatorIcEEEEEELb1EE8__rewrapB8ne200100ESA_S9_
FNA:2,0,_ZNSt3__118__unwrap_iter_implINS_11__wrap_iterIPKcEELb1EE8__rewrapB8ne200100ES4_S3_
FNA:2,5627,_ZNSt3__118__unwrap_iter_implINS_11__wrap_iterIPN8nlohmann16json_abi_v3_11_310basic_jsonINS_3mapENS_6vectorENS_12basic_stringIcNS_11char_traitsIcEENS_9allocatorIcEEEEbxydSA_NS3_14adl_serializerENS6_IhNSA_IhEEEEvEEEELb1EE8__rewrapB8ne200100ESI_SH_
FNA:2,12,_ZNSt3__118__unwrap_iter_implINS_11__wrap_iterIPNS_12basic_stringIcNS_11char_traitsIcEENS_9allocatorIcEEEEEELb1EE8__rewrapB8ne200100ES9_S8_
FNA:2,1908,_ZNSt3__118__unwrap_iter_implIPKNS_10shared_ptrIN4inja14ExpressionNodeEEELb1EE8__rewrapB8ne200100ES6_S6_
FNA:2,0,_ZNSt3__118__unwrap_iter_implIPKNS_12basic_stringIcNS_11char_traitsIcEENS_9allocatorIcEEEELb1EE8__rewrapB8ne200100ES8_S8_
FNA:2,0,_ZNSt3__118__unwrap_iter_implIPKcLb1EE8__rewrapB8ne200100ES2_S2_
FNA:2,4,_ZNSt3__118__unwrap_iter_implIPN4dbal15FilterConditionELb1EE8__rewrapB8ne200100ES3_S3_
FNA:2,494,_ZNSt3__118__unwrap_iter_implIPN4dbal4core11EntityFieldELb1EE8__rewrapB8ne200100ES4_S4_
FNA:2,494,_ZNSt3__118__unwrap_iter_implIPN4dbal4core11EntityIndexELb1EE8__rewrapB8ne200100ES4_S4_
FNA:2,98,_ZNSt3__118__unwrap_iter_implIPN4dbal4core11RelationDefELb1EE8__rewrapB8ne200100ES4_S4_
FNA:2,698,_ZNSt3__118__unwrap_iter_implIPN4dbal8adapters11EntityFieldELb1EE8__rewrapB8ne200100ES4_S4_
FNA:2,228,_ZNSt3__118__unwrap_iter_implIPN4dbal8adapters11RelationDefELb1EE8__rewrapB8ne200100ES4_S4_
FNA:2,163,_ZNSt3__118__unwrap_iter_implIPN4dbal8adapters15FieldDefinitionELb1EE8__rewrapB8ne200100ES4_S4_
FNA:2,163,_ZNSt3__118__unwrap_iter_implIPN4dbal8adapters15IndexDefinitionELb1EE8__rewrapB8ne200100ES4_S4_
FNA:2,0,_ZNSt3__118__unwrap_iter_implIPN4dbal8adapters18RelationDefinitionELb1EE8__rewrapB8ne200100ES4_S4_
FNA:2,98,_ZNSt3__118__unwrap_iter_implIPN4dbal8adapters3sql8SqlParamELb1EE8__rewrapB8ne200100ES5_S5_
FNA:2,2681,_ZNSt3__118__unwrap_iter_implIPN8nlohmann16json_abi_v3_11_310basic_jsonINS_3mapENS_6vectorENS_12basic_stringIcNS_11char_traitsIcEENS_9allocatorIcEEEEbxydS9_NS2_14adl_serializerENS5_IhNS9_IhEEEEvEELb1EE8__rewrapB8ne200100ESG_SG_
FNA:2,1908,_ZNSt3__118__unwrap_iter_implIPNS_10shared_ptrIN4inja14ExpressionNodeEEELb1EE8__rewrapB8ne200100ES5_S5_
FNA:2,0,_ZNSt3__118__unwrap_iter_implIPNS_10shared_ptrIN4inja7AstNodeEEELb1EE8__rewrapB8ne200100ES5_S5_
FNA:2,3879,_ZNSt3__118__unwrap_iter_implIPNS_12basic_stringIcNS_11char_traitsIcEENS_9allocatorIcEEEELb1EE8__rewrapB8ne200100ES7_S7_
FNA:2,0,_ZNSt3__118__unwrap_iter_implIPNS_4pairImPKcEELb1EE8__rewrapB8ne200100ES5_S5_
FNA:2,0,_ZNSt3__118__unwrap_iter_implIPNS_9sub_matchIPKcEELb1EE8__rewrapB8ne200100ES5_S5_
FNA:2,0,_ZNSt3__118__unwrap_iter_implIPPNS_10shared_ptrIN4inja12FunctionNodeEEELb1EE8__rewrapB8ne200100ES6_S6_
FNA:2,0,_ZNSt3__118__unwrap_iter_implIPPNS_10unique_ptrIN4dbal8adapters3sql13SqlConnectionENS_14default_deleteIS5_EEEELb1EE8__rewrapB8ne200100ESA_SA_
FNA:2,0,_ZNSt3__118__unwrap_iter_implIPPNS_7__stateIcEELb1EE8__rewrapB8ne200100ES4_S4_
FNA:2,0,_ZNSt3__118__unwrap_iter_implIPPPKN4inja8DataNodeELb1EE8__rewrapB8ne200100ES6_S6_
FNA:2,0,_ZNSt3__118__unwrap_iter_implIPPPKN8nlohmann16json_abi_v3_11_310basic_jsonINS_3mapENS_6vectorENS_12basic_stringIcNS_11char_traitsIcEENS_9allocatorIcEEEEbxydS9_NS2_14adl_serializerENS5_IhNS9_IhEEEEvEELb1EE8__rewrapB8ne200100ESJ_SJ_
FNA:2,0,_ZNSt3__118__unwrap_iter_implIPPPN4inja15IfStatementNodeELb1EE8__rewrapB8ne200100ES5_S5_
FNA:2,0,_ZNSt3__118__unwrap_iter_implIPPPN4inja16ForStatementNodeELb1EE8__rewrapB8ne200100ES5_S5_
FNA:2,0,_ZNSt3__118__unwrap_iter_implIPPPN4inja18BlockStatementNodeELb1EE8__rewrapB8ne200100ES5_S5_
FNA:2,0,_ZNSt3__118__unwrap_iter_implIPhLb1EE8__rewrapB8ne200100ES1_S1_
FNL:3,55,56
FNA:3,0,_ZNSt3__118__unwrap_iter_implINS_11__wrap_iterIPKN8nlohmann16json_abi_v3_11_310basic_jsonINS_3mapENS_6vectorENS_12basic_stringIcNS_11char_traitsIcEENS_9allocatorIcEEEEbxydSA_NS3_14adl_serializerENS6_IhNSA_IhEEEEvEEEELb1EE8__unwrapB8ne200100ESJ_
FNA:3,2184,_ZNSt3__118__unwrap_iter_implINS_11__wrap_iterIPKNS_12basic_stringIcNS_11char_traitsIcEENS_9allocatorIcEEEEEELb1EE8__unwrapB8ne200100ESA_
FNA:3,0,_ZNSt3__118__unwrap_iter_implINS_11__wrap_iterIPKcEELb1EE8__unwrapB8ne200100ES4_
FNA:3,0,_ZNSt3__118__unwrap_iter_implINS_11__wrap_iterIPKhEELb1EE8__unwrapB8ne200100ES4_
FNA:3,0,_ZNSt3__118__unwrap_iter_implINS_11__wrap_iterIPKiEELb1EE8__unwrapB8ne200100ES4_
FNA:3,11254,_ZNSt3__118__unwrap_iter_implINS_11__wrap_iterIPN8nlohmann16json_abi_v3_11_310basic_jsonINS_3mapENS_6vectorENS_12basic_stringIcNS_11char_traitsIcEENS_9allocatorIcEEEEbxydSA_NS3_14adl_serializerENS6_IhNSA_IhEEEEvEEEELb1EE8__unwrapB8ne200100ESI_
FNA:3,24,_ZNSt3__118__unwrap_iter_implINS_11__wrap_iterIPNS_12basic_stringIcNS_11char_traitsIcEENS_9allocatorIcEEEEEELb1EE8__unwrapB8ne200100ES9_
FNA:3,130,_ZNSt3__118__unwrap_iter_implIPKN4dbal8adapters3sql8SqlParamELb1EE8__unwrapB8ne200100ES6_
FNA:3,2,_ZNSt3__118__unwrap_iter_implIPKN8nlohmann16json_abi_v3_11_310basic_jsonINS_3mapENS_6vectorENS_12basic_stringIcNS_11char_traitsIcEENS_9allocatorIcEEEEbxydS9_NS2_14adl_serializerENS5_IhNS9_IhEEEEvEELb1EE8__unwrapB8ne200100ESH_
FNA:3,346,_ZNSt3__118__unwrap_iter_implIPKN8nlohmann16json_abi_v3_11_36detail8json_refINS2_10basic_jsonINS_3mapENS_6vectorENS_12basic_stringIcNS_11char_traitsIcEENS_9allocatorIcEEEEbxydSB_NS2_14adl_serializerENS7_IhNSB_IhEEEEvEEEELb1EE8__unwrapB8ne200100ESK_
FNA:3,3816,_ZNSt3__118__unwrap_iter_implIPKNS_10shared_ptrIN4inja14ExpressionNodeEEELb1EE8__unwrapB8ne200100ES6_
FNA:3,40,_ZNSt3__118__unwrap_iter_implIPKNS_12basic_stringIcNS_11char_traitsIcEENS_9allocatorIcEEEELb1EE8__unwrapB8ne200100ES8_
FNA:3,0,_ZNSt3__118__unwrap_iter_implIPKcLb1EE8__unwrapB8ne200100ES2_
FNA:3,12,_ZNSt3__118__unwrap_iter_implIPN4dbal15FilterConditionELb1EE8__unwrapB8ne200100ES3_
FNA:3,1482,_ZNSt3__118__unwrap_iter_implIPN4dbal4core11EntityFieldELb1EE8__unwrapB8ne200100ES4_
FNA:3,1482,_ZNSt3__118__unwrap_iter_implIPN4dbal4core11EntityIndexELb1EE8__unwrapB8ne200100ES4_
FNA:3,147,_ZNSt3__118__unwrap_iter_implIPN4dbal4core11RelationDefELb1EE8__unwrapB8ne200100ES4_
FNA:3,2094,_ZNSt3__118__unwrap_iter_implIPN4dbal8adapters11EntityFieldELb1EE8__unwrapB8ne200100ES4_
FNA:3,342,_ZNSt3__118__unwrap_iter_implIPN4dbal8adapters11RelationDefELb1EE8__unwrapB8ne200100ES4_
FNA:3,489,_ZNSt3__118__unwrap_iter_implIPN4dbal8adapters15FieldDefinitionELb1EE8__unwrapB8ne200100ES4_
FNA:3,489,_ZNSt3__118__unwrap_iter_implIPN4dbal8adapters15IndexDefinitionELb1EE8__unwrapB8ne200100ES4_
FNA:3,0,_ZNSt3__118__unwrap_iter_implIPN4dbal8adapters18RelationDefinitionELb1EE8__unwrapB8ne200100ES4_
FNA:3,164,_ZNSt3__118__unwrap_iter_implIPN4dbal8adapters3sql8SqlParamELb1EE8__unwrapB8ne200100ES5_
FNA:3,7259,_ZNSt3__118__unwrap_iter_implIPN8nlohmann16json_abi_v3_11_310basic_jsonINS_3mapENS_6vectorENS_12basic_stringIcNS_11char_traitsIcEENS_9allocatorIcEEEEbxydS9_NS2_14adl_serializerENS5_IhNS9_IhEEEEvEELb1EE8__unwrapB8ne200100ESG_
FNA:3,1908,_ZNSt3__118__unwrap_iter_implIPNS_10shared_ptrIN4inja14ExpressionNodeEEELb1EE8__unwrapB8ne200100ES5_
FNA:3,0,_ZNSt3__118__unwrap_iter_implIPNS_10shared_ptrIN4inja7AstNodeEEELb1EE8__unwrapB8ne200100ES5_
FNA:3,6761,_ZNSt3__118__unwrap_iter_implIPNS_12basic_stringIcNS_11char_traitsIcEENS_9allocatorIcEEEELb1EE8__unwrapB8ne200100ES7_
FNA:3,0,_ZNSt3__118__unwrap_iter_implIPNS_4pairImPKcEELb1EE8__unwrapB8ne200100ES5_
FNA:3,0,_ZNSt3__118__unwrap_iter_implIPNS_9sub_matchIPKcEELb1EE8__unwrapB8ne200100ES5_
FNA:3,0,_ZNSt3__118__unwrap_iter_implIPPNS_10shared_ptrIN4inja12FunctionNodeEEELb1EE8__unwrapB8ne200100ES6_
FNA:3,0,_ZNSt3__118__unwrap_iter_implIPPNS_10unique_ptrIN4dbal8adapters3sql13SqlConnectionENS_14default_deleteIS5_EEEELb1EE8__unwrapB8ne200100ESA_
FNA:3,0,_ZNSt3__118__unwrap_iter_implIPPNS_7__stateIcEELb1EE8__unwrapB8ne200100ES4_
FNA:3,0,_ZNSt3__118__unwrap_iter_implIPPPKN4inja8DataNodeELb1EE8__unwrapB8ne200100ES6_
FNA:3,0,_ZNSt3__118__unwrap_iter_implIPPPKN8nlohmann16json_abi_v3_11_310basic_jsonINS_3mapENS_6vectorENS_12basic_stringIcNS_11char_traitsIcEENS_9allocatorIcEEEEbxydS9_NS2_14adl_serializerENS5_IhNS9_IhEEEEvEELb1EE8__unwrapB8ne200100ESJ_
FNA:3,0,_ZNSt3__118__unwrap_iter_implIPPPN4inja15IfStatementNodeELb1EE8__unwrapB8ne200100ES5_
FNA:3,0,_ZNSt3__118__unwrap_iter_implIPPPN4inja16ForStatementNodeELb1EE8__unwrapB8ne200100ES5_
FNA:3,0,_ZNSt3__118__unwrap_iter_implIPPPN4inja18BlockStatementNodeELb1EE8__unwrapB8ne200100ES5_
FNA:3,0,_ZNSt3__118__unwrap_iter_implIPhLb1EE8__unwrapB8ne200100ES1_
FNL:4,64,65
FNA:4,0,_ZNSt3__113__unwrap_iterB8ne200100IN8nlohmann16json_abi_v3_11_36detail9iter_implIKNS2_10basic_jsonINS_3mapENS_6vectorENS_12basic_stringIcNS_11char_traitsIcEENS_9allocatorIcEEEEbxydSB_NS2_14adl_serializerENS7_IhNSB_IhEEEEvEEEENS_18__unwrap_iter_implISJ_Lb0EEELi0EEEDTclsrT0_8__unwrapclsr3stdE7declvalIT_EEEESN_
FNA:4,0,_ZNSt3__113__unwrap_iterB8ne200100IN8nlohmann16json_abi_v3_11_36detail9iter_implINS2_10basic_jsonINS_3mapENS_6vectorENS_12basic_stringIcNS_11char_traitsIcEENS_9allocatorIcEEEEbxydSB_NS2_14adl_serializerENS7_IhNSB_IhEEEEvEEEENS_18__unwrap_iter_implISI_Lb0EEELi0EEEDTclsrT0_8__unwrapclsr3stdE7declvalIT_EEEESM_
FNA:4,0,_ZNSt3__113__unwrap_iterB8ne200100INS_11__wrap_iterIPKN8nlohmann16json_abi_v3_11_310basic_jsonINS_3mapENS_6vectorENS_12basic_stringIcNS_11char_traitsIcEENS_9allocatorIcEEEEbxydSA_NS3_14adl_serializerENS6_IhNSA_IhEEEEvEEEENS_18__unwrap_iter_implISJ_Lb1EEELi0EEEDTclsrT0_8__unwrapclsr3stdE7declvalIT_EEEESN_
FNA:4,2184,_ZNSt3__113__unwrap_iterB8ne200100INS_11__wrap_iterIPKNS_12basic_stringIcNS_11char_traitsIcEENS_9allocatorIcEEEEEENS_18__unwrap_iter_implISA_Lb1EEELi0EEEDTclsrT0_8__unwrapclsr3stdE7declvalIT_EEEESE_
FNA:4,0,_ZNSt3__113__unwrap_iterB8ne200100INS_11__wrap_iterIPKcEENS_18__unwrap_iter_implIS4_Lb1EEELi0EEEDTclsrT0_8__unwrapclsr3stdE7declvalIT_EEEES8_
FNA:4,0,_ZNSt3__113__unwrap_iterB8ne200100INS_11__wrap_iterIPKhEENS_18__unwrap_iter_implIS4_Lb1EEELi0EEEDTclsrT0_8__unwrapclsr3stdE7declvalIT_EEEES8_
FNA:4,0,_ZNSt3__113__unwrap_iterB8ne200100INS_11__wrap_iterIPKiEENS_18__unwrap_iter_implIS4_Lb1EEELi0EEEDTclsrT0_8__unwrapclsr3stdE7declvalIT_EEEES8_
FNA:4,11254,_ZNSt3__113__unwrap_iterB8ne200100INS_11__wrap_iterIPN8nlohmann16json_abi_v3_11_310basic_jsonINS_3mapENS_6vectorENS_12basic_stringIcNS_11char_traitsIcEENS_9allocatorIcEEEEbxydSA_NS3_14adl_serializerENS6_IhNSA_IhEEEEvEEEENS_18__unwrap_iter_implISI_Lb1EEELi0EEEDTclsrT0_8__unwrapclsr3stdE7declvalIT_EEEESM_
FNA:4,24,_ZNSt3__113__unwrap_iterB8ne200100INS_11__wrap_iterIPNS_12basic_stringIcNS_11char_traitsIcEENS_9allocatorIcEEEEEENS_18__unwrap_iter_implIS9_Lb1EEELi0EEEDTclsrT0_8__unwrapclsr3stdE7declvalIT_EEEESD_
FNA:4,495,_ZNSt3__113__unwrap_iterB8ne200100INS_14__bit_iteratorINS_6vectorIbNS_9allocatorIbEEEELb0ELm0EEENS_18__unwrap_iter_implIS6_Lb0EEELi0EEEDTclsrT0_8__unwrapclsr3stdE7declvalIT_EEEESA_
FNA:4,0,_ZNSt3__113__unwrap_iterB8ne200100INS_20__map_const_iteratorINS_21__tree_const_iteratorINS_12__value_typeINS_12basic_stringIcNS_11char_traitsIcEENS_9allocatorIcEEEEN8nlohmann16json_abi_v3_11_310basic_jsonINS_3mapENS_6vectorES9_bxydS7_NSB_14adl_serializerENSE_IhNS7_IhEEEEvEEEEPNS_11__tree_nodeISJ_PvEElEEEENS_18__unwrap_iter_implISP_Lb0EEELi0EEEDTclsrT0_8__unwrapclsr3stdE7declvalIT_EEEEST_
FNA:4,5627,_ZNSt3__113__unwrap_iterB8ne200100INS_20back_insert_iteratorINS_6vectorIN8nlohmann16json_abi_v3_11_310basic_jsonINS_3mapES2_NS_12basic_stringIcNS_11char_traitsIcEENS_9allocatorIcEEEEbxydSA_NS4_14adl_serializerENS2_IhNSA_IhEEEEvEENSA_ISG_EEEEEENS_18__unwrap_iter_implISJ_Lb0EEELi0EEEDTclsrT0_8__unwrapclsr3stdE7declvalIT_EEEESN_
FNA:4,130,_ZNSt3__113__unwrap_iterB8ne200100IPKN4dbal8adapters3sql8SqlParamENS_18__unwrap_iter_implIS6_Lb1EEELi0EEEDTclsrT0_8__unwrapclsr3stdE7declvalIT_EEEESA_
FNA:4,2,_ZNSt3__113__unwrap_iterB8ne200100IPKN8nlohmann16json_abi_v3_11_310basic_jsonINS_3mapENS_6vectorENS_12basic_stringIcNS_11char_traitsIcEENS_9allocatorIcEEEEbxydS9_NS2_14adl_serializerENS5_IhNS9_IhEEEEvEENS_18__unwrap_iter_implISH_Lb1EEELi0EEEDTclsrT0_8__unwrapclsr3stdE7declvalIT_EEEESL_
FNA:4,346,_ZNSt3__113__unwrap_iterB8ne200100IPKN8nlohmann16json_abi_v3_11_36detail8json_refINS2_10basic_jsonINS_3mapENS_6vectorENS_12basic_stringIcNS_11char_traitsIcEENS_9allocatorIcEEEEbxydSB_NS2_14adl_serializerENS7_IhNSB_IhEEEEvEEEENS_18__unwrap_iter_implISK_Lb1EEELi0EEEDTclsrT0_8__unwrapclsr3stdE7declvalIT_EEEESO_
FNA:4,3816,_ZNSt3__113__unwrap_iterB8ne200100IPKNS_10shared_ptrIN4inja14ExpressionNodeEEENS_18__unwrap_iter_implIS6_Lb1EEELi0EEEDTclsrT0_8__unwrapclsr3stdE7declvalIT_EEEESA_
FNA:4,40,_ZNSt3__113__unwrap_iterB8ne200100IPKNS_12basic_stringIcNS_11char_traitsIcEENS_9allocatorIcEEEENS_18__unwrap_iter_implIS8_Lb1EEELi0EEEDTclsrT0_8__unwrapclsr3stdE7declvalIT_EEEESC_
FNA:4,0,_ZNSt3__113__unwrap_iterB8ne200100IPKcNS_18__unwrap_iter_implIS2_Lb1EEELi0EEEDTclsrT0_8__unwrapclsr3stdE7declvalIT_EEEES6_
FNA:4,12,_ZNSt3__113__unwrap_iterB8ne200100IPN4dbal15FilterConditionENS_18__unwrap_iter_implIS3_Lb1EEELi0EEEDTclsrT0_8__unwrapclsr3stdE7declvalIT_EEEES7_
FNA:4,1482,_ZNSt3__113__unwrap_iterB8ne200100IPN4dbal4core11EntityFieldENS_18__unwrap_iter_implIS4_Lb1EEELi0EEEDTclsrT0_8__unwrapclsr3stdE7declvalIT_EEEES8_
FNA:4,1482,_ZNSt3__113__unwrap_iterB8ne200100IPN4dbal4core11EntityIndexENS_18__unwrap_iter_implIS4_Lb1EEELi0EEEDTclsrT0_8__unwrapclsr3stdE7declvalIT_EEEES8_
FNA:4,147,_ZNSt3__113__unwrap_iterB8ne200100IPN4dbal4core11RelationDefENS_18__unwrap_iter_implIS4_Lb1EEELi0EEEDTclsrT0_8__unwrapclsr3stdE7declvalIT_EEEES8_
FNA:4,2094,_ZNSt3__113__unwrap_iterB8ne200100IPN4dbal8adapters11EntityFieldENS_18__unwrap_iter_implIS4_Lb1EEELi0EEEDTclsrT0_8__unwrapclsr3stdE7declvalIT_EEEES8_
FNA:4,342,_ZNSt3__113__unwrap_iterB8ne200100IPN4dbal8adapters11RelationDefENS_18__unwrap_iter_implIS4_Lb1EEELi0EEEDTclsrT0_8__unwrapclsr3stdE7declvalIT_EEEES8_
FNA:4,489,_ZNSt3__113__unwrap_iterB8ne200100IPN4dbal8adapters15FieldDefinitionENS_18__unwrap_iter_implIS4_Lb1EEELi0EEEDTclsrT0_8__unwrapclsr3stdE7declvalIT_EEEES8_
FNA:4,489,_ZNSt3__113__unwrap_iterB8ne200100IPN4dbal8adapters15IndexDefinitionENS_18__unwrap_iter_implIS4_Lb1EEELi0EEEDTclsrT0_8__unwrapclsr3stdE7declvalIT_EEEES8_
FNA:4,0,_ZNSt3__113__unwrap_iterB8ne200100IPN4dbal8adapters18RelationDefinitionENS_18__unwrap_iter_implIS4_Lb1EEELi0EEEDTclsrT0_8__unwrapclsr3stdE7declvalIT_EEEES8_
FNA:4,164,_ZNSt3__113__unwrap_iterB8ne200100IPN4dbal8adapters3sql8SqlParamENS_18__unwrap_iter_implIS5_Lb1EEELi0EEEDTclsrT0_8__unwrapclsr3stdE7declvalIT_EEEES9_
FNA:4,7259,_ZNSt3__113__unwrap_iterB8ne200100IPN8nlohmann16json_abi_v3_11_310basic_jsonINS_3mapENS_6vectorENS_12basic_stringIcNS_11char_traitsIcEENS_9allocatorIcEEEEbxydS9_NS2_14adl_serializerENS5_IhNS9_IhEEEEvEENS_18__unwrap_iter_implISG_Lb1EEELi0EEEDTclsrT0_8__unwrapclsr3stdE7declvalIT_EEEESK_
FNA:4,1908,_ZNSt3__113__unwrap_iterB8ne200100IPNS_10shared_ptrIN4inja14ExpressionNodeEEENS_18__unwrap_iter_implIS5_Lb1EEELi0EEEDTclsrT0_8__unwrapclsr3stdE7declvalIT_EEEES9_
FNA:4,0,_ZNSt3__113__unwrap_iterB8ne200100IPNS_10shared_ptrIN4inja7AstNodeEEENS_18__unwrap_iter_implIS5_Lb1EEELi0EEEDTclsrT0_8__unwrapclsr3stdE7declvalIT_EEEES9_
FNA:4,6761,_ZNSt3__113__unwrap_iterB8ne200100IPNS_12basic_stringIcNS_11char_traitsIcEENS_9allocatorIcEEEENS_18__unwrap_iter_implIS7_Lb1EEELi0EEEDTclsrT0_8__unwrapclsr3stdE7declvalIT_EEEESB_
FNA:4,0,_ZNSt3__113__unwrap_iterB8ne200100IPNS_4pairImPKcEENS_18__unwrap_iter_implIS5_Lb1EEELi0EEEDTclsrT0_8__unwrapclsr3stdE7declvalIT_EEEES9_
FNA:4,0,_ZNSt3__113__unwrap_iterB8ne200100IPNS_9sub_matchIPKcEENS_18__unwrap_iter_implIS5_Lb1EEELi0EEEDTclsrT0_8__unwrapclsr3stdE7declvalIT_EEEES9_
FNA:4,0,_ZNSt3__113__unwrap_iterB8ne200100IPPNS_10shared_ptrIN4inja12FunctionNodeEEENS_18__unwrap_iter_implIS6_Lb1EEELi0EEEDTclsrT0_8__unwrapclsr3stdE7declvalIT_EEEESA_
FNA:4,0,_ZNSt3__113__unwrap_iterB8ne200100IPPNS_10unique_ptrIN4dbal8adapters3sql13SqlConnectionENS_14default_deleteIS5_EEEENS_18__unwrap_iter_implISA_Lb1EEELi0EEEDTclsrT0_8__unwrapclsr3stdE7declvalIT_EEEESE_
FNA:4,0,_ZNSt3__113__unwrap_iterB8ne200100IPPNS_7__stateIcEENS_18__unwrap_iter_implIS4_Lb1EEELi0EEEDTclsrT0_8__unwrapclsr3stdE7declvalIT_EEEES8_
FNA:4,0,_ZNSt3__113__unwrap_iterB8ne200100IPPPKN4inja8DataNodeENS_18__unwrap_iter_implIS6_Lb1EEELi0EEEDTclsrT0_8__unwrapclsr3stdE7declvalIT_EEEESA_
FNA:4,0,_ZNSt3__113__unwrap_iterB8ne200100IPPPKN8nlohmann16json_abi_v3_11_310basic_jsonINS_3mapENS_6vectorENS_12basic_stringIcNS_11char_traitsIcEENS_9allocatorIcEEEEbxydS9_NS2_14adl_serializerENS5_IhNS9_IhEEEEvEENS_18__unwrap_iter_implISJ_Lb1EEELi0EEEDTclsrT0_8__unwrapclsr3stdE7declvalIT_EEEESN_
FNA:4,0,_ZNSt3__113__unwrap_iterB8ne200100IPPPN4inja15IfStatementNodeENS_18__unwrap_iter_implIS5_Lb1EEELi0EEEDTclsrT0_8__unwrapclsr3stdE7declvalIT_EEEES9_
FNA:4,0,_ZNSt3__113__unwrap_iterB8ne200100IPPPN4inja16ForStatementNodeENS_18__unwrap_iter_implIS5_Lb1EEELi0EEEDTclsrT0_8__unwrapclsr3stdE7declvalIT_EEEES9_
FNA:4,0,_ZNSt3__113__unwrap_iterB8ne200100IPPPN4inja18BlockStatementNodeENS_18__unwrap_iter_implIS5_Lb1EEELi0EEEDTclsrT0_8__unwrapclsr3stdE7declvalIT_EEEES9_
FNA:4,0,_ZNSt3__113__unwrap_iterB8ne200100IPhNS_18__unwrap_iter_implIS1_Lb1EEELi0EEEDTclsrT0_8__unwrapclsr3stdE7declvalIT_EEEES5_
FNL:5,77,78
FNA:5,0,_ZNSt3__113__rewrap_iterB8ne200100IN8nlohmann16json_abi_v3_11_36detail9iter_implIKNS2_10basic_jsonINS_3mapENS_6vectorENS_12basic_stringIcNS_11char_traitsIcEENS_9allocatorIcEEEEbxydSB_NS2_14adl_serializerENS7_IhNSB_IhEEEEvEEEESJ_NS_18__unwrap_iter_implISJ_Lb0EEEEET_SM_T0_
FNA:5,880,_ZNSt3__113__rewrap_iterB8ne200100INS_11__wrap_iterIPKNS_12basic_stringIcNS_11char_traitsIcEENS_9allocatorIcEEEEEES9_NS_18__unwrap_iter_implISA_Lb1EEEEET_SD_T0_
FNA:5,0,_ZNSt3__113__rewrap_iterB8ne200100INS_11__wrap_iterIPKcEES3_NS_18__unwrap_iter_implIS4_Lb1EEEEET_S7_T0_
FNA:5,5627,_ZNSt3__113__rewrap_iterB8ne200100INS_11__wrap_iterIPN8nlohmann16json_abi_v3_11_310basic_jsonINS_3mapENS_6vectorENS_12basic_stringIcNS_11char_traitsIcEENS_9allocatorIcEEEEbxydSA_NS3_14adl_serializerENS6_IhNSA_IhEEEEvEEEESH_NS_18__unwrap_iter_implISI_Lb1EEEEET_SL_T0_
FNA:5,12,_ZNSt3__113__rewrap_iterB8ne200100INS_11__wrap_iterIPNS_12basic_stringIcNS_11char_traitsIcEENS_9allocatorIcEEEEEES8_NS_18__unwrap_iter_implIS9_Lb1EEEEET_SC_T0_
FNA:5,330,_ZNSt3__113__rewrap_iterB8ne200100INS_14__bit_iteratorINS_6vectorIbNS_9allocatorIbEEEELb0ELm0EEES6_NS_18__unwrap_iter_implIS6_Lb0EEEEET_S9_T0_
FNA:5,5627,_ZNSt3__113__rewrap_iterB8ne200100INS_20back_insert_iteratorINS_6vectorIN8nlohmann16json_abi_v3_11_310basic_jsonINS_3mapES2_NS_12basic_stringIcNS_11char_traitsIcEENS_9allocatorIcEEEEbxydSA_NS4_14adl_serializerENS2_IhNSA_IhEEEEvEENSA_ISG_EEEEEESJ_NS_18__unwrap_iter_implISJ_Lb0EEEEET_SM_T0_
FNA:5,1908,_ZNSt3__113__rewrap_iterB8ne200100IPKNS_10shared_ptrIN4inja14ExpressionNodeEEES6_NS_18__unwrap_iter_implIS6_Lb1EEEEET_S9_T0_
FNA:5,0,_ZNSt3__113__rewrap_iterB8ne200100IPKNS_12basic_stringIcNS_11char_traitsIcEENS_9allocatorIcEEEES8_NS_18__unwrap_iter_implIS8_Lb1EEEEET_SB_T0_
FNA:5,0,_ZNSt3__113__rewrap_iterB8ne200100IPKcS2_NS_18__unwrap_iter_implIS2_Lb1EEEEET_S5_T0_
FNA:5,4,_ZNSt3__113__rewrap_iterB8ne200100IPN4dbal15FilterConditionES3_NS_18__unwrap_iter_implIS3_Lb1EEEEET_S6_T0_
FNA:5,494,_ZNSt3__113__rewrap_iterB8ne200100IPN4dbal4core11EntityFieldES4_NS_18__unwrap_iter_implIS4_Lb1EEEEET_S7_T0_
FNA:5,494,_ZNSt3__113__rewrap_iterB8ne200100IPN4dbal4core11EntityIndexES4_NS_18__unwrap_iter_implIS4_Lb1EEEEET_S7_T0_
FNA:5,98,_ZNSt3__113__rewrap_iterB8ne200100IPN4dbal4core11RelationDefES4_NS_18__unwrap_iter_implIS4_Lb1EEEEET_S7_T0_
FNA:5,698,_ZNSt3__113__rewrap_iterB8ne200100IPN4dbal8adapters11EntityFieldES4_NS_18__unwrap_iter_implIS4_Lb1EEEEET_S7_T0_
FNA:5,228,_ZNSt3__113__rewrap_iterB8ne200100IPN4dbal8adapters11RelationDefES4_NS_18__unwrap_iter_implIS4_Lb1EEEEET_S7_T0_
FNA:5,163,_ZNSt3__113__rewrap_iterB8ne200100IPN4dbal8adapters15FieldDefinitionES4_NS_18__unwrap_iter_implIS4_Lb1EEEEET_S7_T0_
FNA:5,163,_ZNSt3__113__rewrap_iterB8ne200100IPN4dbal8adapters15IndexDefinitionES4_NS_18__unwrap_iter_implIS4_Lb1EEEEET_S7_T0_
FNA:5,0,_ZNSt3__113__rewrap_iterB8ne200100IPN4dbal8adapters18RelationDefinitionES4_NS_18__unwrap_iter_implIS4_Lb1EEEEET_S7_T0_
FNA:5,98,_ZNSt3__113__rewrap_iterB8ne200100IPN4dbal8adapters3sql8SqlParamES5_NS_18__unwrap_iter_implIS5_Lb1EEEEET_S8_T0_
FNA:5,2681,_ZNSt3__113__rewrap_iterB8ne200100IPN8nlohmann16json_abi_v3_11_310basic_jsonINS_3mapENS_6vectorENS_12basic_stringIcNS_11char_traitsIcEENS_9allocatorIcEEEEbxydS9_NS2_14adl_serializerENS5_IhNS9_IhEEEEvEESG_NS_18__unwrap_iter_implISG_Lb1EEEEET_SJ_T0_
FNA:5,1908,_ZNSt3__113__rewrap_iterB8ne200100IPNS_10shared_ptrIN4inja14ExpressionNodeEEES5_NS_18__unwrap_iter_implIS5_Lb1EEEEET_S8_T0_
FNA:5,0,_ZNSt3__113__rewrap_iterB8ne200100IPNS_10shared_ptrIN4inja7AstNodeEEES5_NS_18__unwrap_iter_implIS5_Lb1EEEEET_S8_T0_
FNA:5,3879,_ZNSt3__113__rewrap_iterB8ne200100IPNS_12basic_stringIcNS_11char_traitsIcEENS_9allocatorIcEEEES7_NS_18__unwrap_iter_implIS7_Lb1EEEEET_SA_T0_
FNA:5,0,_ZNSt3__113__rewrap_iterB8ne200100IPNS_4pairImPKcEES5_NS_18__unwrap_iter_implIS5_Lb1EEEEET_S8_T0_
FNA:5,0,_ZNSt3__113__rewrap_iterB8ne200100IPNS_9sub_matchIPKcEES5_NS_18__unwrap_iter_implIS5_Lb1EEEEET_S8_T0_
FNA:5,0,_ZNSt3__113__rewrap_iterB8ne200100IPPNS_10shared_ptrIN4inja12FunctionNodeEEES6_NS_18__unwrap_iter_implIS6_Lb1EEEEET_S9_T0_
FNA:5,0,_ZNSt3__113__rewrap_iterB8ne200100IPPNS_10unique_ptrIN4dbal8adapters3sql13SqlConnectionENS_14default_deleteIS5_EEEESA_NS_18__unwrap_iter_implISA_Lb1EEEEET_SD_T0_
FNA:5,0,_ZNSt3__113__rewrap_iterB8ne200100IPPNS_7__stateIcEES4_NS_18__unwrap_iter_implIS4_Lb1EEEEET_S7_T0_
FNA:5,0,_ZNSt3__113__rewrap_iterB8ne200100IPPPKN4inja8DataNodeES6_NS_18__unwrap_iter_implIS6_Lb1EEEEET_S9_T0_
FNA:5,0,_ZNSt3__113__rewrap_iterB8ne200100IPPPKN8nlohmann16json_abi_v3_11_310basic_jsonINS_3mapENS_6vectorENS_12basic_stringIcNS_11char_traitsIcEENS_9allocatorIcEEEEbxydS9_NS2_14adl_serializerENS5_IhNS9_IhEEEEvEESJ_NS_18__unwrap_iter_implISJ_Lb1EEEEET_SM_T0_
FNA:5,0,_ZNSt3__113__rewrap_iterB8ne200100IPPPN4inja15IfStatementNodeES5_NS_18__unwrap_iter_implIS5_Lb1EEEEET_S8_T0_
FNA:5,0,_ZNSt3__113__rewrap_iterB8ne200100IPPPN4inja16ForStatementNodeES5_NS_18__unwrap_iter_implIS5_Lb1EEEEET_S8_T0_
FNA:5,0,_ZNSt3__113__rewrap_iterB8ne200100IPPPN4inja18BlockStatementNodeES5_NS_18__unwrap_iter_implIS5_Lb1EEEEET_S8_T0_
FNA:5,0,_ZNSt3__113__rewrap_iterB8ne200100IPhS1_NS_18__unwrap_iter_implIS1_Lb1EEEEET_S4_T0_
FNF:6
FNH:6
DA:39,5957
DA:40,6122
DA:51,19335
DA:52,19335
DA:55,40425
DA:56,40425
DA:64,46547
DA:65,46547
DA:77,25292
DA:78,25292
LF:10
LH:10
end_of_record
TN:
SF:/Library/Developer/CommandLineTools/SDKs/MacOSX.sdk/usr/include/c++/v1/__algorithm/unwrap_range.h
FNL:0,64,65
FNA:0,212,_ZNSt3__119__unwrap_range_implINS_11__wrap_iterIPKNS_12basic_stringIcNS_11char_traitsIcEENS_9allocatorIcEEEEEESA_E8__unwrapB8ne200100ESA_SA_
FNA:0,0,_ZNSt3__119__unwrap_range_implINS_11__wrap_iterIPKiEES4_E8__unwrapB8ne200100ES4_S4_
FNA:0,5627,_ZNSt3__119__unwrap_range_implINS_11__wrap_iterIPN8nlohmann16json_abi_v3_11_310basic_jsonINS_3mapENS_6vectorENS_12basic_stringIcNS_11char_traitsIcEENS_9allocatorIcEEEEbxydSA_NS3_14adl_serializerENS6_IhNSA_IhEEEEvEEEESI_E8__unwrapB8ne200100ESI_SI_
FNA:0,165,_ZNSt3__119__unwrap_range_implINS_14__bit_iteratorINS_6vectorIbNS_9allocatorIbEEEELb0ELm0EEES6_E8__unwrapB8ne200100ES6_S6_
FNA:0,65,_ZNSt3__119__unwrap_range_implIPKN4dbal8adapters3sql8SqlParamES6_E8__unwrapB8ne200100ES6_S6_
FNA:0,1,_ZNSt3__119__unwrap_range_implIPKN8nlohmann16json_abi_v3_11_310basic_jsonINS_3mapENS_6vectorENS_12basic_stringIcNS_11char_traitsIcEENS_9allocatorIcEEEEbxydS9_NS2_14adl_serializerENS5_IhNS9_IhEEEEvEESH_E8__unwrapB8ne200100ESH_SH_
FNA:0,173,_ZNSt3__119__unwrap_range_implIPKN8nlohmann16json_abi_v3_11_36detail8json_refINS2_10basic_jsonINS_3mapENS_6vectorENS_12basic_stringIcNS_11char_traitsIcEENS_9allocatorIcEEEEbxydSB_NS2_14adl_serializerENS7_IhNSB_IhEEEEvEEEESK_E8__unwrapB8ne200100ESK_SK_
FNA:0,1908,_ZNSt3__119__unwrap_range_implIPKNS_10shared_ptrIN4inja14ExpressionNodeEEES6_E8__unwrapB8ne200100ES6_S6_
FNA:0,20,_ZNSt3__119__unwrap_range_implIPKNS_12basic_stringIcNS_11char_traitsIcEENS_9allocatorIcEEEES8_E8__unwrapB8ne200100ES8_S8_
FNA:0,4,_ZNSt3__119__unwrap_range_implIPN4dbal15FilterConditionES3_E8__unwrapB8ne200100ES3_S3_
FNA:0,494,_ZNSt3__119__unwrap_range_implIPN4dbal4core11EntityFieldES4_E8__unwrapB8ne200100ES4_S4_
FNA:0,494,_ZNSt3__119__unwrap_range_implIPN4dbal4core11EntityIndexES4_E8__unwrapB8ne200100ES4_S4_
FNA:0,49,_ZNSt3__119__unwrap_range_implIPN4dbal4core11RelationDefES4_E8__unwrapB8ne200100ES4_S4_
FNA:0,698,_ZNSt3__119__unwrap_range_implIPN4dbal8adapters11EntityFieldES4_E8__unwrapB8ne200100ES4_S4_
FNA:0,114,_ZNSt3__119__unwrap_range_implIPN4dbal8adapters11RelationDefES4_E8__unwrapB8ne200100ES4_S4_
FNA:0,163,_ZNSt3__119__unwrap_range_implIPN4dbal8adapters15FieldDefinitionES4_E8__unwrapB8ne200100ES4_S4_
FNA:0,163,_ZNSt3__119__unwrap_range_implIPN4dbal8adapters15IndexDefinitionES4_E8__unwrapB8ne200100ES4_S4_
FNA:0,0,_ZNSt3__119__unwrap_range_implIPN4dbal8adapters18RelationDefinitionES4_E8__unwrapB8ne200100ES4_S4_
FNA:0,33,_ZNSt3__119__unwrap_range_implIPN4dbal8adapters3sql8SqlParamES5_E8__unwrapB8ne200100ES5_S5_
FNA:0,2291,_ZNSt3__119__unwrap_range_implIPN8nlohmann16json_abi_v3_11_310basic_jsonINS_3mapENS_6vectorENS_12basic_stringIcNS_11char_traitsIcEENS_9allocatorIcEEEEbxydS9_NS2_14adl_serializerENS5_IhNS9_IhEEEEvEESG_E8__unwrapB8ne200100ESG_SG_
FNA:0,0,_ZNSt3__119__unwrap_range_implIPNS_10shared_ptrIN4inja14ExpressionNodeEEES5_E8__unwrapB8ne200100ES5_S5_
FNA:0,0,_ZNSt3__119__unwrap_range_implIPNS_10shared_ptrIN4inja7AstNodeEEES5_E8__unwrapB8ne200100ES5_S5_
FNA:0,1954,_ZNSt3__119__unwrap_range_implIPNS_12basic_stringIcNS_11char_traitsIcEENS_9allocatorIcEEEES7_E8__unwrapB8ne200100ES7_S7_
FNA:0,0,_ZNSt3__119__unwrap_range_implIPNS_4pairImPKcEES5_E8__unwrapB8ne200100ES5_S5_
FNA:0,0,_ZNSt3__119__unwrap_range_implIPNS_9sub_matchIPKcEES5_E8__unwrapB8ne200100ES5_S5_
FNA:0,0,_ZNSt3__119__unwrap_range_implIPPNS_10shared_ptrIN4inja12FunctionNodeEEES6_E8__unwrapB8ne200100ES6_S6_
FNA:0,0,_ZNSt3__119__unwrap_range_implIPPNS_10unique_ptrIN4dbal8adapters3sql13SqlConnectionENS_14default_deleteIS5_EEEESA_E8__unwrapB8ne200100ESA_SA_
FNA:0,0,_ZNSt3__119__unwrap_range_implIPPNS_7__stateIcEES4_E8__unwrapB8ne200100ES4_S4_
FNA:0,0,_ZNSt3__119__unwrap_range_implIPPPKN4inja8DataNodeES6_E8__unwrapB8ne200100ES6_S6_
FNA:0,0,_ZNSt3__119__unwrap_range_implIPPPKN8nlohmann16json_abi_v3_11_310basic_jsonINS_3mapENS_6vectorENS_12basic_stringIcNS_11char_traitsIcEENS_9allocatorIcEEEEbxydS9_NS2_14adl_serializerENS5_IhNS9_IhEEEEvEESJ_E8__unwrapB8ne200100ESJ_SJ_
FNA:0,0,_ZNSt3__119__unwrap_range_implIPPPN4inja15IfStatementNodeES5_E8__unwrapB8ne200100ES5_S5_
FNA:0,0,_ZNSt3__119__unwrap_range_implIPPPN4inja16ForStatementNodeES5_E8__unwrapB8ne200100ES5_S5_
FNA:0,0,_ZNSt3__119__unwrap_range_implIPPPN4inja18BlockStatementNodeES5_E8__unwrapB8ne200100ES5_S5_
FNA:0,0,_ZNSt3__119__unwrap_range_implIPhS1_E8__unwrapB8ne200100ES1_S1_
FNL:1,69,70
FNA:1,5627,_ZNSt3__119__unwrap_range_implINS_11__wrap_iterIPN8nlohmann16json_abi_v3_11_310basic_jsonINS_3mapENS_6vectorENS_12basic_stringIcNS_11char_traitsIcEENS_9allocatorIcEEEEbxydSA_NS3_14adl_serializerENS6_IhNSA_IhEEEEvEEEESI_E8__rewrapB8ne200100ESI_SH_
FNA:1,165,_ZNSt3__119__unwrap_range_implINS_14__bit_iteratorINS_6vectorIbNS_9allocatorIbEEEELb0ELm0EEES6_E8__rewrapB8ne200100ES6_S6_
FNA:1,1908,_ZNSt3__119__unwrap_range_implIPKNS_10shared_ptrIN4inja14ExpressionNodeEEES6_E8__rewrapB8ne200100ES6_S6_
FNA:1,0,_ZNSt3__119__unwrap_range_implIPKNS_12basic_stringIcNS_11char_traitsIcEENS_9allocatorIcEEEES8_E8__rewrapB8ne200100ES8_S8_
FNA:1,0,_ZNSt3__119__unwrap_range_implIPN4dbal4core11EntityFieldES4_E8__rewrapB8ne200100ES4_S4_
FNA:1,0,_ZNSt3__119__unwrap_range_implIPN4dbal4core11EntityIndexES4_E8__rewrapB8ne200100ES4_S4_
FNA:1,49,_ZNSt3__119__unwrap_range_implIPN4dbal4core11RelationDefES4_E8__rewrapB8ne200100ES4_S4_
FNA:1,0,_ZNSt3__119__unwrap_range_implIPN4dbal8adapters11EntityFieldES4_E8__rewrapB8ne200100ES4_S4_
FNA:1,114,_ZNSt3__119__unwrap_range_implIPN4dbal8adapters11RelationDefES4_E8__rewrapB8ne200100ES4_S4_
FNA:1,4,_ZNSt3__119__unwrap_range_implIPN8nlohmann16json_abi_v3_11_310basic_jsonINS_3mapENS_6vectorENS_12basic_stringIcNS_11char_traitsIcEENS_9allocatorIcEEEEbxydS9_NS2_14adl_serializerENS5_IhNS9_IhEEEEvEESG_E8__rewrapB8ne200100ESG_SG_
FNA:1,0,_ZNSt3__119__unwrap_range_implIPNS_10shared_ptrIN4inja14ExpressionNodeEEES5_E8__rewrapB8ne200100ES5_S5_
FNA:1,1026,_ZNSt3__119__unwrap_range_implIPNS_12basic_stringIcNS_11char_traitsIcEENS_9allocatorIcEEEES7_E8__rewrapB8ne200100ES7_S7_
FNA:1,0,_ZNSt3__119__unwrap_range_implIPNS_4pairImPKcEES5_E8__rewrapB8ne200100ES5_S5_
FNA:1,0,_ZNSt3__119__unwrap_range_implIPNS_9sub_matchIPKcEES5_E8__rewrapB8ne200100ES5_S5_
FNA:1,0,_ZNSt3__119__unwrap_range_implIPPNS_10shared_ptrIN4inja12FunctionNodeEEES6_E8__rewrapB8ne200100ES6_S6_
FNA:1,0,_ZNSt3__119__unwrap_range_implIPPNS_10unique_ptrIN4dbal8adapters3sql13SqlConnectionENS_14default_deleteIS5_EEEESA_E8__rewrapB8ne200100ESA_SA_
FNA:1,0,_ZNSt3__119__unwrap_range_implIPPNS_7__stateIcEES4_E8__rewrapB8ne200100ES4_S4_
FNA:1,0,_ZNSt3__119__unwrap_range_implIPPPKN4inja8DataNodeES6_E8__rewrapB8ne200100ES6_S6_
FNA:1,0,_ZNSt3__119__unwrap_range_implIPPPKN8nlohmann16json_abi_v3_11_310basic_jsonINS_3mapENS_6vectorENS_12basic_stringIcNS_11char_traitsIcEENS_9allocatorIcEEEEbxydS9_NS2_14adl_serializerENS5_IhNS9_IhEEEEvEESJ_E8__rewrapB8ne200100ESJ_SJ_
FNA:1,0,_ZNSt3__119__unwrap_range_implIPPPN4inja15IfStatementNodeES5_E8__rewrapB8ne200100ES5_S5_
FNA:1,0,_ZNSt3__119__unwrap_range_implIPPPN4inja16ForStatementNodeES5_E8__rewrapB8ne200100ES5_S5_
FNA:1,0,_ZNSt3__119__unwrap_range_implIPPPN4inja18BlockStatementNodeES5_E8__rewrapB8ne200100ES5_S5_
FNA:1,0,_ZNSt3__119__unwrap_range_implIPhS1_E8__rewrapB8ne200100ES1_S1_
FNL:2,75,76
FNA:2,212,_ZNSt3__114__unwrap_rangeB8ne200100INS_11__wrap_iterIPKNS_12basic_stringIcNS_11char_traitsIcEENS_9allocatorIcEEEEEESA_EEDaT_T0_
FNA:2,0,_ZNSt3__114__unwrap_rangeB8ne200100INS_11__wrap_iterIPKiEES4_EEDaT_T0_
FNA:2,5627,_ZNSt3__114__unwrap_rangeB8ne200100INS_11__wrap_iterIPN8nlohmann16json_abi_v3_11_310basic_jsonINS_3mapENS_6vectorENS_12basic_stringIcNS_11char_traitsIcEENS_9allocatorIcEEEEbxydSA_NS3_14adl_serializerENS6_IhNSA_IhEEEEvEEEESI_EEDaT_T0_
FNA:2,165,_ZNSt3__114__unwrap_rangeB8ne200100INS_14__bit_iteratorINS_6vectorIbNS_9allocatorIbEEEELb0ELm0EEES6_EEDaT_T0_
FNA:2,65,_ZNSt3__114__unwrap_rangeB8ne200100IPKN4dbal8adapters3sql8SqlParamES6_EEDaT_T0_
FNA:2,1,_ZNSt3__114__unwrap_rangeB8ne200100IPKN8nlohmann16json_abi_v3_11_310basic_jsonINS_3mapENS_6vectorENS_12basic_stringIcNS_11char_traitsIcEENS_9allocatorIcEEEEbxydS9_NS2_14adl_serializerENS5_IhNS9_IhEEEEvEESH_EEDaT_T0_
FNA:2,173,_ZNSt3__114__unwrap_rangeB8ne200100IPKN8nlohmann16json_abi_v3_11_36detail8json_refINS2_10basic_jsonINS_3mapENS_6vectorENS_12basic_stringIcNS_11char_traitsIcEENS_9allocatorIcEEEEbxydSB_NS2_14adl_serializerENS7_IhNSB_IhEEEEvEEEESK_EEDaT_T0_
FNA:2,1908,_ZNSt3__114__unwrap_rangeB8ne200100IPKNS_10shared_ptrIN4inja14ExpressionNodeEEES6_EEDaT_T0_
FNA:2,20,_ZNSt3__114__unwrap_rangeB8ne200100IPKNS_12basic_stringIcNS_11char_traitsIcEENS_9allocatorIcEEEES8_EEDaT_T0_
FNA:2,4,_ZNSt3__114__unwrap_rangeB8ne200100IPN4dbal15FilterConditionES3_EEDaT_T0_
FNA:2,494,_ZNSt3__114__unwrap_rangeB8ne200100IPN4dbal4core11EntityFieldES4_EEDaT_T0_
FNA:2,494,_ZNSt3__114__unwrap_rangeB8ne200100IPN4dbal4core11EntityIndexES4_EEDaT_T0_
FNA:2,49,_ZNSt3__114__unwrap_rangeB8ne200100IPN4dbal4core11RelationDefES4_EEDaT_T0_
FNA:2,698,_ZNSt3__114__unwrap_rangeB8ne200100IPN4dbal8adapters11EntityFieldES4_EEDaT_T0_
FNA:2,114,_ZNSt3__114__unwrap_rangeB8ne200100IPN4dbal8adapters11RelationDefES4_EEDaT_T0_
FNA:2,163,_ZNSt3__114__unwrap_rangeB8ne200100IPN4dbal8adapters15FieldDefinitionES4_EEDaT_T0_
FNA:2,163,_ZNSt3__114__unwrap_rangeB8ne200100IPN4dbal8adapters15IndexDefinitionES4_EEDaT_T0_
FNA:2,0,_ZNSt3__114__unwrap_rangeB8ne200100IPN4dbal8adapters18RelationDefinitionES4_EEDaT_T0_
FNA:2,33,_ZNSt3__114__unwrap_rangeB8ne200100IPN4dbal8adapters3sql8SqlParamES5_EEDaT_T0_
FNA:2,2291,_ZNSt3__114__unwrap_rangeB8ne200100IPN8nlohmann16json_abi_v3_11_310basic_jsonINS_3mapENS_6vectorENS_12basic_stringIcNS_11char_traitsIcEENS_9allocatorIcEEEEbxydS9_NS2_14adl_serializerENS5_IhNS9_IhEEEEvEESG_EEDaT_T0_
FNA:2,0,_ZNSt3__114__unwrap_rangeB8ne200100IPNS_10shared_ptrIN4inja14ExpressionNodeEEES5_EEDaT_T0_
FNA:2,0,_ZNSt3__114__unwrap_rangeB8ne200100IPNS_10shared_ptrIN4inja7AstNodeEEES5_EEDaT_T0_
FNA:2,1954,_ZNSt3__114__unwrap_rangeB8ne200100IPNS_12basic_stringIcNS_11char_traitsIcEENS_9allocatorIcEEEES7_EEDaT_T0_
FNA:2,0,_ZNSt3__114__unwrap_rangeB8ne200100IPNS_4pairImPKcEES5_EEDaT_T0_
FNA:2,0,_ZNSt3__114__unwrap_rangeB8ne200100IPNS_9sub_matchIPKcEES5_EEDaT_T0_
FNA:2,0,_ZNSt3__114__unwrap_rangeB8ne200100IPPNS_10shared_ptrIN4inja12FunctionNodeEEES6_EEDaT_T0_
FNA:2,0,_ZNSt3__114__unwrap_rangeB8ne200100IPPNS_10unique_ptrIN4dbal8adapters3sql13SqlConnectionENS_14default_deleteIS5_EEEESA_EEDaT_T0_
FNA:2,0,_ZNSt3__114__unwrap_rangeB8ne200100IPPNS_7__stateIcEES4_EEDaT_T0_
FNA:2,0,_ZNSt3__114__unwrap_rangeB8ne200100IPPPKN4inja8DataNodeES6_EEDaT_T0_
FNA:2,0,_ZNSt3__114__unwrap_rangeB8ne200100IPPPKN8nlohmann16json_abi_v3_11_310basic_jsonINS_3mapENS_6vectorENS_12basic_stringIcNS_11char_traitsIcEENS_9allocatorIcEEEEbxydS9_NS2_14adl_serializerENS5_IhNS9_IhEEEEvEESJ_EEDaT_T0_
FNA:2,0,_ZNSt3__114__unwrap_rangeB8ne200100IPPPN4inja15IfStatementNodeES5_EEDaT_T0_
FNA:2,0,_ZNSt3__114__unwrap_rangeB8ne200100IPPPN4inja16ForStatementNodeES5_EEDaT_T0_
FNA:2,0,_ZNSt3__114__unwrap_rangeB8ne200100IPPPN4inja18BlockStatementNodeES5_EEDaT_T0_
FNA:2,0,_ZNSt3__114__unwrap_rangeB8ne200100IPhS1_EEDaT_T0_
FNL:3,80,81
FNA:3,5627,_ZNSt3__114__rewrap_rangeB8ne200100INS_11__wrap_iterIPN8nlohmann16json_abi_v3_11_310basic_jsonINS_3mapENS_6vectorENS_12basic_stringIcNS_11char_traitsIcEENS_9allocatorIcEEEEbxydSA_NS3_14adl_serializerENS6_IhNSA_IhEEEEvEEEESI_SH_EET0_SJ_T1_
FNA:3,165,_ZNSt3__114__rewrap_rangeB8ne200100INS_14__bit_iteratorINS_6vectorIbNS_9allocatorIbEEEELb0ELm0EEES6_S6_EET0_S7_T1_
FNA:3,1908,_ZNSt3__114__rewrap_rangeB8ne200100IPKNS_10shared_ptrIN4inja14ExpressionNodeEEES6_S6_EET0_S7_T1_
FNA:3,0,_ZNSt3__114__rewrap_rangeB8ne200100IPKNS_12basic_stringIcNS_11char_traitsIcEENS_9allocatorIcEEEES8_S8_EET0_S9_T1_
FNA:3,0,_ZNSt3__114__rewrap_rangeB8ne200100IPN4dbal4core11EntityFieldES4_S4_EET0_S5_T1_
FNA:3,0,_ZNSt3__114__rewrap_rangeB8ne200100IPN4dbal4core11EntityIndexES4_S4_EET0_S5_T1_
FNA:3,49,_ZNSt3__114__rewrap_rangeB8ne200100IPN4dbal4core11RelationDefES4_S4_EET0_S5_T1_
FNA:3,0,_ZNSt3__114__rewrap_rangeB8ne200100IPN4dbal8adapters11EntityFieldES4_S4_EET0_S5_T1_
FNA:3,114,_ZNSt3__114__rewrap_rangeB8ne200100IPN4dbal8adapters11RelationDefES4_S4_EET0_S5_T1_
FNA:3,4,_ZNSt3__114__rewrap_rangeB8ne200100IPN8nlohmann16json_abi_v3_11_310basic_jsonINS_3mapENS_6vectorENS_12basic_stringIcNS_11char_traitsIcEENS_9allocatorIcEEEEbxydS9_NS2_14adl_serializerENS5_IhNS9_IhEEEEvEESG_SG_EET0_SH_T1_
FNA:3,0,_ZNSt3__114__rewrap_rangeB8ne200100IPNS_10shared_ptrIN4inja14ExpressionNodeEEES5_S5_EET0_S6_T1_
FNA:3,1026,_ZNSt3__114__rewrap_rangeB8ne200100IPNS_12basic_stringIcNS_11char_traitsIcEENS_9allocatorIcEEEES7_S7_EET0_S8_T1_
FNA:3,0,_ZNSt3__114__rewrap_rangeB8ne200100IPNS_4pairImPKcEES5_S5_EET0_S6_T1_
FNA:3,0,_ZNSt3__114__rewrap_rangeB8ne200100IPNS_9sub_matchIPKcEES5_S5_EET0_S6_T1_
FNA:3,0,_ZNSt3__114__rewrap_rangeB8ne200100IPPNS_10shared_ptrIN4inja12FunctionNodeEEES6_S6_EET0_S7_T1_
FNA:3,0,_ZNSt3__114__rewrap_rangeB8ne200100IPPNS_10unique_ptrIN4dbal8adapters3sql13SqlConnectionENS_14default_deleteIS5_EEEESA_SA_EET0_SB_T1_
FNA:3,0,_ZNSt3__114__rewrap_rangeB8ne200100IPPNS_7__stateIcEES4_S4_EET0_S5_T1_
FNA:3,0,_ZNSt3__114__rewrap_rangeB8ne200100IPPPKN4inja8DataNodeES6_S6_EET0_S7_T1_
FNA:3,0,_ZNSt3__114__rewrap_rangeB8ne200100IPPPKN8nlohmann16json_abi_v3_11_310basic_jsonINS_3mapENS_6vectorENS_12basic_stringIcNS_11char_traitsIcEENS_9allocatorIcEEEEbxydS9_NS2_14adl_serializerENS5_IhNS9_IhEEEEvEESJ_SJ_EET0_SK_T1_
FNA:3,0,_ZNSt3__114__rewrap_rangeB8ne200100IPPPN4inja15IfStatementNodeES5_S5_EET0_S6_T1_
FNA:3,0,_ZNSt3__114__rewrap_rangeB8ne200100IPPPN4inja16ForStatementNodeES5_S5_EET0_S6_T1_
FNA:3,0,_ZNSt3__114__rewrap_rangeB8ne200100IPPPN4inja18BlockStatementNodeES5_S5_EET0_S6_T1_
FNA:3,0,_ZNSt3__114__rewrap_rangeB8ne200100IPhS1_S1_EET0_S2_T1_
FNF:4
FNH:4
DA:64,14628
DA:65,14628
DA:69,8893
DA:70,8893
DA:75,14628
DA:76,14628
DA:80,8893
DA:81,8893
LF:8
LH:8
end_of_record
TN:
SF:/Library/Developer/CommandLineTools/SDKs/MacOSX.sdk/usr/include/c++/v1/__atomic/atomic.h
FNL:0,137,137
FNA:0,51,_ZNSt3__113__atomic_baseIbLb0EEC2B8ne200100Eb
FNA:0,4,_ZNSt3__113__atomic_baseIiLb0EEC2B8ne200100Ei
FNL:1,150,150
FNA:1,4,_ZNSt3__113__atomic_baseIiLb1EEC2B8ne200100Ei
FNL:2,155,156
FNA:2,5,_ZNSt3__113__atomic_baseIiLb1EE9fetch_addB8ne200100EiNS_12memory_orderE
FNL:3,241,241
FNA:3,51,_ZNSt3__16atomicIbEC1B8ne200100Eb
FNA:3,51,_ZNSt3__16atomicIbEC2B8ne200100Eb
FNA:3,4,_ZNSt3__16atomicIiEC1B8ne200100Ei
FNA:3,4,_ZNSt3__16atomicIiEC2B8ne200100Ei
FNL:4,247,249
FNA:4,4,_ZNSt3__16atomicIbEaSB8ne200100Eb
FNL:5,57,60
FNA:5,5,_ZNSt3__113__atomic_baseIbLb0EE5storeB8ne200100EbNS_12memory_orderE
FNL:6,65,67
FNA:6,1032,_ZNKSt3__113__atomic_baseIbLb0EE4loadB8ne200100ENS_12memory_orderE
FNA:6,2298,_ZNKSt3__113__atomic_baseIiLb0EE4loadB8ne200100ENS_12memory_orderE
FNL:7,70,70
FNA:7,4,_ZNKSt3__113__atomic_baseIbLb0EEcvbB8ne200100Ev
FNF:8
FNH:8
DA:57,5
DA:59,5
DA:60,5
DA:65,3330
DA:67,3330
DA:70,4
DA:137,55
DA:150,4
DA:155,5
DA:156,5
DA:241,110
DA:247,4
DA:248,4
DA:249,4
LF:14
LH:14
end_of_record
TN:
SF:/Library/Developer/CommandLineTools/SDKs/MacOSX.sdk/usr/include/c++/v1/__atomic/support.h
FNL:0,119,119
FNA:0,51,_ZNSt3__117__cxx_atomic_implIbNS_22__cxx_atomic_base_implIbEEEC1B8ne200100Eb
FNA:0,51,_ZNSt3__117__cxx_atomic_implIbNS_22__cxx_atomic_base_implIbEEEC2B8ne200100Eb
FNA:0,4,_ZNSt3__117__cxx_atomic_implIiNS_22__cxx_atomic_base_implIiEEEC1B8ne200100Ei
FNA:0,4,_ZNSt3__117__cxx_atomic_implIiNS_22__cxx_atomic_base_implIiEEEC2B8ne200100Ei
FNF:1
FNH:1
DA:119,110
LF:1
LH:1
end_of_record
TN:
SF:/Library/Developer/CommandLineTools/SDKs/MacOSX.sdk/usr/include/c++/v1/__atomic/support/c11.h
FNL:0,180,182
FNA:0,5,_ZNSt3__122__cxx_atomic_fetch_addB8ne200100IiEET_PNS_22__cxx_atomic_base_implIS1_EES1_NS_12memory_orderE
FNL:1,37,37
FNA:1,51,_ZNSt3__122__cxx_atomic_base_implIbEC2Eb
FNA:1,4,_ZNSt3__122__cxx_atomic_base_implIiEC2Ei
FNL:2,67,69
FNA:2,5,_ZNSt3__118__cxx_atomic_storeB8ne200100IbEEvPNS_22__cxx_atomic_base_implIT_EES2_NS_12memory_orderE
FNL:3,79,82
FNA:3,1032,_ZNSt3__117__cxx_atomic_loadB8ne200100IbEET_PKNS_22__cxx_atomic_base_implIS1_EENS_12memory_orderE
FNA:3,2298,_ZNSt3__117__cxx_atomic_loadB8ne200100IiEET_PKNS_22__cxx_atomic_base_implIS1_EENS_12memory_orderE
FNF:4
FNH:4
DA:37,55
DA:67,5
DA:68,5
DA:69,5
DA:79,3330
DA:81,3330
DA:82,3330
DA:180,5
DA:181,5
DA:182,5
LF:10
LH:10
end_of_record
TN:
SF:/Library/Developer/CommandLineTools/SDKs/MacOSX.sdk/usr/include/c++/v1/__bit/blsr.h
FNL:0,28,29
FNA:0,0,_ZNSt3__113__libcpp_blsrB8ne200100Ey
FNF:1
FNH:0
DA:28,0
DA:29,0
LF:2
LH:0
end_of_record
TN:
SF:/Library/Developer/CommandLineTools/SDKs/MacOSX.sdk/usr/include/c++/v1/__bit/countl.h
FNL:0,34,35
FNA:0,0,_ZNSt3__112__libcpp_clzB8ne200100Em
FNL:1,38,39
FNA:1,0,_ZNSt3__112__libcpp_clzB8ne200100Ey
FNF:2
FNH:0
DA:34,0
DA:35,0
DA:38,0
DA:39,0
LF:4
LH:0
end_of_record
TN:
SF:/Library/Developer/CommandLineTools/SDKs/MacOSX.sdk/usr/include/c++/v1/__bit/countr.h
FNL:0,37,38
FNA:0,0,_ZNSt3__112__libcpp_ctzB8ne200100Ey
FNF:1
FNH:0
DA:37,0
DA:38,0
LF:2
LH:0
end_of_record
TN:
SF:/Library/Developer/CommandLineTools/SDKs/MacOSX.sdk/usr/include/c++/v1/__bit_reference
FNL:0,101
FNA:0,0,_ZNSt3__115__bit_referenceINS_6vectorIbNS_9allocatorIbEEEELb1EEaSB8ne200100ERKS5_
FNL:1,112
FNA:1,6691,_ZNSt3__115__bit_referenceINS_6vectorIbNS_9allocatorIbEEEELb1EEC1B8ne200100EPmm
FNA:1,6691,_ZNSt3__115__bit_referenceINS_6vectorIbNS_9allocatorIbEEEELb1EEC2B8ne200100EPmm
FNL:2,76
FNA:2,4733,_ZNKSt3__115__bit_referenceINS_6vectorIbNS_9allocatorIbEEEELb1EEcvbB8ne200100Ev
FNL:3,83
FNA:3,1958,_ZNSt3__115__bit_referenceINS_6vectorIbNS_9allocatorIbEEEELb1EEaSB8ne200100Eb
FNL:4,830
FNA:4,6600,_ZNSt3__114__bit_iteratorINS_6vectorIbNS_9allocatorIbEEEELb0ELm0EEC1B8ne200100ERKS5_
FNA:4,6600,_ZNSt3__114__bit_iteratorINS_6vectorIbNS_9allocatorIbEEEELb0ELm0EEC2B8ne200100ERKS5_
FNL:5,846
FNA:5,0,_ZNKSt3__114__bit_iteratorINS_6vectorIbNS_9allocatorIbEEEELb0ELm0EEdeB8ne200100Ev
FNL:6,851
FNA:6,0,_ZNSt3__114__bit_iteratorINS_6vectorIbNS_9allocatorIbEEEELb0ELm0EEppB8ne200100Ev
FNL:7,925
FNA:7,165,_ZNSt3__1eqB8ne200100ERKNS_14__bit_iteratorINS_6vectorIbNS_9allocatorIbEEEELb0ELm0EEES7_
FNL:8,969
FNA:8,495,_ZNSt3__114__bit_iteratorINS_6vectorIbNS_9allocatorIbEEEELb0ELm0EEC1B8ne200100EPmj
FNA:8,495,_ZNSt3__114__bit_iteratorINS_6vectorIbNS_9allocatorIbEEEELb0ELm0EEC2B8ne200100EPmj
FNF:9
FNH:6
DA:76,4733
DA:77,4733
DA:83,1958
DA:84,1958
DA:85,326
DA:87,1632
DA:88,1958
DA:101,0
DA:102,0
DA:112,13382
DA:113,6691
DA:114,13382
DA:830,13200
DA:831,6600
DA:832,13200
DA:846,0
DA:847,0
DA:848,0
DA:851,0
DA:852,0
DA:853,0
DA:855,0
DA:856,0
DA:858,0
DA:925,165
DA:926,165
DA:969,990
DA:970,495
DA:971,990
LF:29
LH:18
end_of_record
TN:
SF:/Library/Developer/CommandLineTools/SDKs/MacOSX.sdk/usr/include/c++/v1/__chrono/duration.h
FNL:0,105,106
FNA:0,0,_ZNSt3__16chrono13duration_castB8ne200100INS0_8durationIxNS_5ratioILl1ELl1000000000EEEEExNS3_ILl1ELl1EEELi0EEET_RKNS2_IT0_T1_EE
FNL:1,120,120
FNA:1,0,_ZNSt3__16chrono15duration_valuesIxE4zeroB8ne200100Ev
FNL:2,209,209
FNA:2,110,_ZNSt3__16chrono8durationIxNS_5ratioILl1ELl1000000000EEEEC1B8ne200100IxLi0EEERKT_
FNA:2,110,_ZNSt3__16chrono8durationIxNS_5ratioILl1ELl1000000000EEEEC2B8ne200100IxLi0EEERKT_
FNA:2,4,_ZNSt3__16chrono8durationIxNS_5ratioILl1ELl1EEEEC1B8ne200100IiLi0EEERKT_
FNA:2,4,_ZNSt3__16chrono8durationIxNS_5ratioILl1ELl1EEEEC2B8ne200100IiLi0EEERKT_
FNL:3,218,219
FNA:3,0,_ZNSt3__16chrono8durationIxNS_5ratioILl1ELl1000000000EEEEC1B8ne200100IxNS2_ILl1ELl1EEELi0EEERKNS1_IT_T0_EE
FNA:3,0,_ZNSt3__16chrono8durationIxNS_5ratioILl1ELl1000000000EEEEC2B8ne200100IxNS2_ILl1ELl1EEELi0EEERKNS1_IT_T0_EE
FNL:4,223,223
FNA:4,330,_ZNKSt3__16chrono8durationIxNS_5ratioILl1ELl1000000000EEEE5countB8ne200100Ev
FNA:4,3180,_ZNKSt3__16chrono8durationIxNS_5ratioILl1ELl1EEEE5countB8ne200100Ev
FNL:5,272,273
FNA:5,0,_ZNSt3__16chrono8durationIxNS_5ratioILl1ELl1000000000EEEE4zeroB8ne200100Ev
FNL:6,382,384
FNA:6,0,_ZNSt3__16chronossB8ne200100IxNS_5ratioILl1ELl1000000000EEExS3_EEDaRKNS0_8durationIT_T0_EERKNS5_IT1_T2_EE
FNL:7,394,396
FNA:7,0,_ZNSt3__16chronoplB8ne200100IxNS_5ratioILl1ELl1000000000EEExNS2_ILl1ELl1EEEEENS_11common_typeIJNS0_8durationIT_T0_EENS6_IT1_T2_EEEE4typeERKS9_RKSC_
FNL:8,88,91
FNA:8,0,_ZNKSt3__16chrono15__duration_castINS0_8durationIxNS_5ratioILl1ELl1EEEEENS2_IxNS3_ILl1ELl1000000000EEEEENS3_ILl1000000000ELl1EEELb0ELb1EEclB8ne200100ERKS5_
FNF:9
FNH:2
DA:88,0
DA:90,0
DA:91,0
DA:105,0
DA:106,0
DA:120,0
DA:209,228
DA:218,0
DA:219,0
DA:223,3510
DA:272,0
DA:273,0
DA:382,0
DA:384,0
DA:394,0
DA:396,0
LF:16
LH:2
end_of_record
TN:
SF:/Library/Developer/CommandLineTools/SDKs/MacOSX.sdk/usr/include/c++/v1/__chrono/time_point.h
FNL:0,170,171
FNA:0,0,_ZNSt3__16chronossB8ne200100INS0_12steady_clockENS0_8durationIxNS_5ratioILl1ELl1000000000EEEEES6_EEDaRKNS0_10time_pointIT_T0_EERKNS8_IS9_T1_EE
FNL:1,181,183
FNA:1,0,_ZNSt3__16chronoplB8ne200100INS0_12steady_clockENS0_8durationIxNS_5ratioILl1ELl1000000000EEEEExNS4_ILl1ELl1EEEEENS0_10time_pointIT_NS_11common_typeIJT0_NS3_IT1_T2_EEEE4typeEEERKNS8_IS9_SB_EERKSE_
FNL:2,47,47
FNA:2,0,_ZNSt3__16chrono10time_pointINS0_12steady_clockENS0_8durationIxNS_5ratioILl1ELl1000000000EEEEEEC1B8ne200100Ev
FNA:2,0,_ZNSt3__16chrono10time_pointINS0_12steady_clockENS0_8durationIxNS_5ratioILl1ELl1000000000EEEEEEC2B8ne200100Ev
FNL:3,48,48
FNA:3,0,_ZNSt3__16chrono10time_pointINS0_12steady_clockENS0_8durationIxNS_5ratioILl1ELl1000000000EEEEEEC1B8ne200100ERKS6_
FNA:3,0,_ZNSt3__16chrono10time_pointINS0_12steady_clockENS0_8durationIxNS_5ratioILl1ELl1000000000EEEEEEC2B8ne200100ERKS6_
FNL:4,57,57
FNA:4,220,_ZNKSt3__16chrono10time_pointINS0_12steady_clockENS0_8durationIxNS_5ratioILl1ELl1000000000EEEEEE16time_since_epochB8ne200100Ev
FNF:5
FNH:1
DA:47,0
DA:48,0
DA:57,220
DA:170,0
DA:171,0
DA:181,0
DA:183,0
LF:7
LH:1
end_of_record
TN:
SF:/Library/Developer/CommandLineTools/SDKs/MacOSX.sdk/usr/include/c++/v1/__compare/ordering.h
FNL:0,204,206
FNA:0,0,_ZNKSt3__115strong_orderingcvNS_16partial_orderingEB8ne200100Ev
FNL:1,216,217
FNA:1,7314,_ZNSt3__1eqB8ne200100ENS_15strong_orderingENS_20_CmpUnspecifiedParamE
FNL:2,220,221
FNA:2,409759,_ZNSt3__1ltB8ne200100ENS_15strong_orderingENS_20_CmpUnspecifiedParamE
FNL:3,224,225
FNA:3,0,_ZNSt3__1leB8ne200100ENS_15strong_orderingENS_20_CmpUnspecifiedParamE
FNL:4,232,233
FNA:4,0,_ZNSt3__1geB8ne200100ENS_15strong_orderingENS_20_CmpUnspecifiedParamE
FNL:5,236,237
FNA:5,9489,_ZNSt3__1ltB8ne200100ENS_20_CmpUnspecifiedParamENS_15strong_orderingE
FNL:6,240,241
FNA:6,0,_ZNSt3__1leB8ne200100ENS_20_CmpUnspecifiedParamENS_15strong_orderingE
FNL:7,67,68
FNA:7,0,_ZNSt3__1eqB8ne200100ENS_16partial_orderingENS_20_CmpUnspecifiedParamE
FNL:8,71,72
FNA:8,0,_ZNSt3__1ltB8ne200100ENS_16partial_orderingENS_20_CmpUnspecifiedParamE
FNL:9,75,76
FNA:9,0,_ZNSt3__1leB8ne200100ENS_16partial_orderingENS_20_CmpUnspecifiedParamE
FNL:10,79,80
FNA:10,0,_ZNSt3__1gtB8ne200100ENS_16partial_orderingENS_20_CmpUnspecifiedParamE
FNL:11,83,84
FNA:11,0,_ZNSt3__1geB8ne200100ENS_16partial_orderingENS_20_CmpUnspecifiedParamE
FNF:12
FNH:3
DA:67,0
DA:68,0
DA:71,0
DA:72,0
DA:75,0
DA:76,0
DA:79,0
DA:80,0
DA:83,0
DA:84,0
DA:204,0
DA:205,0
DA:206,0
DA:216,7314
DA:217,7314
DA:220,409759
DA:221,409759
DA:224,0
DA:225,0
DA:232,0
DA:233,0
DA:236,9489
DA:237,9489
DA:240,0
DA:241,0
LF:25
LH:6
end_of_record
TN:
SF:/Library/Developer/CommandLineTools/SDKs/MacOSX.sdk/usr/include/c++/v1/__compare/synth_three_way.h
FNL:0,28,35
FNA:0,0,_ZNKSt3__117__synth_three_wayMUlTyTyRKT_RKT0_E_clIN8nlohmann16json_abi_v3_11_310basic_jsonINS_3mapENS_6vectorENS_12basic_stringIcNS_11char_traitsIcEENS_9allocatorIcEEEEbxydSG_NS9_14adl_serializerENSC_IhNSG_IhEEEEvEESM_EEDaS2_S5_
FNA:0,7314,_ZNKSt3__117__synth_three_wayMUlTyTyRKT_RKT0_E_clINS_12basic_stringIcNS_11char_traitsIcEENS_9allocatorIcEEEESD_EEDaS2_S5_
FNA:0,0,_ZNKSt3__117__synth_three_wayMUlTyTyRKT_RKT0_E_clINS_4pairIKNS_12basic_stringIcNS_11char_traitsIcEENS_9allocatorIcEEEEN8nlohmann16json_abi_v3_11_310basic_jsonINS_3mapENS_6vectorESE_bxydSC_NSH_14adl_serializerENSK_IhNSC_IhEEEEvEEEESP_EEDaS2_S5_
FNA:0,0,_ZNKSt3__117__synth_three_wayMUlTyTyRKT_RKT0_E_clIhhEEDaS2_S5_
FNA:0,424,_ZNKSt3__117__synth_three_wayMUlTyTyRKT_RKT0_E_clIiiEEDaS2_S5_
FNF:1
FNH:1
DA:28,7738
DA:35,7738
LF:2
LH:2
end_of_record
TN:
SF:/Library/Developer/CommandLineTools/SDKs/MacOSX.sdk/usr/include/c++/v1/__debug_utils/randomize_range.h
FNL:0,26,38
FNA:0,0,_ZNSt3__123__debug_randomize_rangeB8ne200100INS_17_ClassicAlgPolicyEN8nlohmann16json_abi_v3_11_36detail9iter_implINS3_10basic_jsonINS_3mapENS_6vectorENS_12basic_stringIcNS_11char_traitsIcEENS_9allocatorIcEEEEbxydSC_NS3_14adl_serializerENS8_IhNSC_IhEEEEvEEEESJ_EEvT0_T1_
FNF:1
FNH:0
DA:26,0
DA:38,0
LF:2
LH:0
end_of_record
TN:
SF:/Library/Developer/CommandLineTools/SDKs/MacOSX.sdk/usr/include/c++/v1/__debug_utils/strict_weak_ordering_check.h
FNL:0,28,73
FNA:0,0,_ZNSt3__135__check_strict_weak_ordering_sortedB8ne200100IN8nlohmann16json_abi_v3_11_36detail9iter_implINS2_10basic_jsonINS_3mapENS_6vectorENS_12basic_stringIcNS_11char_traitsIcEENS_9allocatorIcEEEEbxydSB_NS2_14adl_serializerENS7_IhNSB_IhEEEEvEEEENS_6__lessIvvEEEEvT_SL_RT0_
FNF:1
FNH:0
DA:28,0
DA:71,0
DA:73,0
LF:3
LH:0
end_of_record
TN:
SF:/Library/Developer/CommandLineTools/SDKs/MacOSX.sdk/usr/include/c++/v1/__exception/exception.h
FNL:0,74,74
FNA:0,0,_ZNSt9exceptionC2B8ne200100Ev
FNL:1,75,75
FNA:1,0,_ZNSt9exceptionC2B8ne200100ERKS_
FNF:2
FNH:0
DA:74,0
DA:75,0
LF:2
LH:0
end_of_record
TN:
SF:/Library/Developer/CommandLineTools/SDKs/MacOSX.sdk/usr/include/c++/v1/__filesystem/directory_entry.h
FNL:0,130,130
FNA:0,163,_ZNKSt3__14__fs10filesystem15directory_entry15is_regular_fileB8ne200100Ev
FNL:1,324,344
FNA:1,163,_ZNKSt3__14__fs10filesystem15directory_entry8__get_ftB8ne200100EPNS_10error_codeE
FNL:2,92,92
FNA:2,489,_ZNKSt3__14__fs10filesystem15directory_entry4pathB8ne200100Ev
FNF:3
FNH:3
DA:92,489
DA:130,163
DA:324,163
DA:325,163
DA:330,0
DA:335,163
DA:336,163
DA:337,0
DA:338,163
DA:339,0
DA:340,163
DA:341,163
DA:343,0
DA:344,163
LF:14
LH:10
end_of_record
TN:
SF:/Library/Developer/CommandLineTools/SDKs/MacOSX.sdk/usr/include/c++/v1/__filesystem/file_status.h
FNL:0,29,30
FNA:0,163,_ZNSt3__14__fs10filesystem11file_statusC1B8ne200100ENS1_9file_typeENS1_5permsE
FNA:0,163,_ZNSt3__14__fs10filesystem11file_statusC2B8ne200100ENS1_9file_typeENS1_5permsE
FNL:1,35,35
FNA:1,701,_ZNSt3__14__fs10filesystem11file_statusD1B8ne200100Ev
FNA:1,701,_ZNSt3__14__fs10filesystem11file_statusD2B8ne200100Ev
FNL:2,41,41
FNA:2,538,_ZNKSt3__14__fs10filesystem11file_status4typeB8ne200100Ev
FNF:3
FNH:3
DA:29,326
DA:30,326
DA:35,1402
DA:41,538
LF:4
LH:4
end_of_record
TN:
SF:/Library/Developer/CommandLineTools/SDKs/MacOSX.sdk/usr/include/c++/v1/__filesystem/operations.h
FNL:0,103,103
FNA:0,106,_ZNSt3__14__fs10filesystem18create_directoriesB8ne200100ERKNS1_4pathE
FNL:1,147,147
FNA:1,269,_ZNSt3__14__fs10filesystem12status_knownB8ne200100ENS1_11file_statusE
FNL:2,148,149
FNA:2,269,_ZNSt3__14__fs10filesystem6existsB8ne200100ENS1_11file_statusE
FNL:3,151,151
FNA:3,269,_ZNSt3__14__fs10filesystem6existsB8ne200100ERKNS1_4pathE
FNL:4,180,180
FNA:4,0,_ZNSt3__14__fs10filesystem12is_directoryB8ne200100ENS1_11file_statusE
FNL:5,181,181
FNA:5,0,_ZNSt3__14__fs10filesystem12is_directoryB8ne200100ERKNS1_4pathE
FNL:6,193,193
FNA:6,0,_ZNSt3__14__fs10filesystem15is_regular_fileB8ne200100ENS1_11file_statusE
FNL:7,194,194
FNA:7,0,_ZNSt3__14__fs10filesystem15is_regular_fileB8ne200100ERKNS1_4pathE
FNL:8,270,270
FNA:8,106,_ZNSt3__14__fs10filesystem10remove_allB8ne200100ERKNS1_4pathE
FNL:9,297,297
FNA:9,106,_ZNSt3__14__fs10filesystem19temp_directory_pathB8ne200100Ev
FNF:10
FNH:6
DA:103,106
DA:147,269
DA:148,269
DA:149,269
DA:151,269
DA:180,0
DA:181,0
DA:193,0
DA:194,0
DA:270,106
DA:297,106
LF:11
LH:7
end_of_record
TN:
SF:/Library/Developer/CommandLineTools/SDKs/MacOSX.sdk/usr/include/c++/v1/__filesystem/path.h
FNL:0,109,109
FNA:0,538,_ZNSt3__14__fs10filesystem20__is_pathable_stringINS_12basic_stringIcNS_11char_traitsIcEENS_9allocatorIcEEEEvE13__range_beginB8ne200100ERKS8_
FNL:1,111,111
FNA:1,538,_ZNSt3__14__fs10filesystem20__is_pathable_stringINS_12basic_stringIcNS_11char_traitsIcEENS_9allocatorIcEEEEvE11__range_endB8ne200100ERKS8_
FNL:2,137,137
FNA:2,269,_ZNSt3__14__fs10filesystem24__is_pathable_char_arrayIA14_cPccLb1EE13__range_beginB8ne200100EPKc
FNA:2,0,_ZNSt3__14__fs10filesystem24__is_pathable_char_arrayIA17_cPccLb1EE13__range_beginB8ne200100EPKc
FNA:2,106,_ZNSt3__14__fs10filesystem24__is_pathable_char_arrayIA1_cPccLb1EE13__range_beginB8ne200100EPKc
FNA:2,106,_ZNSt3__14__fs10filesystem24__is_pathable_char_arrayIA22_cPccLb1EE13__range_beginB8ne200100EPKc
FNA:2,163,_ZNSt3__14__fs10filesystem24__is_pathable_char_arrayIA6_cPccLb1EE13__range_beginB8ne200100EPKc
FNL:3,139,145
FNA:3,269,_ZNSt3__14__fs10filesystem24__is_pathable_char_arrayIA14_cPccLb1EE11__range_endB8ne200100EPKc
FNA:3,0,_ZNSt3__14__fs10filesystem24__is_pathable_char_arrayIA17_cPccLb1EE11__range_endB8ne200100EPKc
FNA:3,106,_ZNSt3__14__fs10filesystem24__is_pathable_char_arrayIA1_cPccLb1EE11__range_endB8ne200100EPKc
FNA:3,106,_ZNSt3__14__fs10filesystem24__is_pathable_char_arrayIA22_cPccLb1EE11__range_endB8ne200100EPKc
FNA:3,163,_ZNSt3__14__fs10filesystem24__is_pathable_char_arrayIA6_cPccLb1EE11__range_endB8ne200100EPKc
FNL:4,272,274
FNA:4,1182,_ZNSt3__14__fs10filesystem8_PathCVTIcE14__append_rangeB8ne200100IPKcLi0EEEvRNS_12basic_stringIcNS_11char_traitsIcEENS_9allocatorIcEEEET_SE_
FNL:5,284,287
FNA:5,269,_ZNSt3__14__fs10filesystem8_PathCVTIcE15__append_sourceB8ne200100IA14_cEEvRNS_12basic_stringIcNS_11char_traitsIcEENS_9allocatorIcEEEERKT_
FNA:5,0,_ZNSt3__14__fs10filesystem8_PathCVTIcE15__append_sourceB8ne200100IA17_cEEvRNS_12basic_stringIcNS_11char_traitsIcEENS_9allocatorIcEEEERKT_
FNA:5,106,_ZNSt3__14__fs10filesystem8_PathCVTIcE15__append_sourceB8ne200100IA1_cEEvRNS_12basic_stringIcNS_11char_traitsIcEENS_9allocatorIcEEEERKT_
FNA:5,106,_ZNSt3__14__fs10filesystem8_PathCVTIcE15__append_sourceB8ne200100IA22_cEEvRNS_12basic_stringIcNS_11char_traitsIcEENS_9allocatorIcEEEERKT_
FNA:5,163,_ZNSt3__14__fs10filesystem8_PathCVTIcE15__append_sourceB8ne200100IA6_cEEvRNS_12basic_stringIcNS_11char_traitsIcEENS_9allocatorIcEEEERKT_
FNA:5,538,_ZNSt3__14__fs10filesystem8_PathCVTIcE15__append_sourceB8ne200100INS_12basic_stringIcNS_11char_traitsIcEENS_9allocatorIcEEEEEEvRSA_RKT_
FNL:6,405,405
FNA:6,106,_ZNSt3__14__fs10filesystem4pathC1B8ne200100Ev
FNA:6,106,_ZNSt3__14__fs10filesystem4pathC2B8ne200100Ev
FNL:7,406,406
FNA:7,636,_ZNSt3__14__fs10filesystem4pathC1B8ne200100ERKS2_
FNA:7,636,_ZNSt3__14__fs10filesystem4pathC2B8ne200100ERKS2_
FNL:8,409,409
FNA:8,538,_ZNSt3__14__fs10filesystem4pathC1B8ne200100EONS_12basic_stringIcNS_11char_traitsIcEENS_9allocatorIcEEEENS2_6formatE
FNA:8,538,_ZNSt3__14__fs10filesystem4pathC2B8ne200100EONS_12basic_stringIcNS_11char_traitsIcEENS_9allocatorIcEEEENS2_6formatE
FNL:9,412,414
FNA:9,269,_ZNSt3__14__fs10filesystem4pathC1B8ne200100IA14_cvEERKT_NS2_6formatE
FNA:9,0,_ZNSt3__14__fs10filesystem4pathC1B8ne200100IA17_cvEERKT_NS2_6formatE
FNA:9,106,_ZNSt3__14__fs10filesystem4pathC1B8ne200100IA1_cvEERKT_NS2_6formatE
FNA:9,106,_ZNSt3__14__fs10filesystem4pathC1B8ne200100IA22_cvEERKT_NS2_6formatE
FNA:9,163,_ZNSt3__14__fs10filesystem4pathC1B8ne200100IA6_cvEERKT_NS2_6formatE
FNA:9,538,_ZNSt3__14__fs10filesystem4pathC1B8ne200100INS_12basic_stringIcNS_11char_traitsIcEENS_9allocatorIcEEEEvEERKT_NS2_6formatE
FNA:9,269,_ZNSt3__14__fs10filesystem4pathC2B8ne200100IA14_cvEERKT_NS2_6formatE
FNA:9,0,_ZNSt3__14__fs10filesystem4pathC2B8ne200100IA17_cvEERKT_NS2_6formatE
FNA:9,106,_ZNSt3__14__fs10filesystem4pathC2B8ne200100IA1_cvEERKT_NS2_6formatE
FNA:9,106,_ZNSt3__14__fs10filesystem4pathC2B8ne200100IA22_cvEERKT_NS2_6formatE
FNA:9,163,_ZNSt3__14__fs10filesystem4pathC2B8ne200100IA6_cvEERKT_NS2_6formatE
FNA:9,538,_ZNSt3__14__fs10filesystem4pathC2B8ne200100INS_12basic_stringIcNS_11char_traitsIcEENS_9allocatorIcEEEEvEERKT_NS2_6formatE
FNL:10,433,433
FNA:10,2568,_ZNSt3__14__fs10filesystem4pathD1B8ne200100Ev
FNA:10,2568,_ZNSt3__14__fs10filesystem4pathD2B8ne200100Ev
FNL:11,441,443
FNA:11,106,_ZNSt3__14__fs10filesystem4pathaSB8ne200100EOS2_
FNL:12,512,521
FNA:12,424,_ZNSt3__14__fs10filesystem4pathdVB8ne200100ERKS2_
FNL:13,632,633
FNA:13,326,_ZNSt3__14__fs10filesystemeqB8ne200100ERKNS1_4pathES4_
FNL:14,657,661
FNA:14,424,_ZNSt3__14__fs10filesystemdvB8ne200100ERKNS1_4pathES4_
FNL:15,669,669
FNA:15,212,_ZNKSt3__14__fs10filesystem4path6nativeB8ne200100Ev
FNL:16,671,671
FNA:16,212,_ZNKSt3__14__fs10filesystem4path5c_strB8ne200100Ev
FNL:17,731,731
FNA:17,375,_ZNKSt3__14__fs10filesystem4path6stringB8ne200100Ev
FNL:18,808,808
FNA:18,106,_ZNKSt3__14__fs10filesystem4path11parent_pathB8ne200100Ev
FNL:19,809,809
FNA:19,163,_ZNKSt3__14__fs10filesystem4path8filenameB8ne200100Ev
FNL:20,811,811
FNA:20,163,_ZNKSt3__14__fs10filesystem4path9extensionB8ne200100Ev
FNL:21,817,817
FNA:21,424,_ZNKSt3__14__fs10filesystem4path18has_root_directoryB8ne200100Ev
FNL:22,821,821
FNA:22,212,_ZNKSt3__14__fs10filesystem4path12has_filenameB8ne200100Ev
FNL:23,825,846
FNA:23,424,_ZNKSt3__14__fs10filesystem4path11is_absoluteB8ne200100Ev
FNF:24
FNH:24
DA:109,538
DA:111,538
DA:137,644
DA:139,644
DA:141,644
DA:142,644
DA:143,7182
DA:145,644
DA:272,1182
DA:273,1182
DA:274,1182
DA:284,1182
DA:286,1182
DA:287,1182
DA:405,212
DA:406,1272
DA:409,1076
DA:412,2364
DA:413,1182
DA:414,2364
DA:433,5136
DA:441,106
DA:442,106
DA:443,106
DA:512,424
DA:513,424
DA:514,212
DA:515,212
DA:517,212
DA:518,106
DA:519,212
DA:520,212
DA:521,424
DA:632,326
DA:633,326
DA:657,424
DA:658,424
DA:659,424
DA:660,424
DA:661,424
DA:669,212
DA:671,212
DA:731,375
DA:808,106
DA:809,163
DA:811,163
DA:817,424
DA:821,212
DA:825,424
DA:846,424
LF:50
LH:50
end_of_record
TN:
SF:/Library/Developer/CommandLineTools/SDKs/MacOSX.sdk/usr/include/c++/v1/__filesystem/recursive_directory_iterator.h
FNL:0,126,127
FNA:0,326,_ZNSt3__14__fs10filesystemeqB8ne200100ERKNS1_28recursive_directory_iteratorES4_
FNL:1,131,132
FNA:1,326,_ZNSt3__14__fs10filesystemneB8ne200100ERKNS1_28recursive_directory_iteratorES4_
FNL:2,135,136
FNA:2,163,_ZNSt3__14__fs10filesystem5beginB8ne200100ENS1_28recursive_directory_iteratorE
FNL:3,139,140
FNA:3,163,_ZNSt3__14__fs10filesystem3endB8ne200100ENS1_28recursive_directory_iteratorE
FNL:4,48,48
FNA:4,163,_ZNSt3__14__fs10filesystem28recursive_directory_iteratorC1B8ne200100Ev
FNA:4,163,_ZNSt3__14__fs10filesystem28recursive_directory_iteratorC2B8ne200100Ev
FNL:5,50,52
FNA:5,163,_ZNSt3__14__fs10filesystem28recursive_directory_iteratorC1B8ne200100ERKNS1_4pathENS1_17directory_optionsE
FNL:6,60,60
FNA:6,326,_ZNSt3__14__fs10filesystem28recursive_directory_iteratorC1B8ne200100ERKS2_
FNA:6,326,_ZNSt3__14__fs10filesystem28recursive_directory_iteratorC2B8ne200100ERKS2_
FNL:7,61,61
FNA:7,163,_ZNSt3__14__fs10filesystem28recursive_directory_iteratorC1B8ne200100EOS2_
FNA:7,163,_ZNSt3__14__fs10filesystem28recursive_directory_iteratorC2B8ne200100EOS2_
FNL:8,74,74
FNA:8,815,_ZNSt3__14__fs10filesystem28recursive_directory_iteratorD1B8ne200100Ev
FNA:8,815,_ZNSt3__14__fs10filesystem28recursive_directory_iteratorD2B8ne200100Ev
FNL:9,76,76
FNA:9,163,_ZNKSt3__14__fs10filesystem28recursive_directory_iteratordeB8ne200100Ev
FNL:10,80,80
FNA:10,163,_ZNSt3__14__fs10filesystem28recursive_directory_iteratorppB8ne200100Ev
FNF:11
FNH:11
DA:48,326
DA:50,163
DA:52,163
DA:60,652
DA:61,326
DA:74,1630
DA:76,163
DA:80,163
DA:126,326
DA:127,326
DA:131,326
DA:132,326
DA:135,163
DA:136,163
DA:139,163
DA:140,163
LF:16
LH:16
end_of_record
TN:
SF:/Library/Developer/CommandLineTools/SDKs/MacOSX.sdk/usr/include/c++/v1/__functional/function.h
FNL:0,352,352
FNA:0,0,_ZNSt3__110__function12__value_funcIFN8nlohmann16json_abi_v3_11_310basic_jsonINS_3mapENS_6vectorENS_12basic_stringIcNS_11char_traitsIcEENS_9allocatorIcEEEEbxydSA_NS3_14adl_serializerENS6_IhNSA_IhEEEEvEERNS6_IPKSG_NSA_ISI_EEEEEE9__as_baseB8ne200100EPv
FNA:0,0,_ZNSt3__110__function12__value_funcIFbiN8nlohmann16json_abi_v3_11_36detail13parse_event_tERNS3_10basic_jsonINS_3mapENS_6vectorENS_12basic_stringIcNS_11char_traitsIcEENS_9allocatorIcEEEEbxydSC_NS3_14adl_serializerENS8_IhNSC_IhEEEEvEEEE9__as_baseB8ne200100EPv
FNL:1,355,355
FNA:1,106,_ZNSt3__110__function12__value_funcIFN4inja8TemplateERKNS_4__fs10filesystem4pathERKNS_12basic_stringIcNS_11char_traitsIcEENS_9allocatorIcEEEEEEC1B8ne200100Ev
FNA:1,106,_ZNSt3__110__function12__value_funcIFN4inja8TemplateERKNS_4__fs10filesystem4pathERKNS_12basic_stringIcNS_11char_traitsIcEENS_9allocatorIcEEEEEEC2B8ne200100Ev
FNA:1,4028,_ZNSt3__110__function12__value_funcIFN8nlohmann16json_abi_v3_11_310basic_jsonINS_3mapENS_6vectorENS_12basic_stringIcNS_11char_traitsIcEENS_9allocatorIcEEEEbxydSA_NS3_14adl_serializerENS6_IhNSA_IhEEEEvEERNS6_IPKSG_NSA_ISI_EEEEEEC1B8ne200100Ev
FNA:1,4028,_ZNSt3__110__function12__value_funcIFN8nlohmann16json_abi_v3_11_310basic_jsonINS_3mapENS_6vectorENS_12basic_stringIcNS_11char_traitsIcEENS_9allocatorIcEEEEbxydSA_NS3_14adl_serializerENS6_IhNSA_IhEEEEvEERNS6_IPKSG_NSA_ISI_EEEEEEC2B8ne200100Ev
FNA:1,271,_ZNSt3__110__function12__value_funcIFbiN8nlohmann16json_abi_v3_11_36detail13parse_event_tERNS3_10basic_jsonINS_3mapENS_6vectorENS_12basic_stringIcNS_11char_traitsIcEENS_9allocatorIcEEEEbxydSC_NS3_14adl_serializerENS8_IhNSC_IhEEEEvEEEEC1B8ne200100Ev
FNA:1,271,_ZNSt3__110__function12__value_funcIFbiN8nlohmann16json_abi_v3_11_36detail13parse_event_tERNS3_10basic_jsonINS_3mapENS_6vectorENS_12basic_stringIcNS_11char_traitsIcEENS_9allocatorIcEEEEbxydSC_NS3_14adl_serializerENS8_IhNSC_IhEEEEvEEEEC2B8ne200100Ev
FNL:2,380,388
FNA:2,9964,_ZNSt3__110__function12__value_funcIFN8nlohmann16json_abi_v3_11_310basic_jsonINS_3mapENS_6vectorENS_12basic_stringIcNS_11char_traitsIcEENS_9allocatorIcEEEEbxydSA_NS3_14adl_serializerENS6_IhNSA_IhEEEEvEERNS6_IPKSG_NSA_ISI_EEEEEEC1B8ne200100ERKSN_
FNA:2,9964,_ZNSt3__110__function12__value_funcIFN8nlohmann16json_abi_v3_11_310basic_jsonINS_3mapENS_6vectorENS_12basic_stringIcNS_11char_traitsIcEENS_9allocatorIcEEEEbxydSA_NS3_14adl_serializerENS6_IhNSA_IhEEEEvEERNS6_IPKSG_NSA_ISI_EEEEEEC2B8ne200100ERKSN_
FNA:2,542,_ZNSt3__110__function12__value_funcIFbiN8nlohmann16json_abi_v3_11_36detail13parse_event_tERNS3_10basic_jsonINS_3mapENS_6vectorENS_12basic_stringIcNS_11char_traitsIcEENS_9allocatorIcEEEEbxydSC_NS3_14adl_serializerENS8_IhNSC_IhEEEEvEEEEC1B8ne200100ERKSL_
FNA:2,542,_ZNSt3__110__function12__value_funcIFbiN8nlohmann16json_abi_v3_11_36detail13parse_event_tERNS3_10basic_jsonINS_3mapENS_6vectorENS_12basic_stringIcNS_11char_traitsIcEENS_9allocatorIcEEEEbxydSC_NS3_14adl_serializerENS8_IhNSC_IhEEEEvEEEEC2B8ne200100ERKSL_
FNL:3,390,400
FNA:3,271,_ZNSt3__110__function12__value_funcIFbiN8nlohmann16json_abi_v3_11_36detail13parse_event_tERNS3_10basic_jsonINS_3mapENS_6vectorENS_12basic_stringIcNS_11char_traitsIcEENS_9allocatorIcEEEEbxydSC_NS3_14adl_serializerENS8_IhNSC_IhEEEEvEEEEC1B8ne200100EOSL_
FNA:3,271,_ZNSt3__110__function12__value_funcIFbiN8nlohmann16json_abi_v3_11_36detail13parse_event_tERNS3_10basic_jsonINS_3mapENS_6vectorENS_12basic_stringIcNS_11char_traitsIcEENS_9allocatorIcEEEEbxydSC_NS3_14adl_serializerENS8_IhNSC_IhEEEEvEEEEC2B8ne200100EOSL_
FNL:4,402,407
FNA:4,106,_ZNSt3__110__function12__value_funcIFN4inja8TemplateERKNS_4__fs10filesystem4pathERKNS_12basic_stringIcNS_11char_traitsIcEENS_9allocatorIcEEEEEED1B8ne200100Ev
FNA:4,106,_ZNSt3__110__function12__value_funcIFN4inja8TemplateERKNS_4__fs10filesystem4pathERKNS_12basic_stringIcNS_11char_traitsIcEENS_9allocatorIcEEEEEED2B8ne200100Ev
FNA:4,13992,_ZNSt3__110__function12__value_funcIFN8nlohmann16json_abi_v3_11_310basic_jsonINS_3mapENS_6vectorENS_12basic_stringIcNS_11char_traitsIcEENS_9allocatorIcEEEEbxydSA_NS3_14adl_serializerENS6_IhNSA_IhEEEEvEERNS6_IPKSG_NSA_ISI_EEEEEED1B8ne200100Ev
FNA:4,13992,_ZNSt3__110__function12__value_funcIFN8nlohmann16json_abi_v3_11_310basic_jsonINS_3mapENS_6vectorENS_12basic_stringIcNS_11char_traitsIcEENS_9allocatorIcEEEEbxydSA_NS3_14adl_serializerENS6_IhNSA_IhEEEEvEERNS6_IPKSG_NSA_ISI_EEEEEED2B8ne200100Ev
FNA:4,1084,_ZNSt3__110__function12__value_funcIFbiN8nlohmann16json_abi_v3_11_36detail13parse_event_tERNS3_10basic_jsonINS_3mapENS_6vectorENS_12basic_stringIcNS_11char_traitsIcEENS_9allocatorIcEEEEbxydSC_NS3_14adl_serializerENS8_IhNSC_IhEEEEvEEEED1B8ne200100Ev
FNA:4,1084,_ZNSt3__110__function12__value_funcIFbiN8nlohmann16json_abi_v3_11_36detail13parse_event_tERNS3_10basic_jsonINS_3mapENS_6vectorENS_12basic_stringIcNS_11char_traitsIcEENS_9allocatorIcEEEEbxydSC_NS3_14adl_serializerENS8_IhNSC_IhEEEEvEEEED2B8ne200100Ev
FNL:5,433,436
FNA:5,0,_ZNKSt3__110__function12__value_funcIFN4inja8TemplateERKNS_4__fs10filesystem4pathERKNS_12basic_stringIcNS_11char_traitsIcEENS_9allocatorIcEEEEEEclB8ne200100ES8_SG_
FNA:5,0,_ZNKSt3__110__function12__value_funcIFN8nlohmann16json_abi_v3_11_310basic_jsonINS_3mapENS_6vectorENS_12basic_stringIcNS_11char_traitsIcEENS_9allocatorIcEEEEbxydSA_NS3_14adl_serializerENS6_IhNSA_IhEEEEvEERNS6_IPKSG_NSA_ISI_EEEEEEclB8ne200100ESL_
FNA:5,0,_ZNKSt3__110__function12__value_funcIFbiN8nlohmann16json_abi_v3_11_36detail13parse_event_tERNS3_10basic_jsonINS_3mapENS_6vectorENS_12basic_stringIcNS_11char_traitsIcEENS_9allocatorIcEEEEbxydSC_NS3_14adl_serializerENS8_IhNSC_IhEEEEvEEEEclB8ne200100EOiOS5_SJ_
FNL:6,439,469
FNA:6,0,_ZNSt3__110__function12__value_funcIFN8nlohmann16json_abi_v3_11_310basic_jsonINS_3mapENS_6vectorENS_12basic_stringIcNS_11char_traitsIcEENS_9allocatorIcEEEEbxydSA_NS3_14adl_serializerENS6_IhNSA_IhEEEEvEERNS6_IPKSG_NSA_ISI_EEEEEE4swapB8ne200100ERSN_
FNL:7,471,471
FNA:7,0,_ZNKSt3__110__function12__value_funcIFN4inja8TemplateERKNS_4__fs10filesystem4pathERKNS_12basic_stringIcNS_11char_traitsIcEENS_9allocatorIcEEEEEEcvbB8ne200100Ev
FNA:7,271,_ZNKSt3__110__function12__value_funcIFbiN8nlohmann16json_abi_v3_11_36detail13parse_event_tERNS3_10basic_jsonINS_3mapENS_6vectorENS_12basic_stringIcNS_11char_traitsIcEENS_9allocatorIcEEEEbxydSC_NS3_14adl_serializerENS8_IhNSC_IhEEEEvEEEEcvbB8ne200100Ev
FNL:8,62,62
FNA:8,0,_ZNSt3__117bad_function_callC1B8ne200100Ev
FNA:8,0,_ZNSt3__117bad_function_callC2B8ne200100Ev
FNL:9,80,82
FNA:9,0,_ZNSt3__125__throw_bad_function_callB8ne200100Ev
FNL:10,861,861
FNA:10,106,_ZNSt3__18functionIFN4inja8TemplateERKNS_4__fs10filesystem4pathERKNS_12basic_stringIcNS_11char_traitsIcEENS_9allocatorIcEEEEEEC1B8ne200100Ev
FNA:10,106,_ZNSt3__18functionIFN4inja8TemplateERKNS_4__fs10filesystem4pathERKNS_12basic_stringIcNS_11char_traitsIcEENS_9allocatorIcEEEEEEC2B8ne200100Ev
FNA:10,4028,_ZNSt3__18functionIFN8nlohmann16json_abi_v3_11_310basic_jsonINS_3mapENS_6vectorENS_12basic_stringIcNS_11char_traitsIcEENS_9allocatorIcEEEEbxydS9_NS2_14adl_serializerENS5_IhNS9_IhEEEEvEERNS5_IPKSF_NS9_ISH_EEEEEEC1B8ne200100Ev
FNA:10,4028,_ZNSt3__18functionIFN8nlohmann16json_abi_v3_11_310basic_jsonINS_3mapENS_6vectorENS_12basic_stringIcNS_11char_traitsIcEENS_9allocatorIcEEEEbxydS9_NS2_14adl_serializerENS5_IhNS9_IhEEEEvEERNS5_IPKSF_NS9_ISH_EEEEEEC2B8ne200100Ev
FNL:11,862,862
FNA:11,271,_ZNSt3__18functionIFbiN8nlohmann16json_abi_v3_11_36detail13parse_event_tERNS2_10basic_jsonINS_3mapENS_6vectorENS_12basic_stringIcNS_11char_traitsIcEENS_9allocatorIcEEEEbxydSB_NS2_14adl_serializerENS7_IhNSB_IhEEEEvEEEEC1B8ne200100EDn
FNA:11,271,_ZNSt3__18functionIFbiN8nlohmann16json_abi_v3_11_36detail13parse_event_tERNS2_10basic_jsonINS_3mapENS_6vectorENS_12basic_stringIcNS_11char_traitsIcEENS_9allocatorIcEEEEbxydSB_NS2_14adl_serializerENS7_IhNSB_IhEEEEvEEEEC2B8ne200100EDn
FNL:12,900,900
FNA:12,0,_ZNKSt3__18functionIFN4inja8TemplateERKNS_4__fs10filesystem4pathERKNS_12basic_stringIcNS_11char_traitsIcEENS_9allocatorIcEEEEEEcvbB8ne200100Ev
FNA:12,271,_ZNKSt3__18functionIFbiN8nlohmann16json_abi_v3_11_36detail13parse_event_tERNS2_10basic_jsonINS_3mapENS_6vectorENS_12basic_stringIcNS_11char_traitsIcEENS_9allocatorIcEEEEbxydSB_NS2_14adl_serializerENS7_IhNSB_IhEEEEvEEEEcvbB8ne200100Ev
FNL:13,933,933
FNA:13,9964,_ZNSt3__18functionIFN8nlohmann16json_abi_v3_11_310basic_jsonINS_3mapENS_6vectorENS_12basic_stringIcNS_11char_traitsIcEENS_9allocatorIcEEEEbxydS9_NS2_14adl_serializerENS5_IhNS9_IhEEEEvEERNS5_IPKSF_NS9_ISH_EEEEEEC1ERKSM_
FNA:13,9964,_ZNSt3__18functionIFN8nlohmann16json_abi_v3_11_310basic_jsonINS_3mapENS_6vectorENS_12basic_stringIcNS_11char_traitsIcEENS_9allocatorIcEEEEbxydS9_NS2_14adl_serializerENS5_IhNS9_IhEEEEvEERNS5_IPKSF_NS9_ISH_EEEEEEC2ERKSM_
FNA:13,542,_ZNSt3__18functionIFbiN8nlohmann16json_abi_v3_11_36detail13parse_event_tERNS2_10basic_jsonINS_3mapENS_6vectorENS_12basic_stringIcNS_11char_traitsIcEENS_9allocatorIcEEEEbxydSB_NS2_14adl_serializerENS7_IhNSB_IhEEEEvEEEEC1ERKSK_
FNA:13,542,_ZNSt3__18functionIFbiN8nlohmann16json_abi_v3_11_36detail13parse_event_tERNS2_10basic_jsonINS_3mapENS_6vectorENS_12basic_stringIcNS_11char_traitsIcEENS_9allocatorIcEEEEbxydSB_NS2_14adl_serializerENS7_IhNSB_IhEEEEvEEEEC2ERKSK_
FNL:14,942,942
FNA:14,271,_ZNSt3__18functionIFbiN8nlohmann16json_abi_v3_11_36detail13parse_event_tERNS2_10basic_jsonINS_3mapENS_6vectorENS_12basic_stringIcNS_11char_traitsIcEENS_9allocatorIcEEEEbxydSB_NS2_14adl_serializerENS7_IhNSB_IhEEEEvEEEEC1EOSK_
FNA:14,271,_ZNSt3__18functionIFbiN8nlohmann16json_abi_v3_11_36detail13parse_event_tERNS2_10basic_jsonINS_3mapENS_6vectorENS_12basic_stringIcNS_11char_traitsIcEENS_9allocatorIcEEEEbxydSB_NS2_14adl_serializerENS7_IhNSB_IhEEEEvEEEEC2EOSK_
FNL:15,961,963
FNA:15,0,_ZNSt3__18functionIFN8nlohmann16json_abi_v3_11_310basic_jsonINS_3mapENS_6vectorENS_12basic_stringIcNS_11char_traitsIcEENS_9allocatorIcEEEEbxydS9_NS2_14adl_serializerENS5_IhNS9_IhEEEEvEERNS5_IPKSF_NS9_ISH_EEEEEEaSERKSM_
FNL:16,986,986
FNA:16,106,_ZNSt3__18functionIFN4inja8TemplateERKNS_4__fs10filesystem4pathERKNS_12basic_stringIcNS_11char_traitsIcEENS_9allocatorIcEEEEEED1Ev
FNA:16,106,_ZNSt3__18functionIFN4inja8TemplateERKNS_4__fs10filesystem4pathERKNS_12basic_stringIcNS_11char_traitsIcEENS_9allocatorIcEEEEEED2Ev
FNA:16,13992,_ZNSt3__18functionIFN8nlohmann16json_abi_v3_11_310basic_jsonINS_3mapENS_6vectorENS_12basic_stringIcNS_11char_traitsIcEENS_9allocatorIcEEEEbxydS9_NS2_14adl_serializerENS5_IhNS9_IhEEEEvEERNS5_IPKSF_NS9_ISH_EEEEEED1Ev
FNA:16,13992,_ZNSt3__18functionIFN8nlohmann16json_abi_v3_11_310basic_jsonINS_3mapENS_6vectorENS_12basic_stringIcNS_11char_traitsIcEENS_9allocatorIcEEEEbxydS9_NS2_14adl_serializerENS5_IhNS9_IhEEEEvEERNS5_IPKSF_NS9_ISH_EEEEEED2Ev
FNA:16,1084,_ZNSt3__18functionIFbiN8nlohmann16json_abi_v3_11_36detail13parse_event_tERNS2_10basic_jsonINS_3mapENS_6vectorENS_12basic_stringIcNS_11char_traitsIcEENS_9allocatorIcEEEEbxydSB_NS2_14adl_serializerENS7_IhNSB_IhEEEEvEEEED1Ev
FNA:16,1084,_ZNSt3__18functionIFbiN8nlohmann16json_abi_v3_11_36detail13parse_event_tERNS2_10basic_jsonINS_3mapENS_6vectorENS_12basic_stringIcNS_11char_traitsIcEENS_9allocatorIcEEEEbxydSB_NS2_14adl_serializerENS7_IhNSB_IhEEEEvEEEED2Ev
FNL:17,989,991
FNA:17,0,_ZNSt3__18functionIFN8nlohmann16json_abi_v3_11_310basic_jsonINS_3mapENS_6vectorENS_12basic_stringIcNS_11char_traitsIcEENS_9allocatorIcEEEEbxydS9_NS2_14adl_serializerENS5_IhNS9_IhEEEEvEERNS5_IPKSF_NS9_ISH_EEEEEE4swapERSM_
FNL:18,994,995
FNA:18,0,_ZNKSt3__18functionIFN4inja8TemplateERKNS_4__fs10filesystem4pathERKNS_12basic_stringIcNS_11char_traitsIcEENS_9allocatorIcEEEEEEclES7_SF_
FNA:18,0,_ZNKSt3__18functionIFN8nlohmann16json_abi_v3_11_310basic_jsonINS_3mapENS_6vectorENS_12basic_stringIcNS_11char_traitsIcEENS_9allocatorIcEEEEbxydS9_NS2_14adl_serializerENS5_IhNS9_IhEEEEvEERNS5_IPKSF_NS9_ISH_EEEEEEclESK_
FNA:18,0,_ZNKSt3__18functionIFbiN8nlohmann16json_abi_v3_11_36detail13parse_event_tERNS2_10basic_jsonINS_3mapENS_6vectorENS_12basic_stringIcNS_11char_traitsIcEENS_9allocatorIcEEEEbxydSB_NS2_14adl_serializerENS7_IhNSB_IhEEEEvEEEEclEiS4_SI_
FNF:19
FNH:11
DA:62,0
DA:80,0
DA:82,0
DA:352,0
DA:355,8810
DA:380,21012
DA:381,10506
DA:382,10506
DA:383,0
DA:384,0
DA:385,0
DA:386,0
DA:387,0
DA:388,21012
DA:390,542
DA:391,271
DA:392,271
DA:393,0
DA:394,0
DA:395,0
DA:396,0
DA:397,0
DA:398,0
DA:400,542
DA:402,30364
DA:403,15182
DA:404,0
DA:405,15182
DA:406,0
DA:407,30364
DA:433,0
DA:434,0
DA:435,0
DA:436,0
DA:439,0
DA:440,0
DA:441,0
DA:442,0
DA:446,0
DA:447,0
DA:448,0
DA:449,0
DA:450,0
DA:451,0
DA:452,0
DA:453,0
DA:454,0
DA:455,0
DA:456,0
DA:457,0
DA:458,0
DA:459,0
DA:460,0
DA:461,0
DA:462,0
DA:463,0
DA:464,0
DA:465,0
DA:466,0
DA:467,0
DA:468,0
DA:469,0
DA:471,271
DA:861,8268
DA:862,542
DA:900,271
DA:933,21012
DA:942,542
DA:961,0
DA:962,0
DA:963,0
DA:986,30364
DA:989,0
DA:990,0
DA:991,0
DA:994,0
DA:995,0
LF:77
LH:20
end_of_record
TN:
SF:/Library/Developer/CommandLineTools/SDKs/MacOSX.sdk/usr/include/c++/v1/__functional/hash.h
FNL:0,132,133
FNA:0,2209,_ZNSt3__121__murmur2_or_cityhashImLm64EE8__rotateB8ne200100Emi
FNL:1,136,137
FNA:1,117,_ZNSt3__121__murmur2_or_cityhashImLm64EE22__rotate_by_at_least_1B8ne200100Emi
FNL:2,140,140
FNA:2,485,_ZNSt3__121__murmur2_or_cityhashImLm64EE11__shift_mixB8ne200100Em
FNL:3,142,149
FNA:3,1691,_ZNSt3__121__murmur2_or_cityhashImLm64EE13__hash_len_16B8ne200100Emm
FNL:4,153,177
FNA:4,1586,_ZNSt3__121__murmur2_or_cityhashImLm64EE18__hash_len_0_to_16B8ne200100EPKcm
FNL:5,180,186
FNA:5,137,_ZNSt3__121__murmur2_or_cityhashImLm64EE19__hash_len_17_to_32B8ne200100EPKcm
FNL:6,192,199
FNA:6,8,_ZNSt3__121__murmur2_or_cityhashImLm64EE29__weak_hash_len_32_with_seedsB8ne200100Emmmmmm
FNL:7,204,211
FNA:7,8,_ZNSt3__121__murmur2_or_cityhashImLm64EE29__weak_hash_len_32_with_seedsB8ne200100EPKcmm
FNL:8,216,236
FNA:8,222,_ZNSt3__121__murmur2_or_cityhashImLm64EE19__hash_len_33_to_64B8ne200100EPKcm
FNL:9,34,37
FNA:9,2858,_ZNSt3__110__loadwordB8ne200100IjEET_PKv
FNA:9,3054,_ZNSt3__110__loadwordB8ne200100ImEET_PKv
FNL:10,85,123
FNA:10,1947,_ZNKSt3__121__murmur2_or_cityhashImLm64EEclB8ne200100EPKvm
FNF:11
FNH:11
DA:34,5912
DA:36,5912
DA:37,5912
DA:85,1947
DA:86,1947
DA:87,1947
DA:88,1723
DA:89,1586
DA:91,137
DA:93,224
DA:94,222
DA:99,2
DA:100,2
DA:101,2
DA:102,2
DA:103,2
DA:104,2
DA:105,2
DA:108,2
DA:109,2
DA:110,2
DA:111,2
DA:112,2
DA:113,2
DA:114,2
DA:115,2
DA:116,2
DA:117,2
DA:118,2
DA:119,2
DA:120,2
DA:121,4
DA:122,2
DA:123,1947
DA:132,2209
DA:133,2209
DA:136,117
DA:137,117
DA:140,485
DA:142,1691
DA:143,1691
DA:144,1691
DA:145,1691
DA:146,1691
DA:147,1691
DA:148,1691
DA:149,1691
DA:153,1586
DA:154,1586
DA:155,117
DA:156,117
DA:157,117
DA:159,1469
DA:160,1429
DA:161,1429
DA:165,1429
DA:168,40
DA:169,39
DA:170,39
DA:171,39
DA:172,39
DA:173,39
DA:174,39
DA:176,1
DA:177,1586
DA:180,137
DA:181,137
DA:182,137
DA:183,137
DA:184,137
DA:185,137
DA:186,137
DA:192,8
DA:193,8
DA:194,8
DA:195,8
DA:196,8
DA:197,8
DA:198,8
DA:199,8
DA:204,8
DA:205,8
DA:206,8
DA:207,8
DA:208,8
DA:209,8
DA:210,8
DA:211,8
DA:216,222
DA:217,222
DA:218,222
DA:219,222
DA:220,222
DA:221,222
DA:222,222
DA:223,222
DA:224,222
DA:225,222
DA:226,222
DA:227,222
DA:228,222
DA:229,222
DA:230,222
DA:231,222
DA:232,222
DA:233,222
DA:234,222
DA:235,222
DA:236,222
LF:109
LH:109
end_of_record
TN:
SF:/Library/Developer/CommandLineTools/SDKs/MacOSX.sdk/usr/include/c++/v1/__functional/identity.h
FNL:0,29,30
FNA:0,0,_ZNKSt3__110__identityclB8ne200100IRKN8nlohmann16json_abi_v3_11_310basic_jsonINS_3mapENS_6vectorENS_12basic_stringIcNS_11char_traitsIcEENS_9allocatorIcEEEEbxydSA_NS3_14adl_serializerENS6_IhNSA_IhEEEEvEEEEOT_SK_
FNA:0,183,_ZNKSt3__110__identityclB8ne200100IRKN8nlohmann16json_abi_v3_11_36detail8json_refINS3_10basic_jsonINS_3mapENS_6vectorENS_12basic_stringIcNS_11char_traitsIcEENS_9allocatorIcEEEEbxydSC_NS3_14adl_serializerENS8_IhNSC_IhEEEEvEEEEEEOT_SN_
FNA:0,5340,_ZNKSt3__110__identityclB8ne200100IRKNS_12basic_stringIcNS_11char_traitsIcEENS_9allocatorIcEEEEEEOT_SB_
FNA:0,18,_ZNKSt3__110__identityclB8ne200100IRKcEEOT_S5_
FNA:0,4,_ZNKSt3__110__identityclB8ne200100IRNS_12basic_stringIcNS_11char_traitsIcEENS_9allocatorIcEEEEEEOT_SA_
FNA:0,0,_ZNKSt3__110__identityclB8ne200100IRcEEOT_S4_
FNF:1
FNH:1
DA:29,5545
DA:30,5545
LF:2
LH:2
end_of_record
TN:
SF:/Library/Developer/CommandLineTools/SDKs/MacOSX.sdk/usr/include/c++/v1/__functional/operations.h
FNL:0,298,299
FNA:0,1095,_ZNKSt3__18equal_toINS_12basic_stringIcNS_11char_traitsIcEENS_9allocatorIcEEEEEclB8ne200100ERKS6_S9_
FNL:1,359,360
FNA:1,43402,_ZNKSt3__14lessINS_12basic_stringIcNS_11char_traitsIcEENS_9allocatorIcEEEEEclB8ne200100ERKS6_S9_
FNA:1,7314,_ZNKSt3__14lessINS_4pairINS_12basic_stringIcNS_11char_traitsIcEENS_9allocatorIcEEEEiEEEclB8ne200100ERKS8_SB_
FNL:2,375,378
FNA:2,1143,_ZNKSt3__14lessIvEclB8ne200100IRA10_KcRKNS_12basic_stringIcNS_11char_traitsIcEENS_9allocatorIcEEEEEEDTltclsr3stdE7forwardIT_Efp_Eclsr3stdE7forwardIT0_Efp0_EEOSE_OSF_
FNA:2,978,_ZNKSt3__14lessIvEclB8ne200100IRA11_KcRKNS_12basic_stringIcNS_11char_traitsIcEENS_9allocatorIcEEEEEEDTltclsr3stdE7forwardIT_Efp_Eclsr3stdE7forwardIT0_Efp0_EEOSE_OSF_
FNA:2,164,_ZNKSt3__14lessIvEclB8ne200100IRA12_KcRKNS_12basic_stringIcNS_11char_traitsIcEENS_9allocatorIcEEEEEEDTltclsr3stdE7forwardIT_Efp_Eclsr3stdE7forwardIT0_Efp0_EEOSE_OSF_
FNA:2,2,_ZNKSt3__14lessIvEclB8ne200100IRA13_KcRKNS_12basic_stringIcNS_11char_traitsIcEENS_9allocatorIcEEEEEEDTltclsr3stdE7forwardIT_Efp_Eclsr3stdE7forwardIT0_Efp0_EEOSE_OSF_
FNA:2,0,_ZNKSt3__14lessIvEclB8ne200100IRA15_KcRKNS_12basic_stringIcNS_11char_traitsIcEENS_9allocatorIcEEEEEEDTltclsr3stdE7forwardIT_Efp_Eclsr3stdE7forwardIT0_Efp0_EEOSE_OSF_
FNA:2,722,_ZNKSt3__14lessIvEclB8ne200100IRA3_KcRKNS_12basic_stringIcNS_11char_traitsIcEENS_9allocatorIcEEEEEEDTltclsr3stdE7forwardIT_Efp_Eclsr3stdE7forwardIT0_Efp0_EEOSE_OSF_
FNA:2,0,_ZNKSt3__14lessIvEclB8ne200100IRA4_KcRKNS_12basic_stringIcNS_11char_traitsIcEENS_9allocatorIcEEEEEEDTltclsr3stdE7forwardIT_Efp_Eclsr3stdE7forwardIT0_Efp0_EEOSE_OSF_
FNA:2,1141,_ZNKSt3__14lessIvEclB8ne200100IRA5_KcRKNS_12basic_stringIcNS_11char_traitsIcEENS_9allocatorIcEEEEEEDTltclsr3stdE7forwardIT_Efp_Eclsr3stdE7forwardIT0_Efp0_EEOSE_OSF_
FNA:2,0,_ZNKSt3__14lessIvEclB8ne200100IRA6_KcRKNS_12basic_stringIcNS_11char_traitsIcEENS_9allocatorIcEEEEEEDTltclsr3stdE7forwardIT_Efp_Eclsr3stdE7forwardIT0_Efp0_EEOSE_OSF_
FNA:2,491,_ZNKSt3__14lessIvEclB8ne200100IRA7_KcRKNS_12basic_stringIcNS_11char_traitsIcEENS_9allocatorIcEEEEEEDTltclsr3stdE7forwardIT_Efp_Eclsr3stdE7forwardIT0_Efp0_EEOSE_OSF_
FNA:2,1410,_ZNKSt3__14lessIvEclB8ne200100IRA8_KcRKNS_12basic_stringIcNS_11char_traitsIcEENS_9allocatorIcEEEEEEDTltclsr3stdE7forwardIT_Efp_Eclsr3stdE7forwardIT0_Efp0_EEOSE_OSF_
FNA:2,3438,_ZNKSt3__14lessIvEclB8ne200100IRA9_KcRKNS_12basic_stringIcNS_11char_traitsIcEENS_9allocatorIcEEEEEEDTltclsr3stdE7forwardIT_Efp_Eclsr3stdE7forwardIT0_Efp0_EEOSE_OSF_
FNA:2,1634,_ZNKSt3__14lessIvEclB8ne200100IRKNS_12basic_stringIcNS_11char_traitsIcEENS_9allocatorIcEEEERA10_KcEEDTltclsr3stdE7forwardIT_Efp_Eclsr3stdE7forwardIT0_Efp0_EEOSE_OSF_
FNA:2,1793,_ZNKSt3__14lessIvEclB8ne200100IRKNS_12basic_stringIcNS_11char_traitsIcEENS_9allocatorIcEEEERA11_KcEEDTltclsr3stdE7forwardIT_Efp_Eclsr3stdE7forwardIT0_Efp0_EEOSE_OSF_
FNA:2,327,_ZNKSt3__14lessIvEclB8ne200100IRKNS_12basic_stringIcNS_11char_traitsIcEENS_9allocatorIcEEEERA12_KcEEDTltclsr3stdE7forwardIT_Efp_Eclsr3stdE7forwardIT0_Efp0_EEOSE_OSF_
FNA:2,4,_ZNKSt3__14lessIvEclB8ne200100IRKNS_12basic_stringIcNS_11char_traitsIcEENS_9allocatorIcEEEERA13_KcEEDTltclsr3stdE7forwardIT_Efp_Eclsr3stdE7forwardIT0_Efp0_EEOSE_OSF_
FNA:2,0,_ZNKSt3__14lessIvEclB8ne200100IRKNS_12basic_stringIcNS_11char_traitsIcEENS_9allocatorIcEEEERA15_KcEEDTltclsr3stdE7forwardIT_Efp_Eclsr3stdE7forwardIT0_Efp0_EEOSE_OSF_
FNA:2,2154,_ZNKSt3__14lessIvEclB8ne200100IRKNS_12basic_stringIcNS_11char_traitsIcEENS_9allocatorIcEEEERA3_KcEEDTltclsr3stdE7forwardIT_Efp_Eclsr3stdE7forwardIT0_Efp0_EEOSE_OSF_
FNA:2,0,_ZNKSt3__14lessIvEclB8ne200100IRKNS_12basic_stringIcNS_11char_traitsIcEENS_9allocatorIcEEEERA4_KcEEDTltclsr3stdE7forwardIT_Efp_Eclsr3stdE7forwardIT0_Efp0_EEOSE_OSF_
FNA:2,2282,_ZNKSt3__14lessIvEclB8ne200100IRKNS_12basic_stringIcNS_11char_traitsIcEENS_9allocatorIcEEEERA5_KcEEDTltclsr3stdE7forwardIT_Efp_Eclsr3stdE7forwardIT0_Efp0_EEOSE_OSF_
FNA:2,326,_ZNKSt3__14lessIvEclB8ne200100IRKNS_12basic_stringIcNS_11char_traitsIcEENS_9allocatorIcEEEERA6_KcEEDTltclsr3stdE7forwardIT_Efp_Eclsr3stdE7forwardIT0_Efp0_EEOSE_OSF_
FNA:2,3264,_ZNKSt3__14lessIvEclB8ne200100IRKNS_12basic_stringIcNS_11char_traitsIcEENS_9allocatorIcEEEERA7_KcEEDTltclsr3stdE7forwardIT_Efp_Eclsr3stdE7forwardIT0_Efp0_EEOSE_OSF_
FNA:2,3089,_ZNKSt3__14lessIvEclB8ne200100IRKNS_12basic_stringIcNS_11char_traitsIcEENS_9allocatorIcEEEERA8_KcEEDTltclsr3stdE7forwardIT_Efp_Eclsr3stdE7forwardIT0_Efp0_EEOSE_OSF_
FNA:2,5584,_ZNKSt3__14lessIvEclB8ne200100IRKNS_12basic_stringIcNS_11char_traitsIcEENS_9allocatorIcEEEERA9_KcEEDTltclsr3stdE7forwardIT_Efp_Eclsr3stdE7forwardIT0_Efp0_EEOSE_OSF_
FNA:2,0,_ZNKSt3__14lessIvEclB8ne200100IRKNS_12basic_stringIcNS_11char_traitsIcEENS_9allocatorIcEEEERKPKcEEDTltclsr3stdE7forwardIT_Efp_Eclsr3stdE7forwardIT0_Efp0_EEOSF_OSG_
FNA:2,338586,_ZNKSt3__14lessIvEclB8ne200100IRKNS_12basic_stringIcNS_11char_traitsIcEENS_9allocatorIcEEEESA_EEDTltclsr3stdE7forwardIT_Efp_Eclsr3stdE7forwardIT0_Efp0_EEOSB_OSC_
FNA:2,0,_ZNKSt3__14lessIvEclB8ne200100IRKPKcRKNS_12basic_stringIcNS_11char_traitsIcEENS_9allocatorIcEEEEEEDTltclsr3stdE7forwardIT_Efp_Eclsr3stdE7forwardIT0_Efp0_EEOSF_OSG_
FNF:3
FNH:3
DA:298,1095
DA:299,1095
DA:359,50716
DA:360,50716
DA:375,368532
DA:378,368532
LF:6
LH:6
end_of_record
TN:
SF:/Library/Developer/CommandLineTools/SDKs/MacOSX.sdk/usr/include/c++/v1/__hash_table
FNL:0,101
FNA:0,313,_ZNSt3__116__hash_node_baseIPNS_11__hash_nodeINS_12basic_stringIcNS_11char_traitsIcEENS_9allocatorIcEEEEPvEEE8__upcastB8ne200100Ev
FNA:0,989,_ZNSt3__116__hash_node_baseIPNS_11__hash_nodeINS_17__hash_value_typeINS_12basic_stringIcNS_11char_traitsIcEENS_9allocatorIcEEEEN4dbal4core12EntitySchemaEEEPvEEE8__upcastB8ne200100Ev
FNA:0,1396,_ZNSt3__116__hash_node_baseIPNS_11__hash_nodeINS_17__hash_value_typeINS_12basic_stringIcNS_11char_traitsIcEENS_9allocatorIcEEEEN4dbal8adapters12EntitySchemaEEEPvEEE8__upcastB8ne200100Ev
FNL:1,1029
FNA:1,42,_ZNSt3__112__hash_tableINS_12basic_stringIcNS_11char_traitsIcEENS_9allocatorIcEEEENS_4hashIS6_EENS_8equal_toIS6_EENS4_IS6_EEEC1Ev
FNA:1,42,_ZNSt3__112__hash_tableINS_12basic_stringIcNS_11char_traitsIcEENS_9allocatorIcEEEENS_4hashIS6_EENS_8equal_toIS6_EENS4_IS6_EEEC2Ev
FNA:1,49,_ZNSt3__112__hash_tableINS_17__hash_value_typeINS_12basic_stringIcNS_11char_traitsIcEENS_9allocatorIcEEEEN4dbal4core12EntitySchemaEEENS_22__unordered_map_hasherIS7_SB_NS_4hashIS7_EENS_8equal_toIS7_EELb1EEENS_21__unordered_map_equalIS7_SB_SG_SE_Lb1EEENS5_ISB_EEEC1Ev
FNA:1,49,_ZNSt3__112__hash_tableINS_17__hash_value_typeINS_12basic_stringIcNS_11char_traitsIcEENS_9allocatorIcEEEEN4dbal4core12EntitySchemaEEENS_22__unordered_map_hasherIS7_SB_NS_4hashIS7_EENS_8equal_toIS7_EELb1EEENS_21__unordered_map_equalIS7_SB_SG_SE_Lb1EEENS5_ISB_EEEC2Ev
FNA:1,57,_ZNSt3__112__hash_tableINS_17__hash_value_typeINS_12basic_stringIcNS_11char_traitsIcEENS_9allocatorIcEEEEN4dbal8adapters12EntitySchemaEEENS_22__unordered_map_hasherIS7_SB_NS_4hashIS7_EENS_8equal_toIS7_EELb1EEENS_21__unordered_map_equalIS7_SB_SG_SE_Lb1EEENS5_ISB_EEEC1Ev
FNA:1,57,_ZNSt3__112__hash_tableINS_17__hash_value_typeINS_12basic_stringIcNS_11char_traitsIcEENS_9allocatorIcEEEEN4dbal8adapters12EntitySchemaEEENS_22__unordered_map_hasherIS7_SB_NS_4hashIS7_EENS_8equal_toIS7_EELb1EEENS_21__unordered_map_equalIS7_SB_SG_SE_Lb1EEENS5_ISB_EEEC2Ev
FNL:2,105
FNA:2,941,_ZNKSt3__116__hash_node_baseIPNS_11__hash_nodeINS_12basic_stringIcNS_11char_traitsIcEENS_9allocatorIcEEEEPvEEE6__hashB8ne200100Ev
FNA:2,920,_ZNKSt3__116__hash_node_baseIPNS_11__hash_nodeINS_17__hash_value_typeINS_12basic_stringIcNS_11char_traitsIcEENS_9allocatorIcEEEEN4dbal4core12EntitySchemaEEEPvEEE6__hashB8ne200100Ev
FNA:2,3117,_ZNKSt3__116__hash_node_baseIPNS_11__hash_nodeINS_17__hash_value_typeINS_12basic_stringIcNS_11char_traitsIcEENS_9allocatorIcEEEEN4dbal8adapters12EntitySchemaEEEPvEEE6__hashB8ne200100Ev
FNL:3,107
FNA:3,42,_ZNSt3__116__hash_node_baseIPNS_11__hash_nodeINS_12basic_stringIcNS_11char_traitsIcEENS_9allocatorIcEEEEPvEEEC1B8ne200100Ev
FNA:3,42,_ZNSt3__116__hash_node_baseIPNS_11__hash_nodeINS_12basic_stringIcNS_11char_traitsIcEENS_9allocatorIcEEEEPvEEEC2B8ne200100Ev
FNA:3,49,_ZNSt3__116__hash_node_baseIPNS_11__hash_nodeINS_17__hash_value_typeINS_12basic_stringIcNS_11char_traitsIcEENS_9allocatorIcEEEEN4dbal4core12EntitySchemaEEEPvEEEC1B8ne200100Ev
FNA:3,49,_ZNSt3__116__hash_node_baseIPNS_11__hash_nodeINS_17__hash_value_typeINS_12basic_stringIcNS_11char_traitsIcEENS_9allocatorIcEEEEN4dbal4core12EntitySchemaEEEPvEEEC2B8ne200100Ev
FNA:3,57,_ZNSt3__116__hash_node_baseIPNS_11__hash_nodeINS_17__hash_value_typeINS_12basic_stringIcNS_11char_traitsIcEENS_9allocatorIcEEEEN4dbal8adapters12EntitySchemaEEEPvEEEC1B8ne200100Ev
FNA:3,57,_ZNSt3__116__hash_node_baseIPNS_11__hash_nodeINS_17__hash_value_typeINS_12basic_stringIcNS_11char_traitsIcEENS_9allocatorIcEEEEN4dbal8adapters12EntitySchemaEEEPvEEEC2B8ne200100Ev
FNL:4,108
FNA:4,245,_ZNSt3__116__hash_node_baseIPNS_11__hash_nodeINS_12basic_stringIcNS_11char_traitsIcEENS_9allocatorIcEEEEPvEEEC2B8ne200100EPSB_
FNA:4,49,_ZNSt3__116__hash_node_baseIPNS_11__hash_nodeINS_17__hash_value_typeINS_12basic_stringIcNS_11char_traitsIcEENS_9allocatorIcEEEEN4dbal4core12EntitySchemaEEEPvEEEC2B8ne200100EPSG_
FNA:4,114,_ZNSt3__116__hash_node_baseIPNS_11__hash_nodeINS_17__hash_value_typeINS_12basic_stringIcNS_11char_traitsIcEENS_9allocatorIcEEEEN4dbal8adapters12EntitySchemaEEEPvEEEC2B8ne200100EPSG_
FNL:5,1125
FNA:5,42,_ZNSt3__112__hash_tableINS_12basic_stringIcNS_11char_traitsIcEENS_9allocatorIcEEEENS_4hashIS6_EENS_8equal_toIS6_EENS4_IS6_EEED1Ev
FNA:5,42,_ZNSt3__112__hash_tableINS_12basic_stringIcNS_11char_traitsIcEENS_9allocatorIcEEEENS_4hashIS6_EENS_8equal_toIS6_EENS4_IS6_EEED2Ev
FNA:5,49,_ZNSt3__112__hash_tableINS_17__hash_value_typeINS_12basic_stringIcNS_11char_traitsIcEENS_9allocatorIcEEEEN4dbal4core12EntitySchemaEEENS_22__unordered_map_hasherIS7_SB_NS_4hashIS7_EENS_8equal_toIS7_EELb1EEENS_21__unordered_map_equalIS7_SB_SG_SE_Lb1EEENS5_ISB_EEED1Ev
FNA:5,49,_ZNSt3__112__hash_tableINS_17__hash_value_typeINS_12basic_stringIcNS_11char_traitsIcEENS_9allocatorIcEEEEN4dbal4core12EntitySchemaEEENS_22__unordered_map_hasherIS7_SB_NS_4hashIS7_EENS_8equal_toIS7_EELb1EEENS_21__unordered_map_equalIS7_SB_SG_SE_Lb1EEENS5_ISB_EEED2Ev
FNA:5,57,_ZNSt3__112__hash_tableINS_17__hash_value_typeINS_12basic_stringIcNS_11char_traitsIcEENS_9allocatorIcEEEEN4dbal8adapters12EntitySchemaEEENS_22__unordered_map_hasherIS7_SB_NS_4hashIS7_EENS_8equal_toIS7_EELb1EEENS_21__unordered_map_equalIS7_SB_SG_SE_Lb1EEENS5_ISB_EEED1Ev
FNA:5,57,_ZNSt3__112__hash_tableINS_17__hash_value_typeINS_12basic_stringIcNS_11char_traitsIcEENS_9allocatorIcEEEEN4dbal8adapters12EntitySchemaEEENS_22__unordered_map_hasherIS7_SB_NS_4hashIS7_EENS_8equal_toIS7_EELb1EEENS_21__unordered_map_equalIS7_SB_SG_SE_Lb1EEENS5_ISB_EEED2Ev
FNL:6,1158
FNA:6,42,_ZNSt3__112__hash_tableINS_12basic_stringIcNS_11char_traitsIcEENS_9allocatorIcEEEENS_4hashIS6_EENS_8equal_toIS6_EENS4_IS6_EEE17__deallocate_nodeEPNS_16__hash_node_baseIPNS_11__hash_nodeIS6_PvEEEE
FNA:6,49,_ZNSt3__112__hash_tableINS_17__hash_value_typeINS_12basic_stringIcNS_11char_traitsIcEENS_9allocatorIcEEEEN4dbal4core12EntitySchemaEEENS_22__unordered_map_hasherIS7_SB_NS_4hashIS7_EENS_8equal_toIS7_EELb1EEENS_21__unordered_map_equalIS7_SB_SG_SE_Lb1EEENS5_ISB_EEE17__deallocate_nodeEPNS_16__hash_node_baseIPNS_11__hash_nodeISB_PvEEEE
FNA:6,57,_ZNSt3__112__hash_tableINS_17__hash_value_typeINS_12basic_stringIcNS_11char_traitsIcEENS_9allocatorIcEEEEN4dbal8adapters12EntitySchemaEEENS_22__unordered_map_hasherIS7_SB_NS_4hashIS7_EENS_8equal_toIS7_EELb1EEENS_21__unordered_map_equalIS7_SB_SG_SE_Lb1EEENS5_ISB_EEE17__deallocate_nodeEPNS_16__hash_node_baseIPNS_11__hash_nodeISB_PvEEEE
FNL:7,129
FNA:7,558,_ZNSt3__111__hash_nodeINS_12basic_stringIcNS_11char_traitsIcEENS_9allocatorIcEEEEPvE11__get_valueB8ne200100Ev
FNA:7,1038,_ZNSt3__111__hash_nodeINS_17__hash_value_typeINS_12basic_stringIcNS_11char_traitsIcEENS_9allocatorIcEEEEN4dbal4core12EntitySchemaEEEPvE11__get_valueB8ne200100Ev
FNA:7,1510,_ZNSt3__111__hash_nodeINS_17__hash_value_typeINS_12basic_stringIcNS_11char_traitsIcEENS_9allocatorIcEEEEN4dbal8adapters12EntitySchemaEEEPvE11__get_valueB8ne200100Ev
FNL:8,1314
FNA:8,1,_ZNSt3__112__hash_tableINS_17__hash_value_typeINS_12basic_stringIcNS_11char_traitsIcEENS_9allocatorIcEEEEN4dbal4core12EntitySchemaEEENS_22__unordered_map_hasherIS7_SB_NS_4hashIS7_EENS_8equal_toIS7_EELb1EEENS_21__unordered_map_equalIS7_SB_SG_SE_Lb1EEENS5_ISB_EEE5beginEv
FNA:8,2,_ZNSt3__112__hash_tableINS_17__hash_value_typeINS_12basic_stringIcNS_11char_traitsIcEENS_9allocatorIcEEEEN4dbal8adapters12EntitySchemaEEENS_22__unordered_map_hasherIS7_SB_NS_4hashIS7_EENS_8equal_toIS7_EELb1EEENS_21__unordered_map_equalIS7_SB_SG_SE_Lb1EEENS5_ISB_EEE5beginEv
FNL:9,1320
FNA:9,0,_ZNSt3__112__hash_tableINS_12basic_stringIcNS_11char_traitsIcEENS_9allocatorIcEEEENS_4hashIS6_EENS_8equal_toIS6_EENS4_IS6_EEE3endEv
FNA:9,1,_ZNSt3__112__hash_tableINS_17__hash_value_typeINS_12basic_stringIcNS_11char_traitsIcEENS_9allocatorIcEEEEN4dbal4core12EntitySchemaEEENS_22__unordered_map_hasherIS7_SB_NS_4hashIS7_EENS_8equal_toIS7_EELb1EEENS_21__unordered_map_equalIS7_SB_SG_SE_Lb1EEENS5_ISB_EEE3endEv
FNA:9,2,_ZNSt3__112__hash_tableINS_17__hash_value_typeINS_12basic_stringIcNS_11char_traitsIcEENS_9allocatorIcEEEEN4dbal8adapters12EntitySchemaEEENS_22__unordered_map_hasherIS7_SB_NS_4hashIS7_EENS_8equal_toIS7_EELb1EEENS_21__unordered_map_equalIS7_SB_SG_SE_Lb1EEENS5_ISB_EEE3endEv
FNL:10,1326
FNA:10,0,_ZNKSt3__112__hash_tableINS_17__hash_value_typeINS_12basic_stringIcNS_11char_traitsIcEENS_9allocatorIcEEEEN4dbal8adapters12EntitySchemaEEENS_22__unordered_map_hasherIS7_SB_NS_4hashIS7_EENS_8equal_toIS7_EELb1EEENS_21__unordered_map_equalIS7_SB_SG_SE_Lb1EEENS5_ISB_EEE5beginEv
FNL:11,1332
FNA:11,922,_ZNKSt3__112__hash_tableINS_12basic_stringIcNS_11char_traitsIcEENS_9allocatorIcEEEENS_4hashIS6_EENS_8equal_toIS6_EENS4_IS6_EEE3endEv
FNA:11,465,_ZNKSt3__112__hash_tableINS_17__hash_value_typeINS_12basic_stringIcNS_11char_traitsIcEENS_9allocatorIcEEEEN4dbal4core12EntitySchemaEEENS_22__unordered_map_hasherIS7_SB_NS_4hashIS7_EENS_8equal_toIS7_EELb1EEENS_21__unordered_map_equalIS7_SB_SG_SE_Lb1EEENS5_ISB_EEE3endEv
FNA:11,594,_ZNKSt3__112__hash_tableINS_17__hash_value_typeINS_12basic_stringIcNS_11char_traitsIcEENS_9allocatorIcEEEEN4dbal8adapters12EntitySchemaEEENS_22__unordered_map_hasherIS7_SB_NS_4hashIS7_EENS_8equal_toIS7_EELb1EEENS_21__unordered_map_equalIS7_SB_SG_SE_Lb1EEENS5_ISB_EEE3endEv
FNL:12,139
FNA:12,245,_ZNSt3__111__hash_nodeINS_12basic_stringIcNS_11char_traitsIcEENS_9allocatorIcEEEEPvEC1B8ne200100EPNS_16__hash_node_baseIPS8_EEm
FNA:12,245,_ZNSt3__111__hash_nodeINS_12basic_stringIcNS_11char_traitsIcEENS_9allocatorIcEEEEPvEC2B8ne200100EPNS_16__hash_node_baseIPS8_EEm
FNA:12,49,_ZNSt3__111__hash_nodeINS_17__hash_value_typeINS_12basic_stringIcNS_11char_traitsIcEENS_9allocatorIcEEEEN4dbal4core12EntitySchemaEEEPvEC1B8ne200100EPNS_16__hash_node_baseIPSD_EEm
FNA:12,49,_ZNSt3__111__hash_nodeINS_17__hash_value_typeINS_12basic_stringIcNS_11char_traitsIcEENS_9allocatorIcEEEEN4dbal4core12EntitySchemaEEEPvEC2B8ne200100EPNS_16__hash_node_baseIPSD_EEm
FNA:12,114,_ZNSt3__111__hash_nodeINS_17__hash_value_typeINS_12basic_stringIcNS_11char_traitsIcEENS_9allocatorIcEEEEN4dbal8adapters12EntitySchemaEEEPvEC1B8ne200100EPNS_16__hash_node_baseIPSD_EEm
FNA:12,114,_ZNSt3__111__hash_nodeINS_17__hash_value_typeINS_12basic_stringIcNS_11char_traitsIcEENS_9allocatorIcEEEEN4dbal8adapters12EntitySchemaEEEPvEC2B8ne200100EPNS_16__hash_node_baseIPSD_EEm
FNL:13,140
FNA:13,245,_ZNSt3__111__hash_nodeINS_12basic_stringIcNS_11char_traitsIcEENS_9allocatorIcEEEEPvED1B8ne200100Ev
FNA:13,245,_ZNSt3__111__hash_nodeINS_12basic_stringIcNS_11char_traitsIcEENS_9allocatorIcEEEEPvED2B8ne200100Ev
FNA:13,49,_ZNSt3__111__hash_nodeINS_17__hash_value_typeINS_12basic_stringIcNS_11char_traitsIcEENS_9allocatorIcEEEEN4dbal4core12EntitySchemaEEEPvED1B8ne200100Ev
FNA:13,49,_ZNSt3__111__hash_nodeINS_17__hash_value_typeINS_12basic_stringIcNS_11char_traitsIcEENS_9allocatorIcEEEEN4dbal4core12EntitySchemaEEEPvED2B8ne200100Ev
FNA:13,114,_ZNSt3__111__hash_nodeINS_17__hash_value_typeINS_12basic_stringIcNS_11char_traitsIcEENS_9allocatorIcEEEEN4dbal8adapters12EntitySchemaEEEPvED1B8ne200100Ev
FNA:13,114,_ZNSt3__111__hash_nodeINS_17__hash_value_typeINS_12basic_stringIcNS_11char_traitsIcEENS_9allocatorIcEEEEN4dbal8adapters12EntitySchemaEEEPvED2B8ne200100Ev
FNL:14,143
FNA:14,212,_ZNSt3__116__is_hash_power2B8ne200100Em
FNL:15,145
FNA:15,2776,_ZNSt3__116__constrain_hashB8ne200100Emm
FNL:16,149
FNA:16,0,_ZNSt3__116__next_hash_pow2B8ne200100Em
FNL:17,1528
FNA:17,245,_ZNSt3__112__hash_tableINS_12basic_stringIcNS_11char_traitsIcEENS_9allocatorIcEEEENS_4hashIS6_EENS_8equal_toIS6_EENS4_IS6_EEE25__emplace_unique_key_argsIS6_JRKS6_EEENS_4pairINS_15__hash_iteratorIPNS_11__hash_nodeIS6_PvEEEEbEERKT_DpOT0_
FNA:17,49,_ZNSt3__112__hash_tableINS_17__hash_value_typeINS_12basic_stringIcNS_11char_traitsIcEENS_9allocatorIcEEEEN4dbal4core12EntitySchemaEEENS_22__unordered_map_hasherIS7_SB_NS_4hashIS7_EENS_8equal_toIS7_EELb1EEENS_21__unordered_map_equalIS7_SB_SG_SE_Lb1EEENS5_ISB_EEE25__emplace_unique_key_argsIS7_JRKNS_21piecewise_construct_tENS_5tupleIJRKS7_EEENSQ_IJEEEEEENS_4pairINS_15__hash_iteratorIPNS_11__hash_nodeISB_PvEEEEbEERKT_DpOT0_
FNA:17,114,_ZNSt3__112__hash_tableINS_17__hash_value_typeINS_12basic_stringIcNS_11char_traitsIcEENS_9allocatorIcEEEEN4dbal8adapters12EntitySchemaEEENS_22__unordered_map_hasherIS7_SB_NS_4hashIS7_EENS_8equal_toIS7_EELb1EEENS_21__unordered_map_equalIS7_SB_SG_SE_Lb1EEENS5_ISB_EEE25__emplace_unique_key_argsIS7_JRKNS_21piecewise_construct_tENS_5tupleIJRKS7_EEENSQ_IJEEEEEENS_4pairINS_15__hash_iteratorIPNS_11__hash_nodeISB_PvEEEEbEERKT_DpOT0_
FNL:18,1708
FNA:18,105,_ZNSt3__112__hash_tableINS_12basic_stringIcNS_11char_traitsIcEENS_9allocatorIcEEEENS_4hashIS6_EENS_8equal_toIS6_EENS4_IS6_EEE8__rehashILb1EEEvm
FNA:18,49,_ZNSt3__112__hash_tableINS_17__hash_value_typeINS_12basic_stringIcNS_11char_traitsIcEENS_9allocatorIcEEEEN4dbal4core12EntitySchemaEEENS_22__unordered_map_hasherIS7_SB_NS_4hashIS7_EENS_8equal_toIS7_EELb1EEENS_21__unordered_map_equalIS7_SB_SG_SE_Lb1EEENS5_ISB_EEE8__rehashILb1EEEvm
FNA:18,57,_ZNSt3__112__hash_tableINS_17__hash_value_typeINS_12basic_stringIcNS_11char_traitsIcEENS_9allocatorIcEEEEN4dbal8adapters12EntitySchemaEEENS_22__unordered_map_hasherIS7_SB_NS_4hashIS7_EENS_8equal_toIS7_EELb1EEENS_21__unordered_map_equalIS7_SB_SG_SE_Lb1EEENS5_ISB_EEE8__rehashILb1EEEvm
FNL:19,1728
FNA:19,105,_ZNSt3__112__hash_tableINS_12basic_stringIcNS_11char_traitsIcEENS_9allocatorIcEEEENS_4hashIS6_EENS_8equal_toIS6_EENS4_IS6_EEE11__do_rehashILb1EEEvm
FNA:19,49,_ZNSt3__112__hash_tableINS_17__hash_value_typeINS_12basic_stringIcNS_11char_traitsIcEENS_9allocatorIcEEEEN4dbal4core12EntitySchemaEEENS_22__unordered_map_hasherIS7_SB_NS_4hashIS7_EENS_8equal_toIS7_EELb1EEENS_21__unordered_map_equalIS7_SB_SG_SE_Lb1EEENS5_ISB_EEE11__do_rehashILb1EEEvm
FNA:19,57,_ZNSt3__112__hash_tableINS_17__hash_value_typeINS_12basic_stringIcNS_11char_traitsIcEENS_9allocatorIcEEEEN4dbal8adapters12EntitySchemaEEENS_22__unordered_map_hasherIS7_SB_NS_4hashIS7_EENS_8equal_toIS7_EELb1EEENS_21__unordered_map_equalIS7_SB_SG_SE_Lb1EEENS5_ISB_EEE11__do_rehashILb1EEEvm
FNL:20,177
FNA:20,245,_ZNSt3__122__hash_key_value_typesINS_12basic_stringIcNS_11char_traitsIcEENS_9allocatorIcEEEEE9__get_keyB8ne200100ERKS6_
FNL:21,1771
FNA:21,0,_ZNSt3__112__hash_tableINS_12basic_stringIcNS_11char_traitsIcEENS_9allocatorIcEEEENS_4hashIS6_EENS_8equal_toIS6_EENS4_IS6_EEE4findIS6_EENS_15__hash_iteratorIPNS_11__hash_nodeIS6_PvEEEERKT_
FNL:22,179
FNA:22,490,_ZNSt3__122__hash_key_value_typesINS_12basic_stringIcNS_11char_traitsIcEENS_9allocatorIcEEEEE9__get_ptrB8ne200100ERS6_
FNL:23,1792
FNA:23,495,_ZNKSt3__112__hash_tableINS_12basic_stringIcNS_11char_traitsIcEENS_9allocatorIcEEEENS_4hashIS6_EENS_8equal_toIS6_EENS4_IS6_EEE4findIS6_EENS_21__hash_const_iteratorIPNS_11__hash_nodeIS6_PvEEEERKT_
FNA:23,455,_ZNKSt3__112__hash_tableINS_17__hash_value_typeINS_12basic_stringIcNS_11char_traitsIcEENS_9allocatorIcEEEEN4dbal4core12EntitySchemaEEENS_22__unordered_map_hasherIS7_SB_NS_4hashIS7_EENS_8equal_toIS7_EELb1EEENS_21__unordered_map_equalIS7_SB_SG_SE_Lb1EEENS5_ISB_EEE4findIS7_EENS_21__hash_const_iteratorIPNS_11__hash_nodeISB_PvEEEERKT_
FNA:23,588,_ZNKSt3__112__hash_tableINS_17__hash_value_typeINS_12basic_stringIcNS_11char_traitsIcEENS_9allocatorIcEEEEN4dbal8adapters12EntitySchemaEEENS_22__unordered_map_hasherIS7_SB_NS_4hashIS7_EENS_8equal_toIS7_EELb1EEENS_21__unordered_map_equalIS7_SB_SG_SE_Lb1EEENS5_ISB_EEE4findIS7_EENS_21__hash_const_iteratorIPNS_11__hash_nodeISB_PvEEEERKT_
FNL:24,1837
FNA:24,245,_ZNSt3__112__hash_tableINS_12basic_stringIcNS_11char_traitsIcEENS_9allocatorIcEEEENS_4hashIS6_EENS_8equal_toIS6_EENS4_IS6_EEE21__construct_node_hashIRKS6_JEEENS_10unique_ptrINS_11__hash_nodeIS6_PvEENS_22__hash_node_destructorINS4_ISJ_EEEEEEmOT_DpOT0_
FNA:24,49,_ZNSt3__112__hash_tableINS_17__hash_value_typeINS_12basic_stringIcNS_11char_traitsIcEENS_9allocatorIcEEEEN4dbal4core12EntitySchemaEEENS_22__unordered_map_hasherIS7_SB_NS_4hashIS7_EENS_8equal_toIS7_EELb1EEENS_21__unordered_map_equalIS7_SB_SG_SE_Lb1EEENS5_ISB_EEE21__construct_node_hashIRKNS_21piecewise_construct_tEJNS_5tupleIJRKS7_EEENSQ_IJEEEEEENS_10unique_ptrINS_11__hash_nodeISB_PvEENS_22__hash_node_destructorINS5_ISY_EEEEEEmOT_DpOT0_
FNA:24,114,_ZNSt3__112__hash_tableINS_17__hash_value_typeINS_12basic_stringIcNS_11char_traitsIcEENS_9allocatorIcEEEEN4dbal8adapters12EntitySchemaEEENS_22__unordered_map_hasherIS7_SB_NS_4hashIS7_EENS_8equal_toIS7_EELb1EEENS_21__unordered_map_equalIS7_SB_SG_SE_Lb1EEENS5_ISB_EEE21__construct_node_hashIRKNS_21piecewise_construct_tEJNS_5tupleIJRKS7_EEENSQ_IJEEEEEENS_10unique_ptrINS_11__hash_nodeISB_PvEENS_22__hash_node_destructorINS5_ISY_EEEEEEmOT_DpOT0_
FNL:25,1932
FNA:25,495,_ZNKSt3__112__hash_tableINS_12basic_stringIcNS_11char_traitsIcEENS_9allocatorIcEEEENS_4hashIS6_EENS_8equal_toIS6_EENS4_IS6_EEE14__count_uniqueIS6_EEmRKT_
FNL:26,204
FNA:26,98,_ZNSt3__122__hash_key_value_typesINS_17__hash_value_typeINS_12basic_stringIcNS_11char_traitsIcEENS_9allocatorIcEEEEN4dbal4core12EntitySchemaEEEE9__get_ptrB8ne200100ERSB_
FNA:26,228,_ZNSt3__122__hash_key_value_typesINS_17__hash_value_typeINS_12basic_stringIcNS_11char_traitsIcEENS_9allocatorIcEEEEN4dbal8adapters12EntitySchemaEEEE9__get_ptrB8ne200100ERSB_
FNL:27,298
FNA:27,50,_ZNKSt3__115__hash_iteratorIPNS_11__hash_nodeINS_17__hash_value_typeINS_12basic_stringIcNS_11char_traitsIcEENS_9allocatorIcEEEEN4dbal4core12EntitySchemaEEEPvEEEptB8ne200100Ev
FNA:27,118,_ZNKSt3__115__hash_iteratorIPNS_11__hash_nodeINS_17__hash_value_typeINS_12basic_stringIcNS_11char_traitsIcEENS_9allocatorIcEEEEN4dbal8adapters12EntitySchemaEEEPvEEEptB8ne200100Ev
FNL:28,304
FNA:28,1,_ZNSt3__115__hash_iteratorIPNS_11__hash_nodeINS_17__hash_value_typeINS_12basic_stringIcNS_11char_traitsIcEENS_9allocatorIcEEEEN4dbal4core12EntitySchemaEEEPvEEEppB8ne200100Ev
FNA:28,4,_ZNSt3__115__hash_iteratorIPNS_11__hash_nodeINS_17__hash_value_typeINS_12basic_stringIcNS_11char_traitsIcEENS_9allocatorIcEEEEN4dbal8adapters12EntitySchemaEEEPvEEEppB8ne200100Ev
FNL:29,317
FNA:29,2,_ZNSt3__1eqB8ne200100ERKNS_15__hash_iteratorIPNS_11__hash_nodeINS_17__hash_value_typeINS_12basic_stringIcNS_11char_traitsIcEENS_9allocatorIcEEEEN4dbal4core12EntitySchemaEEEPvEEEESI_
FNA:29,6,_ZNSt3__1eqB8ne200100ERKNS_15__hash_iteratorIPNS_11__hash_nodeINS_17__hash_value_typeINS_12basic_stringIcNS_11char_traitsIcEENS_9allocatorIcEEEEN4dbal8adapters12EntitySchemaEEEPvEEEESI_
FNL:30,325
FNA:30,250,_ZNSt3__115__hash_iteratorIPNS_11__hash_nodeINS_12basic_stringIcNS_11char_traitsIcEENS_9allocatorIcEEEEPvEEEC1B8ne200100EPNS_16__hash_node_baseISA_EE
FNA:30,250,_ZNSt3__115__hash_iteratorIPNS_11__hash_nodeINS_12basic_stringIcNS_11char_traitsIcEENS_9allocatorIcEEEEPvEEEC2B8ne200100EPNS_16__hash_node_baseISA_EE
FNA:30,51,_ZNSt3__115__hash_iteratorIPNS_11__hash_nodeINS_17__hash_value_typeINS_12basic_stringIcNS_11char_traitsIcEENS_9allocatorIcEEEEN4dbal4core12EntitySchemaEEEPvEEEC1B8ne200100EPNS_16__hash_node_baseISF_EE
FNA:30,51,_ZNSt3__115__hash_iteratorIPNS_11__hash_nodeINS_17__hash_value_typeINS_12basic_stringIcNS_11char_traitsIcEENS_9allocatorIcEEEEN4dbal4core12EntitySchemaEEEPvEEEC2B8ne200100EPNS_16__hash_node_baseISF_EE
FNA:30,118,_ZNSt3__115__hash_iteratorIPNS_11__hash_nodeINS_17__hash_value_typeINS_12basic_stringIcNS_11char_traitsIcEENS_9allocatorIcEEEEN4dbal8adapters12EntitySchemaEEEPvEEEC1B8ne200100EPNS_16__hash_node_baseISF_EE
FNA:30,118,_ZNSt3__115__hash_iteratorIPNS_11__hash_nodeINS_17__hash_value_typeINS_12basic_stringIcNS_11char_traitsIcEENS_9allocatorIcEEEEN4dbal8adapters12EntitySchemaEEEPvEEEC2B8ne200100EPNS_16__hash_node_baseISF_EE
FNL:31,359
FNA:31,250,_ZNSt3__121__hash_const_iteratorIPNS_11__hash_nodeINS_12basic_stringIcNS_11char_traitsIcEENS_9allocatorIcEEEEPvEEEC1B8ne200100ERKNS_15__hash_iteratorISA_EE
FNA:31,250,_ZNSt3__121__hash_const_iteratorIPNS_11__hash_nodeINS_12basic_stringIcNS_11char_traitsIcEENS_9allocatorIcEEEEPvEEEC2B8ne200100ERKNS_15__hash_iteratorISA_EE
FNL:32,366
FNA:32,445,_ZNKSt3__121__hash_const_iteratorIPNS_11__hash_nodeINS_17__hash_value_typeINS_12basic_stringIcNS_11char_traitsIcEENS_9allocatorIcEEEEN4dbal4core12EntitySchemaEEEPvEEEptB8ne200100Ev
FNA:32,582,_ZNKSt3__121__hash_const_iteratorIPNS_11__hash_nodeINS_17__hash_value_typeINS_12basic_stringIcNS_11char_traitsIcEENS_9allocatorIcEEEEN4dbal8adapters12EntitySchemaEEEPvEEEptB8ne200100Ev
FNL:33,372
FNA:33,0,_ZNSt3__121__hash_const_iteratorIPNS_11__hash_nodeINS_17__hash_value_typeINS_12basic_stringIcNS_11char_traitsIcEENS_9allocatorIcEEEEN4dbal8adapters12EntitySchemaEEEPvEEEppB8ne200100Ev
FNL:34,385
FNA:34,495,_ZNSt3__1eqB8ne200100ERKNS_21__hash_const_iteratorIPNS_11__hash_nodeINS_12basic_stringIcNS_11char_traitsIcEENS_9allocatorIcEEEEPvEEEESD_
FNA:34,455,_ZNSt3__1eqB8ne200100ERKNS_21__hash_const_iteratorIPNS_11__hash_nodeINS_17__hash_value_typeINS_12basic_stringIcNS_11char_traitsIcEENS_9allocatorIcEEEEN4dbal4core12EntitySchemaEEEPvEEEESI_
FNA:34,588,_ZNSt3__1eqB8ne200100ERKNS_21__hash_const_iteratorIPNS_11__hash_nodeINS_17__hash_value_typeINS_12basic_stringIcNS_11char_traitsIcEENS_9allocatorIcEEEEN4dbal8adapters12EntitySchemaEEEPvEEEESI_
FNL:35,388
FNA:35,495,_ZNSt3__1neB8ne200100ERKNS_21__hash_const_iteratorIPNS_11__hash_nodeINS_12basic_stringIcNS_11char_traitsIcEENS_9allocatorIcEEEEPvEEEESD_
FNL:36,393
FNA:36,990,_ZNSt3__121__hash_const_iteratorIPNS_11__hash_nodeINS_12basic_stringIcNS_11char_traitsIcEENS_9allocatorIcEEEEPvEEEC1B8ne200100EPNS_16__hash_node_baseISA_EE
FNA:36,990,_ZNSt3__121__hash_const_iteratorIPNS_11__hash_nodeINS_12basic_stringIcNS_11char_traitsIcEENS_9allocatorIcEEEEPvEEEC2B8ne200100EPNS_16__hash_node_baseISA_EE
FNA:36,910,_ZNSt3__121__hash_const_iteratorIPNS_11__hash_nodeINS_17__hash_value_typeINS_12basic_stringIcNS_11char_traitsIcEENS_9allocatorIcEEEEN4dbal4core12EntitySchemaEEEPvEEEC1B8ne200100EPNS_16__hash_node_baseISF_EE
FNA:36,910,_ZNSt3__121__hash_const_iteratorIPNS_11__hash_nodeINS_17__hash_value_typeINS_12basic_stringIcNS_11char_traitsIcEENS_9allocatorIcEEEEN4dbal4core12EntitySchemaEEEPvEEEC2B8ne200100EPNS_16__hash_node_baseISF_EE
FNA:36,1176,_ZNSt3__121__hash_const_iteratorIPNS_11__hash_nodeINS_17__hash_value_typeINS_12basic_stringIcNS_11char_traitsIcEENS_9allocatorIcEEEEN4dbal8adapters12EntitySchemaEEEPvEEEC1B8ne200100EPNS_16__hash_node_baseISF_EE
FNA:36,1176,_ZNSt3__121__hash_const_iteratorIPNS_11__hash_nodeINS_17__hash_value_typeINS_12basic_stringIcNS_11char_traitsIcEENS_9allocatorIcEEEEN4dbal8adapters12EntitySchemaEEEPvEEEC2B8ne200100EPNS_16__hash_node_baseISF_EE
FNL:37,570
FNA:37,42,_ZNSt3__125__bucket_list_deallocatorINS_9allocatorIPNS_16__hash_node_baseIPNS_11__hash_nodeINS_12basic_stringIcNS_11char_traitsIcEENS1_IcEEEEPvEEEEEEEC1B8ne200100Ev
FNA:37,42,_ZNSt3__125__bucket_list_deallocatorINS_9allocatorIPNS_16__hash_node_baseIPNS_11__hash_nodeINS_12basic_stringIcNS_11char_traitsIcEENS1_IcEEEEPvEEEEEEEC2B8ne200100Ev
FNA:37,49,_ZNSt3__125__bucket_list_deallocatorINS_9allocatorIPNS_16__hash_node_baseIPNS_11__hash_nodeINS_17__hash_value_typeINS_12basic_stringIcNS_11char_traitsIcEENS1_IcEEEEN4dbal4core12EntitySchemaEEEPvEEEEEEEC1B8ne200100Ev
FNA:37,49,_ZNSt3__125__bucket_list_deallocatorINS_9allocatorIPNS_16__hash_node_baseIPNS_11__hash_nodeINS_17__hash_value_typeINS_12basic_stringIcNS_11char_traitsIcEENS1_IcEEEEN4dbal4core12EntitySchemaEEEPvEEEEEEEC2B8ne200100Ev
FNA:37,57,_ZNSt3__125__bucket_list_deallocatorINS_9allocatorIPNS_16__hash_node_baseIPNS_11__hash_nodeINS_17__hash_value_typeINS_12basic_stringIcNS_11char_traitsIcEENS1_IcEEEEN4dbal8adapters12EntitySchemaEEEPvEEEEEEEC1B8ne200100Ev
FNA:37,57,_ZNSt3__125__bucket_list_deallocatorINS_9allocatorIPNS_16__hash_node_baseIPNS_11__hash_nodeINS_17__hash_value_typeINS_12basic_stringIcNS_11char_traitsIcEENS1_IcEEEEN4dbal8adapters12EntitySchemaEEEPvEEEEEEEC2B8ne200100Ev
FNL:38,583
FNA:38,213,_ZNSt3__125__bucket_list_deallocatorINS_9allocatorIPNS_16__hash_node_baseIPNS_11__hash_nodeINS_12basic_stringIcNS_11char_traitsIcEENS1_IcEEEEPvEEEEEEE4sizeB8ne200100Ev
FNA:38,98,_ZNSt3__125__bucket_list_deallocatorINS_9allocatorIPNS_16__hash_node_baseIPNS_11__hash_nodeINS_17__hash_value_typeINS_12basic_stringIcNS_11char_traitsIcEENS1_IcEEEEN4dbal4core12EntitySchemaEEEPvEEEEEEE4sizeB8ne200100Ev
FNA:38,114,_ZNSt3__125__bucket_list_deallocatorINS_9allocatorIPNS_16__hash_node_baseIPNS_11__hash_nodeINS_17__hash_value_typeINS_12basic_stringIcNS_11char_traitsIcEENS1_IcEEEEN4dbal8adapters12EntitySchemaEEEPvEEEEEEE4sizeB8ne200100Ev
FNL:39,584
FNA:39,950,_ZNKSt3__125__bucket_list_deallocatorINS_9allocatorIPNS_16__hash_node_baseIPNS_11__hash_nodeINS_12basic_stringIcNS_11char_traitsIcEENS1_IcEEEEPvEEEEEEE4sizeB8ne200100Ev
FNA:39,602,_ZNKSt3__125__bucket_list_deallocatorINS_9allocatorIPNS_16__hash_node_baseIPNS_11__hash_nodeINS_17__hash_value_typeINS_12basic_stringIcNS_11char_traitsIcEENS1_IcEEEEN4dbal4core12EntitySchemaEEEPvEEEEEEE4sizeB8ne200100Ev
FNA:39,816,_ZNKSt3__125__bucket_list_deallocatorINS_9allocatorIPNS_16__hash_node_baseIPNS_11__hash_nodeINS_17__hash_value_typeINS_12basic_stringIcNS_11char_traitsIcEENS1_IcEEEEN4dbal8adapters12EntitySchemaEEEPvEEEEEEE4sizeB8ne200100Ev
FNL:40,586
FNA:40,212,_ZNSt3__125__bucket_list_deallocatorINS_9allocatorIPNS_16__hash_node_baseIPNS_11__hash_nodeINS_12basic_stringIcNS_11char_traitsIcEENS1_IcEEEEPvEEEEEEE7__allocB8ne200100Ev
FNA:40,98,_ZNSt3__125__bucket_list_deallocatorINS_9allocatorIPNS_16__hash_node_baseIPNS_11__hash_nodeINS_17__hash_value_typeINS_12basic_stringIcNS_11char_traitsIcEENS1_IcEEEEN4dbal4core12EntitySchemaEEEPvEEEEEEE7__allocB8ne200100Ev
FNA:40,114,_ZNSt3__125__bucket_list_deallocatorINS_9allocatorIPNS_16__hash_node_baseIPNS_11__hash_nodeINS_17__hash_value_typeINS_12basic_stringIcNS_11char_traitsIcEENS1_IcEEEEN4dbal8adapters12EntitySchemaEEEPvEEEEEEE7__allocB8ne200100Ev
FNL:41,589
FNA:41,105,_ZNSt3__125__bucket_list_deallocatorINS_9allocatorIPNS_16__hash_node_baseIPNS_11__hash_nodeINS_12basic_stringIcNS_11char_traitsIcEENS1_IcEEEEPvEEEEEEEclB8ne200100EPSD_
FNA:41,49,_ZNSt3__125__bucket_list_deallocatorINS_9allocatorIPNS_16__hash_node_baseIPNS_11__hash_nodeINS_17__hash_value_typeINS_12basic_stringIcNS_11char_traitsIcEENS1_IcEEEEN4dbal4core12EntitySchemaEEEPvEEEEEEEclB8ne200100EPSI_
FNA:41,57,_ZNSt3__125__bucket_list_deallocatorINS_9allocatorIPNS_16__hash_node_baseIPNS_11__hash_nodeINS_17__hash_value_typeINS_12basic_stringIcNS_11char_traitsIcEENS1_IcEEEEN4dbal8adapters12EntitySchemaEEEPvEEEEEEEclB8ne200100EPSI_
FNL:42,614
FNA:42,245,_ZNSt3__122__hash_node_destructorINS_9allocatorINS_11__hash_nodeINS_12basic_stringIcNS_11char_traitsIcEENS1_IcEEEEPvEEEEEC1B8ne200100ERSA_b
FNA:42,245,_ZNSt3__122__hash_node_destructorINS_9allocatorINS_11__hash_nodeINS_12basic_stringIcNS_11char_traitsIcEENS1_IcEEEEPvEEEEEC2B8ne200100ERSA_b
FNA:42,49,_ZNSt3__122__hash_node_destructorINS_9allocatorINS_11__hash_nodeINS_17__hash_value_typeINS_12basic_stringIcNS_11char_traitsIcEENS1_IcEEEEN4dbal4core12EntitySchemaEEEPvEEEEEC1B8ne200100ERSF_b
FNA:42,49,_ZNSt3__122__hash_node_destructorINS_9allocatorINS_11__hash_nodeINS_17__hash_value_typeINS_12basic_stringIcNS_11char_traitsIcEENS1_IcEEEEN4dbal4core12EntitySchemaEEEPvEEEEEC2B8ne200100ERSF_b
FNA:42,114,_ZNSt3__122__hash_node_destructorINS_9allocatorINS_11__hash_nodeINS_17__hash_value_typeINS_12basic_stringIcNS_11char_traitsIcEENS1_IcEEEEN4dbal8adapters12EntitySchemaEEEPvEEEEEC1B8ne200100ERSF_b
FNA:42,114,_ZNSt3__122__hash_node_destructorINS_9allocatorINS_11__hash_nodeINS_17__hash_value_typeINS_12basic_stringIcNS_11char_traitsIcEENS1_IcEEEEN4dbal8adapters12EntitySchemaEEEPvEEEEEC2B8ne200100ERSF_b
FNL:43,618
FNA:43,0,_ZNSt3__122__hash_node_destructorINS_9allocatorINS_11__hash_nodeINS_12basic_stringIcNS_11char_traitsIcEENS1_IcEEEEPvEEEEEclB8ne200100EPS9_
FNA:43,0,_ZNSt3__122__hash_node_destructorINS_9allocatorINS_11__hash_nodeINS_17__hash_value_typeINS_12basic_stringIcNS_11char_traitsIcEENS1_IcEEEEN4dbal4core12EntitySchemaEEEPvEEEEEclB8ne200100EPSE_
FNA:43,0,_ZNSt3__122__hash_node_destructorINS_9allocatorINS_11__hash_nodeINS_17__hash_value_typeINS_12basic_stringIcNS_11char_traitsIcEENS1_IcEEEEN4dbal8adapters12EntitySchemaEEEPvEEEEEclB8ne200100EPSE_
FNL:44,732
FNA:44,599,_ZNSt3__112__hash_tableINS_12basic_stringIcNS_11char_traitsIcEENS_9allocatorIcEEEENS_4hashIS6_EENS_8equal_toIS6_EENS4_IS6_EEE4sizeB8ne200100Ev
FNA:44,147,_ZNSt3__112__hash_tableINS_17__hash_value_typeINS_12basic_stringIcNS_11char_traitsIcEENS_9allocatorIcEEEEN4dbal4core12EntitySchemaEEENS_22__unordered_map_hasherIS7_SB_NS_4hashIS7_EENS_8equal_toIS7_EELb1EEENS_21__unordered_map_equalIS7_SB_SG_SE_Lb1EEENS5_ISB_EEE4sizeB8ne200100Ev
FNA:44,285,_ZNSt3__112__hash_tableINS_17__hash_value_typeINS_12basic_stringIcNS_11char_traitsIcEENS_9allocatorIcEEEEN4dbal8adapters12EntitySchemaEEENS_22__unordered_map_hasherIS7_SB_NS_4hashIS7_EENS_8equal_toIS7_EELb1EEENS_21__unordered_map_equalIS7_SB_SG_SE_Lb1EEENS5_ISB_EEE4sizeB8ne200100Ev
FNL:45,735
FNA:45,50,_ZNKSt3__112__hash_tableINS_17__hash_value_typeINS_12basic_stringIcNS_11char_traitsIcEENS_9allocatorIcEEEEN4dbal4core12EntitySchemaEEENS_22__unordered_map_hasherIS7_SB_NS_4hashIS7_EENS_8equal_toIS7_EELb1EEENS_21__unordered_map_equalIS7_SB_SG_SE_Lb1EEENS5_ISB_EEE4sizeB8ne200100Ev
FNA:45,2,_ZNKSt3__112__hash_tableINS_17__hash_value_typeINS_12basic_stringIcNS_11char_traitsIcEENS_9allocatorIcEEEEN4dbal8adapters12EntitySchemaEEENS_22__unordered_map_hasherIS7_SB_NS_4hashIS7_EENS_8equal_toIS7_EELb1EEENS_21__unordered_map_equalIS7_SB_SG_SE_Lb1EEENS5_ISB_EEE4sizeB8ne200100Ev
FNL:46,737
FNA:46,247,_ZNSt3__112__hash_tableINS_12basic_stringIcNS_11char_traitsIcEENS_9allocatorIcEEEENS_4hashIS6_EENS_8equal_toIS6_EENS4_IS6_EEE13hash_functionB8ne200100Ev
FNA:46,49,_ZNSt3__112__hash_tableINS_17__hash_value_typeINS_12basic_stringIcNS_11char_traitsIcEENS_9allocatorIcEEEEN4dbal4core12EntitySchemaEEENS_22__unordered_map_hasherIS7_SB_NS_4hashIS7_EENS_8equal_toIS7_EELb1EEENS_21__unordered_map_equalIS7_SB_SG_SE_Lb1EEENS5_ISB_EEE13hash_functionB8ne200100Ev
FNA:46,114,_ZNSt3__112__hash_tableINS_17__hash_value_typeINS_12basic_stringIcNS_11char_traitsIcEENS_9allocatorIcEEEEN4dbal8adapters12EntitySchemaEEENS_22__unordered_map_hasherIS7_SB_NS_4hashIS7_EENS_8equal_toIS7_EELb1EEENS_21__unordered_map_equalIS7_SB_SG_SE_Lb1EEENS5_ISB_EEE13hash_functionB8ne200100Ev
FNL:47,738
FNA:47,495,_ZNKSt3__112__hash_tableINS_12basic_stringIcNS_11char_traitsIcEENS_9allocatorIcEEEENS_4hashIS6_EENS_8equal_toIS6_EENS4_IS6_EEE13hash_functionB8ne200100Ev
FNA:47,455,_ZNKSt3__112__hash_tableINS_17__hash_value_typeINS_12basic_stringIcNS_11char_traitsIcEENS_9allocatorIcEEEEN4dbal4core12EntitySchemaEEENS_22__unordered_map_hasherIS7_SB_NS_4hashIS7_EENS_8equal_toIS7_EELb1EEENS_21__unordered_map_equalIS7_SB_SG_SE_Lb1EEENS5_ISB_EEE13hash_functionB8ne200100Ev
FNA:47,588,_ZNKSt3__112__hash_tableINS_17__hash_value_typeINS_12basic_stringIcNS_11char_traitsIcEENS_9allocatorIcEEEEN4dbal8adapters12EntitySchemaEEENS_22__unordered_map_hasherIS7_SB_NS_4hashIS7_EENS_8equal_toIS7_EELb1EEENS_21__unordered_map_equalIS7_SB_SG_SE_Lb1EEENS5_ISB_EEE13hash_functionB8ne200100Ev
FNL:48,740
FNA:48,352,_ZNSt3__112__hash_tableINS_12basic_stringIcNS_11char_traitsIcEENS_9allocatorIcEEEENS_4hashIS6_EENS_8equal_toIS6_EENS4_IS6_EEE15max_load_factorB8ne200100Ev
FNA:48,98,_ZNSt3__112__hash_tableINS_17__hash_value_typeINS_12basic_stringIcNS_11char_traitsIcEENS_9allocatorIcEEEEN4dbal4core12EntitySchemaEEENS_22__unordered_map_hasherIS7_SB_NS_4hashIS7_EENS_8equal_toIS7_EELb1EEENS_21__unordered_map_equalIS7_SB_SG_SE_Lb1EEENS5_ISB_EEE15max_load_factorB8ne200100Ev
FNA:48,171,_ZNSt3__112__hash_tableINS_17__hash_value_typeINS_12basic_stringIcNS_11char_traitsIcEENS_9allocatorIcEEEEN4dbal8adapters12EntitySchemaEEENS_22__unordered_map_hasherIS7_SB_NS_4hashIS7_EENS_8equal_toIS7_EELb1EEENS_21__unordered_map_equalIS7_SB_SG_SE_Lb1EEENS5_ISB_EEE15max_load_factorB8ne200100Ev
FNL:49,743
FNA:49,2,_ZNSt3__112__hash_tableINS_12basic_stringIcNS_11char_traitsIcEENS_9allocatorIcEEEENS_4hashIS6_EENS_8equal_toIS6_EENS4_IS6_EEE6key_eqB8ne200100Ev
FNA:49,0,_ZNSt3__112__hash_tableINS_17__hash_value_typeINS_12basic_stringIcNS_11char_traitsIcEENS_9allocatorIcEEEEN4dbal4core12EntitySchemaEEENS_22__unordered_map_hasherIS7_SB_NS_4hashIS7_EENS_8equal_toIS7_EELb1EEENS_21__unordered_map_equalIS7_SB_SG_SE_Lb1EEENS5_ISB_EEE6key_eqB8ne200100Ev
FNA:49,0,_ZNSt3__112__hash_tableINS_17__hash_value_typeINS_12basic_stringIcNS_11char_traitsIcEENS_9allocatorIcEEEEN4dbal8adapters12EntitySchemaEEENS_22__unordered_map_hasherIS7_SB_NS_4hashIS7_EENS_8equal_toIS7_EELb1EEENS_21__unordered_map_equalIS7_SB_SG_SE_Lb1EEENS5_ISB_EEE6key_eqB8ne200100Ev
FNL:50,744
FNA:50,68,_ZNKSt3__112__hash_tableINS_12basic_stringIcNS_11char_traitsIcEENS_9allocatorIcEEEENS_4hashIS6_EENS_8equal_toIS6_EENS4_IS6_EEE6key_eqB8ne200100Ev
FNA:50,445,_ZNKSt3__112__hash_tableINS_17__hash_value_typeINS_12basic_stringIcNS_11char_traitsIcEENS_9allocatorIcEEEEN4dbal4core12EntitySchemaEEENS_22__unordered_map_hasherIS7_SB_NS_4hashIS7_EENS_8equal_toIS7_EELb1EEENS_21__unordered_map_equalIS7_SB_SG_SE_Lb1EEENS5_ISB_EEE6key_eqB8ne200100Ev
FNA:50,582,_ZNKSt3__112__hash_tableINS_17__hash_value_typeINS_12basic_stringIcNS_11char_traitsIcEENS_9allocatorIcEEEEN4dbal8adapters12EntitySchemaEEENS_22__unordered_map_hasherIS7_SB_NS_4hashIS7_EENS_8equal_toIS7_EELb1EEENS_21__unordered_map_equalIS7_SB_SG_SE_Lb1EEENS5_ISB_EEE6key_eqB8ne200100Ev
FNL:51,746
FNA:51,289,_ZNSt3__112__hash_tableINS_12basic_stringIcNS_11char_traitsIcEENS_9allocatorIcEEEENS_4hashIS6_EENS_8equal_toIS6_EENS4_IS6_EEE12__node_allocB8ne200100Ev
FNA:51,98,_ZNSt3__112__hash_tableINS_17__hash_value_typeINS_12basic_stringIcNS_11char_traitsIcEENS_9allocatorIcEEEEN4dbal4core12EntitySchemaEEENS_22__unordered_map_hasherIS7_SB_NS_4hashIS7_EENS_8equal_toIS7_EELb1EEENS_21__unordered_map_equalIS7_SB_SG_SE_Lb1EEENS5_ISB_EEE12__node_allocB8ne200100Ev
FNA:51,171,_ZNSt3__112__hash_tableINS_17__hash_value_typeINS_12basic_stringIcNS_11char_traitsIcEENS_9allocatorIcEEEEN4dbal8adapters12EntitySchemaEEENS_22__unordered_map_hasherIS7_SB_NS_4hashIS7_EENS_8equal_toIS7_EELb1EEENS_21__unordered_map_equalIS7_SB_SG_SE_Lb1EEENS5_ISB_EEE12__node_allocB8ne200100Ev
FNL:52,857
FNA:52,245,_ZNSt3__112__hash_tableINS_12basic_stringIcNS_11char_traitsIcEENS_9allocatorIcEEEENS_4hashIS6_EENS_8equal_toIS6_EENS4_IS6_EEE15__insert_uniqueB8ne200100ERKS6_
FNL:53,883
FNA:53,105,_ZNSt3__112__hash_tableINS_12basic_stringIcNS_11char_traitsIcEENS_9allocatorIcEEEENS_4hashIS6_EENS_8equal_toIS6_EENS4_IS6_EEE15__rehash_uniqueB8ne200100Em
FNA:53,49,_ZNSt3__112__hash_tableINS_17__hash_value_typeINS_12basic_stringIcNS_11char_traitsIcEENS_9allocatorIcEEEEN4dbal4core12EntitySchemaEEENS_22__unordered_map_hasherIS7_SB_NS_4hashIS7_EENS_8equal_toIS7_EELb1EEENS_21__unordered_map_equalIS7_SB_SG_SE_Lb1EEENS5_ISB_EEE15__rehash_uniqueB8ne200100Em
FNA:53,57,_ZNSt3__112__hash_tableINS_17__hash_value_typeINS_12basic_stringIcNS_11char_traitsIcEENS_9allocatorIcEEEEN4dbal8adapters12EntitySchemaEEENS_22__unordered_map_hasherIS7_SB_NS_4hashIS7_EENS_8equal_toIS7_EELb1EEENS_21__unordered_map_equalIS7_SB_SG_SE_Lb1EEENS5_ISB_EEE15__rehash_uniqueB8ne200100Em
FNL:54,892
FNA:54,950,_ZNKSt3__112__hash_tableINS_12basic_stringIcNS_11char_traitsIcEENS_9allocatorIcEEEENS_4hashIS6_EENS_8equal_toIS6_EENS4_IS6_EEE12bucket_countB8ne200100Ev
FNA:54,602,_ZNKSt3__112__hash_tableINS_17__hash_value_typeINS_12basic_stringIcNS_11char_traitsIcEENS_9allocatorIcEEEEN4dbal4core12EntitySchemaEEENS_22__unordered_map_hasherIS7_SB_NS_4hashIS7_EENS_8equal_toIS7_EELb1EEENS_21__unordered_map_equalIS7_SB_SG_SE_Lb1EEENS5_ISB_EEE12bucket_countB8ne200100Ev
FNA:54,816,_ZNKSt3__112__hash_tableINS_17__hash_value_typeINS_12basic_stringIcNS_11char_traitsIcEENS_9allocatorIcEEEEN4dbal8adapters12EntitySchemaEEENS_22__unordered_map_hasherIS7_SB_NS_4hashIS7_EENS_8equal_toIS7_EELb1EEENS_21__unordered_map_equalIS7_SB_SG_SE_Lb1EEENS5_ISB_EEE12bucket_countB8ne200100Ev
FNL:55,97
FNA:55,490,_ZNSt3__116__hash_node_baseIPNS_11__hash_nodeINS_12basic_stringIcNS_11char_traitsIcEENS_9allocatorIcEEEEPvEEE5__ptrB8ne200100Ev
FNA:55,147,_ZNSt3__116__hash_node_baseIPNS_11__hash_nodeINS_17__hash_value_typeINS_12basic_stringIcNS_11char_traitsIcEENS_9allocatorIcEEEEN4dbal4core12EntitySchemaEEEPvEEE5__ptrB8ne200100Ev
FNA:55,171,_ZNSt3__116__hash_node_baseIPNS_11__hash_nodeINS_17__hash_value_typeINS_12basic_stringIcNS_11char_traitsIcEENS_9allocatorIcEEEEN4dbal8adapters12EntitySchemaEEEPvEEE5__ptrB8ne200100Ev
FNF:56
FNH:51
DA:97,808
DA:98,808
DA:101,2698
DA:102,2698
DA:105,4978
DA:107,296
DA:108,408
DA:129,3106
DA:139,816
DA:140,816
DA:143,212
DA:145,2776
DA:146,2776
DA:149,0
DA:150,0
DA:177,245
DA:179,490
DA:204,326
DA:205,326
DA:298,168
DA:301,168
DA:304,5
DA:307,5
DA:308,5
DA:317,8
DA:318,8
DA:325,838
DA:359,500
DA:366,1027
DA:369,1027
DA:372,0
DA:375,0
DA:376,0
DA:385,1538
DA:386,1538
DA:388,495
DA:389,495
DA:393,6152
DA:570,444
DA:571,444
DA:583,425
DA:584,2368
DA:586,424
DA:589,211
DA:614,816
DA:615,408
DA:616,816
DA:618,0
DA:619,0
DA:620,0
DA:621,0
DA:622,0
DA:623,0
DA:624,0
DA:625,0
DA:732,1031
DA:735,52
DA:737,410
DA:738,1538
DA:740,621
DA:743,2
DA:744,1095
DA:746,558
DA:857,245
DA:858,245
DA:883,211
DA:892,2368
DA:1029,592
DA:1033,592
DA:1125,296
DA:1131,148
DA:1132,296
DA:1158,148
DA:1159,148
DA:1160,556
DA:1161,408
DA:1162,408
DA:1163,408
DA:1164,408
DA:1165,408
DA:1166,408
DA:1168,148
DA:1314,3
DA:1315,3
DA:1320,3
DA:1321,3
DA:1326,0
DA:1327,0
DA:1332,1981
DA:1333,1981
DA:1528,408
DA:1529,408
DA:1530,408
DA:1531,408
DA:1534,408
DA:1535,267
DA:1536,267
DA:1537,267
DA:1538,648
DA:1539,324
DA:1540,162
DA:1541,162
DA:1542,0
DA:1543,162
DA:1544,162
DA:1545,267
DA:1547,408
DA:1548,408
DA:1549,211
DA:1550,211
DA:1551,211
DA:1552,211
DA:1553,211
DA:1555,408
DA:1556,408
DA:1557,246
DA:1558,246
DA:1559,246
DA:1561,246
DA:1562,246
DA:1563,105
DA:1564,246
DA:1565,162
DA:1566,162
DA:1568,408
DA:1570,408
DA:1571,408
DA:1572,408
DA:1574,408
DA:1575,0
DA:1708,211
DA:1709,211
DA:1710,141
DA:1711,70
DA:1712,70
DA:1713,211
DA:1714,211
DA:1715,211
DA:1716,0
DA:1717,0
DA:1719,0
DA:1720,0
DA:1721,0
DA:1722,0
DA:1723,0
DA:1724,211
DA:1728,211
DA:1729,211
DA:1730,211
DA:1731,211
DA:1732,211
DA:1733,1053
DA:1734,842
DA:1735,211
DA:1736,211
DA:1737,211
DA:1738,70
DA:1739,70
DA:1740,70
DA:1741,245
DA:1742,175
DA:1743,175
DA:1744,0
DA:1746,175
DA:1747,175
DA:1748,175
DA:1749,175
DA:1750,175
DA:1751,0
DA:1758,0
DA:1759,0
DA:1760,0
DA:1763,175
DA:1764,70
DA:1765,211
DA:1766,211
DA:1771,0
DA:1772,0
DA:1773,0
DA:1774,0
DA:1775,0
DA:1776,0
DA:1777,0
DA:1778,0
DA:1779,0
DA:1780,0
DA:1781,0
DA:1782,0
DA:1783,0
DA:1784,0
DA:1785,0
DA:1786,0
DA:1787,0
DA:1792,1538
DA:1793,1538
DA:1794,1538
DA:1795,1538
DA:1796,1111
DA:1797,1111
DA:1798,1111
DA:1799,3430
DA:1800,1715
DA:1801,604
DA:1802,1699
DA:1803,1095
DA:1804,604
DA:1805,16
DA:1806,16
DA:1807,443
DA:1808,1538
DA:1837,408
DA:1839,408
DA:1840,408
DA:1841,408
DA:1842,408
DA:1843,408
DA:1844,408
DA:1845,408
DA:1846,408
DA:1932,495
DA:1933,495
LF:221
LH:175
end_of_record
TN:
SF:/Library/Developer/CommandLineTools/SDKs/MacOSX.sdk/usr/include/c++/v1/__iterator/access.h
FNL:0,40,41
FNA:0,2,_ZNSt3__15beginB8ne200100INS_12basic_stringIcNS_11char_traitsIcEENS_9allocatorIcEEEEEEDTcldtfp_5beginEERKT_
FNA:0,106,_ZNSt3__15beginB8ne200100INS_17basic_string_viewIcNS_11char_traitsIcEEEEEEDTcldtfp_5beginEERKT_
FNA:0,0,_ZNSt3__15beginB8ne200100INS_3mapINS_12basic_stringIcNS_11char_traitsIcEENS_9allocatorIcEEEES7_NS_4lessIS7_EENS5_INS_4pairIKS7_S7_EEEEEEEEDTcldtfp_5beginEERKT_
FNA:0,212,_ZNSt3__15beginB8ne200100INS_6vectorINS_12basic_stringIcNS_11char_traitsIcEENS_9allocatorIcEEEENS5_IS7_EEEEEEDTcldtfp_5beginEERKT_
FNA:0,0,_ZNSt3__15beginB8ne200100INS_6vectorIiNS_9allocatorIiEEEEEEDTcldtfp_5beginEERKT_
FNL:1,50,51
FNA:1,2,_ZNSt3__13endB8ne200100INS_12basic_stringIcNS_11char_traitsIcEENS_9allocatorIcEEEEEEDTcldtfp_3endEERKT_
FNA:1,106,_ZNSt3__13endB8ne200100INS_17basic_string_viewIcNS_11char_traitsIcEEEEEEDTcldtfp_3endEERKT_
FNA:1,0,_ZNSt3__13endB8ne200100INS_3mapINS_12basic_stringIcNS_11char_traitsIcEENS_9allocatorIcEEEES7_NS_4lessIS7_EENS5_INS_4pairIKS7_S7_EEEEEEEEDTcldtfp_3endEERKT_
FNA:1,212,_ZNSt3__13endB8ne200100INS_6vectorINS_12basic_stringIcNS_11char_traitsIcEENS_9allocatorIcEEEENS5_IS7_EEEEEEDTcldtfp_3endEERKT_
FNA:1,0,_ZNSt3__13endB8ne200100INS_6vectorIiNS_9allocatorIiEEEEEEDTcldtfp_3endEERKT_
FNF:2
FNH:2
DA:40,320
DA:41,320
DA:50,320
DA:51,320
LF:4
LH:4
end_of_record
TN:
SF:/Library/Developer/CommandLineTools/SDKs/MacOSX.sdk/usr/include/c++/v1/__iterator/advance.h
FNL:0,46,53
FNA:0,1179,_ZNSt3__19__advanceB8ne200100INS_14__map_iteratorINS_15__tree_iteratorINS_12__value_typeINS_12basic_stringIcNS_11char_traitsIcEENS_9allocatorIcEEEEN8nlohmann16json_abi_v3_11_310basic_jsonINS_3mapENS_6vectorES9_bxydS7_NSB_14adl_serializerENSE_IhNS7_IhEEEEvEEEEPNS_11__tree_nodeISJ_PvEElEEEEEEvRT_NS_15iterator_traitsISQ_E15difference_typeENS_26bidirectional_iterator_tagE
FNA:0,0,_ZNSt3__19__advanceB8ne200100INS_20__map_const_iteratorINS_21__tree_const_iteratorINS_12__value_typeINS_12basic_stringIcNS_11char_traitsIcEENS_9allocatorIcEEEEN8nlohmann16json_abi_v3_11_310basic_jsonINS_3mapENS_6vectorES9_bxydS7_NSB_14adl_serializerENSE_IhNS7_IhEEEEvEEEEPNS_11__tree_nodeISJ_PvEElEEEEEEvRT_NS_15iterator_traitsISQ_E15difference_typeENS_26bidirectional_iterator_tagE
FNA:0,0,_ZNSt3__19__advanceB8ne200100INS_21__tree_const_iteratorINS_12__value_typeINS_12basic_stringIcNS_11char_traitsIcEENS_9allocatorIcEEEEN4dbal4core12EntitySchemaEEEPNS_11__tree_nodeISC_PvEElEEEEvRT_NS_15iterator_traitsISI_E15difference_typeENS_26bidirectional_iterator_tagE
FNA:0,0,_ZNSt3__19__advanceB8ne200100INS_21__tree_const_iteratorINS_12__value_typeINS_12basic_stringIcNS_11char_traitsIcEENS_9allocatorIcEEEEN8nlohmann16json_abi_v3_11_310basic_jsonINS_3mapENS_6vectorES8_bxydS6_NSA_14adl_serializerENSD_IhNS6_IhEEEEvEEEEPNS_11__tree_nodeISI_PvEElEEEEvRT_NS_15iterator_traitsISO_E15difference_typeENS_26bidirectional_iterator_tagE
FNA:0,0,_ZNSt3__19__advanceB8ne200100INS_21__tree_const_iteratorINS_12__value_typeINS_12basic_stringIcNS_11char_traitsIcEENS_9allocatorIcEEEENS_10shared_ptrIN4inja18BlockStatementNodeEEEEEPNS_11__tree_nodeISD_PvEElEEEEvRT_NS_15iterator_traitsISJ_E15difference_typeENS_26bidirectional_iterator_tagE
FNA:0,0,_ZNSt3__19__advanceB8ne200100INS_21__tree_const_iteratorINS_12__value_typeINS_12basic_stringIcNS_11char_traitsIcEENS_9allocatorIcEEEES8_EEPNS_11__tree_nodeIS9_PvEElEEEEvRT_NS_15iterator_traitsISF_E15difference_typeENS_26bidirectional_iterator_tagE
FNA:0,0,_ZNSt3__19__advanceB8ne200100INS_21__tree_const_iteratorINS_12__value_typeINS_12basic_stringIcNS_11char_traitsIcEENS_9allocatorIcEEEEbEEPNS_11__tree_nodeIS9_PvEElEEEEvRT_NS_15iterator_traitsISF_E15difference_typeENS_26bidirectional_iterator_tagE
FNA:0,0,_ZNSt3__19__advanceB8ne200100INS_21__tree_const_iteratorINS_12__value_typeINS_4pairINS_12basic_stringIcNS_11char_traitsIcEENS_9allocatorIcEEEEiEEN4inja15FunctionStorage12FunctionDataEEEPNS_11__tree_nodeISE_PvEElEEEEvRT_NS_15iterator_traitsISK_E15difference_typeENS_26bidirectional_iterator_tagE
FNL:1,57,59
FNA:1,236,_ZNSt3__19__advanceB8ne200100INS_11__wrap_iterIPKcEEEEvRT_NS_15iterator_traitsIS5_E15difference_typeENS_26random_access_iterator_tagE
FNA:1,1712,_ZNSt3__19__advanceB8ne200100INS_11__wrap_iterIPN8nlohmann16json_abi_v3_11_310basic_jsonINS_3mapENS_6vectorENS_12basic_stringIcNS_11char_traitsIcEENS_9allocatorIcEEEEbxydSA_NS3_14adl_serializerENS6_IhNSA_IhEEEEvEEEEEEvRT_NS_15iterator_traitsISJ_E15difference_typeENS_26random_access_iterator_tagE
FNA:1,0,_ZNSt3__19__advanceB8ne200100IPKNS_10shared_ptrIN4inja14ExpressionNodeEEEEEvRT_NS_15iterator_traitsIS7_E15difference_typeENS_26random_access_iterator_tagE
FNA:1,0,_ZNSt3__19__advanceB8ne200100IPKNS_12basic_stringIcNS_11char_traitsIcEENS_9allocatorIcEEEEEEvRT_NS_15iterator_traitsIS9_E15difference_typeENS_26random_access_iterator_tagE
FNA:1,954,_ZNSt3__19__advanceB8ne200100IPKcEEvRT_NS_15iterator_traitsIS3_E15difference_typeENS_26random_access_iterator_tagE
FNA:1,0,_ZNSt3__19__advanceB8ne200100IPN4dbal4core11EntityFieldEEEvRT_NS_15iterator_traitsIS5_E15difference_typeENS_26random_access_iterator_tagE
FNA:1,0,_ZNSt3__19__advanceB8ne200100IPN4dbal4core11EntityIndexEEEvRT_NS_15iterator_traitsIS5_E15difference_typeENS_26random_access_iterator_tagE
FNA:1,0,_ZNSt3__19__advanceB8ne200100IPN4dbal4core11RelationDefEEEvRT_NS_15iterator_traitsIS5_E15difference_typeENS_26random_access_iterator_tagE
FNA:1,0,_ZNSt3__19__advanceB8ne200100IPN4dbal8adapters11EntityFieldEEEvRT_NS_15iterator_traitsIS5_E15difference_typeENS_26random_access_iterator_tagE
FNA:1,0,_ZNSt3__19__advanceB8ne200100IPN4dbal8adapters11RelationDefEEEvRT_NS_15iterator_traitsIS5_E15difference_typeENS_26random_access_iterator_tagE
FNA:1,0,_ZNSt3__19__advanceB8ne200100IPN8nlohmann16json_abi_v3_11_310basic_jsonINS_3mapENS_6vectorENS_12basic_stringIcNS_11char_traitsIcEENS_9allocatorIcEEEEbxydS9_NS2_14adl_serializerENS5_IhNS9_IhEEEEvEEEEvRT_NS_15iterator_traitsISH_E15difference_typeENS_26random_access_iterator_tagE
FNA:1,0,_ZNSt3__19__advanceB8ne200100IPNS_12basic_stringIcNS_11char_traitsIcEENS_9allocatorIcEEEEEEvRT_NS_15iterator_traitsIS8_E15difference_typeENS_26random_access_iterator_tagE
FNA:1,0,_ZNSt3__19__advanceB8ne200100IPNS_4pairImPKcEEEEvRT_NS_15iterator_traitsIS6_E15difference_typeENS_26random_access_iterator_tagE
FNA:1,0,_ZNSt3__19__advanceB8ne200100IPNS_9sub_matchIPKcEEEEvRT_NS_15iterator_traitsIS6_E15difference_typeENS_26random_access_iterator_tagE
FNL:2,65,72
FNA:2,236,_ZNSt3__17advanceB8ne200100INS_11__wrap_iterIPKcEEiiLi0EEEvRT_T0_
FNA:2,0,_ZNSt3__17advanceB8ne200100INS_11__wrap_iterIPKcEEllLi0EEEvRT_T0_
FNA:2,1712,_ZNSt3__17advanceB8ne200100INS_11__wrap_iterIPN8nlohmann16json_abi_v3_11_310basic_jsonINS_3mapENS_6vectorENS_12basic_stringIcNS_11char_traitsIcEENS_9allocatorIcEEEEbxydSA_NS3_14adl_serializerENS6_IhNSA_IhEEEEvEEEEiiLi0EEEvRT_T0_
FNA:2,0,_ZNSt3__17advanceB8ne200100INS_11__wrap_iterIPN8nlohmann16json_abi_v3_11_310basic_jsonINS_3mapENS_6vectorENS_12basic_stringIcNS_11char_traitsIcEENS_9allocatorIcEEEEbxydSA_NS3_14adl_serializerENS6_IhNSA_IhEEEEvEEEEllLi0EEEvRT_T0_
FNA:2,1179,_ZNSt3__17advanceB8ne200100INS_14__map_iteratorINS_15__tree_iteratorINS_12__value_typeINS_12basic_stringIcNS_11char_traitsIcEENS_9allocatorIcEEEEN8nlohmann16json_abi_v3_11_310basic_jsonINS_3mapENS_6vectorES9_bxydS7_NSB_14adl_serializerENSE_IhNS7_IhEEEEvEEEEPNS_11__tree_nodeISJ_PvEElEEEEiiLi0EEEvRT_T0_
FNA:2,0,_ZNSt3__17advanceB8ne200100INS_20__map_const_iteratorINS_21__tree_const_iteratorINS_12__value_typeINS_12basic_stringIcNS_11char_traitsIcEENS_9allocatorIcEEEEN8nlohmann16json_abi_v3_11_310basic_jsonINS_3mapENS_6vectorES9_bxydS7_NSB_14adl_serializerENSE_IhNS7_IhEEEEvEEEEPNS_11__tree_nodeISJ_PvEElEEEEllLi0EEEvRT_T0_
FNA:2,0,_ZNSt3__17advanceB8ne200100INS_21__tree_const_iteratorINS_12__value_typeINS_12basic_stringIcNS_11char_traitsIcEENS_9allocatorIcEEEEN4dbal4core12EntitySchemaEEEPNS_11__tree_nodeISC_PvEElEEllLi0EEEvRT_T0_
FNA:2,0,_ZNSt3__17advanceB8ne200100INS_21__tree_const_iteratorINS_12__value_typeINS_12basic_stringIcNS_11char_traitsIcEENS_9allocatorIcEEEEN8nlohmann16json_abi_v3_11_310basic_jsonINS_3mapENS_6vectorES8_bxydS6_NSA_14adl_serializerENSD_IhNS6_IhEEEEvEEEEPNS_11__tree_nodeISI_PvEElEEllLi0EEEvRT_T0_
FNA:2,0,_ZNSt3__17advanceB8ne200100INS_21__tree_const_iteratorINS_12__value_typeINS_12basic_stringIcNS_11char_traitsIcEENS_9allocatorIcEEEENS_10shared_ptrIN4inja18BlockStatementNodeEEEEEPNS_11__tree_nodeISD_PvEElEEllLi0EEEvRT_T0_
FNA:2,0,_ZNSt3__17advanceB8ne200100INS_21__tree_const_iteratorINS_12__value_typeINS_12basic_stringIcNS_11char_traitsIcEENS_9allocatorIcEEEES8_EEPNS_11__tree_nodeIS9_PvEElEEllLi0EEEvRT_T0_
FNA:2,0,_ZNSt3__17advanceB8ne200100INS_21__tree_const_iteratorINS_12__value_typeINS_12basic_stringIcNS_11char_traitsIcEENS_9allocatorIcEEEEbEEPNS_11__tree_nodeIS9_PvEElEEllLi0EEEvRT_T0_
FNA:2,0,_ZNSt3__17advanceB8ne200100INS_21__tree_const_iteratorINS_12__value_typeINS_4pairINS_12basic_stringIcNS_11char_traitsIcEENS_9allocatorIcEEEEiEEN4inja15FunctionStorage12FunctionDataEEEPNS_11__tree_nodeISE_PvEElEEllLi0EEEvRT_T0_
FNA:2,0,_ZNSt3__17advanceB8ne200100IPKNS_10shared_ptrIN4inja14ExpressionNodeEEEllLi0EEEvRT_T0_
FNA:2,0,_ZNSt3__17advanceB8ne200100IPKNS_12basic_stringIcNS_11char_traitsIcEENS_9allocatorIcEEEEllLi0EEEvRT_T0_
FNA:2,954,_ZNSt3__17advanceB8ne200100IPKciiLi0EEEvRT_T0_
FNA:2,0,_ZNSt3__17advanceB8ne200100IPKcllLi0EEEvRT_T0_
FNA:2,0,_ZNSt3__17advanceB8ne200100IPN4dbal4core11EntityFieldEllLi0EEEvRT_T0_
FNA:2,0,_ZNSt3__17advanceB8ne200100IPN4dbal4core11EntityIndexEllLi0EEEvRT_T0_
FNA:2,0,_ZNSt3__17advanceB8ne200100IPN4dbal4core11RelationDefEllLi0EEEvRT_T0_
FNA:2,0,_ZNSt3__17advanceB8ne200100IPN4dbal8adapters11EntityFieldEllLi0EEEvRT_T0_
FNA:2,0,_ZNSt3__17advanceB8ne200100IPN4dbal8adapters11RelationDefEllLi0EEEvRT_T0_
FNA:2,0,_ZNSt3__17advanceB8ne200100IPN8nlohmann16json_abi_v3_11_310basic_jsonINS_3mapENS_6vectorENS_12basic_stringIcNS_11char_traitsIcEENS_9allocatorIcEEEEbxydS9_NS2_14adl_serializerENS5_IhNS9_IhEEEEvEEllLi0EEEvRT_T0_
FNA:2,0,_ZNSt3__17advanceB8ne200100IPNS_12basic_stringIcNS_11char_traitsIcEENS_9allocatorIcEEEEllLi0EEEvRT_T0_
FNA:2,0,_ZNSt3__17advanceB8ne200100IPNS_4pairImPKcEEllLi0EEEvRT_T0_
FNA:2,0,_ZNSt3__17advanceB8ne200100IPNS_9sub_matchIPKcEEllLi0EEEvRT_T0_
FNF:3
FNH:3
DA:46,1179
DA:47,1179
DA:48,2358
DA:49,2358
DA:51,0
DA:52,0
DA:53,1179
DA:57,2902
DA:58,2902
DA:59,2902
DA:65,4081
DA:67,4081
DA:71,4081
DA:72,4081
LF:14
LH:12
end_of_record
TN:
SF:/Library/Developer/CommandLineTools/SDKs/MacOSX.sdk/usr/include/c++/v1/__iterator/back_insert_iterator.h
FNL:0,53,54
FNA:0,5627,_ZNSt3__120back_insert_iteratorINS_6vectorIN8nlohmann16json_abi_v3_11_310basic_jsonINS_3mapES1_NS_12basic_stringIcNS_11char_traitsIcEENS_9allocatorIcEEEEbxydS9_NS3_14adl_serializerENS1_IhNS9_IhEEEEvEENS9_ISF_EEEEEC1B8ne200100ERSH_
FNA:0,5627,_ZNSt3__120back_insert_iteratorINS_6vectorIN8nlohmann16json_abi_v3_11_310basic_jsonINS_3mapES1_NS_12basic_stringIcNS_11char_traitsIcEENS_9allocatorIcEEEEbxydS9_NS3_14adl_serializerENS1_IhNS9_IhEEEEvEENS9_ISF_EEEEEC2B8ne200100ERSH_
FNL:1,62,64
FNA:1,8540,_ZNSt3__120back_insert_iteratorINS_6vectorIN8nlohmann16json_abi_v3_11_310basic_jsonINS_3mapES1_NS_12basic_stringIcNS_11char_traitsIcEENS_9allocatorIcEEEEbxydS9_NS3_14adl_serializerENS1_IhNS9_IhEEEEvEENS9_ISF_EEEEEaSB8ne200100EOSF_
FNL:2,67,67
FNA:2,8540,_ZNSt3__120back_insert_iteratorINS_6vectorIN8nlohmann16json_abi_v3_11_310basic_jsonINS_3mapES1_NS_12basic_stringIcNS_11char_traitsIcEENS_9allocatorIcEEEEbxydS9_NS3_14adl_serializerENS1_IhNS9_IhEEEEvEENS9_ISF_EEEEEdeB8ne200100Ev
FNL:3,68,68
FNA:3,8540,_ZNSt3__120back_insert_iteratorINS_6vectorIN8nlohmann16json_abi_v3_11_310basic_jsonINS_3mapES1_NS_12basic_stringIcNS_11char_traitsIcEENS_9allocatorIcEEEEbxydS9_NS3_14adl_serializerENS1_IhNS9_IhEEEEvEENS9_ISF_EEEEEppB8ne200100Ev
FNL:4,77,78
FNA:4,5627,_ZNSt3__113back_inserterB8ne200100INS_6vectorIN8nlohmann16json_abi_v3_11_310basic_jsonINS_3mapES1_NS_12basic_stringIcNS_11char_traitsIcEENS_9allocatorIcEEEEbxydS9_NS3_14adl_serializerENS1_IhNS9_IhEEEEvEENS9_ISF_EEEEEENS_20back_insert_iteratorIT_EERSJ_
FNF:5
FNH:5
DA:53,11254
DA:54,11254
DA:62,8540
DA:63,8540
DA:64,8540
DA:67,8540
DA:68,8540
DA:77,5627
DA:78,5627
LF:9
LH:9
end_of_record
TN:
SF:/Library/Developer/CommandLineTools/SDKs/MacOSX.sdk/usr/include/c++/v1/__iterator/distance.h
FNL:0,40,41
FNA:0,212,_ZNSt3__110__distanceB8ne200100INS_11__wrap_iterIPKNS_12basic_stringIcNS_11char_traitsIcEENS_9allocatorIcEEEEEEEENS_15iterator_traitsIT_E15difference_typeESC_SC_NS_26random_access_iterator_tagE
FNA:0,0,_ZNSt3__110__distanceB8ne200100INS_11__wrap_iterIPKiEEEENS_15iterator_traitsIT_E15difference_typeES6_S6_NS_26random_access_iterator_tagE
FNA:0,0,_ZNSt3__110__distanceB8ne200100INS_11__wrap_iterIPcEEEENS_15iterator_traitsIT_E15difference_typeES5_S5_NS_26random_access_iterator_tagE
FNA:0,0,_ZNSt3__110__distanceB8ne200100INS_13move_iteratorIPNS_10shared_ptrIN4inja14ExpressionNodeEEEEEEENS_15iterator_traitsIT_E15difference_typeES9_S9_NS_26random_access_iterator_tagE
FNA:0,0,_ZNSt3__110__distanceB8ne200100INS_13move_iteratorIPPNS_10shared_ptrIN4inja12FunctionNodeEEEEEEENS_15iterator_traitsIT_E15difference_typeESA_SA_NS_26random_access_iterator_tagE
FNA:0,0,_ZNSt3__110__distanceB8ne200100INS_13move_iteratorIPPNS_10unique_ptrIN4dbal8adapters3sql13SqlConnectionENS_14default_deleteIS6_EEEEEEEENS_15iterator_traitsIT_E15difference_typeESE_SE_NS_26random_access_iterator_tagE
FNA:0,0,_ZNSt3__110__distanceB8ne200100INS_13move_iteratorIPPNS_7__stateIcEEEEEENS_15iterator_traitsIT_E15difference_typeES8_S8_NS_26random_access_iterator_tagE
FNA:0,0,_ZNSt3__110__distanceB8ne200100INS_13move_iteratorIPPPKN4inja8DataNodeEEEEENS_15iterator_traitsIT_E15difference_typeESA_SA_NS_26random_access_iterator_tagE
FNA:0,0,_ZNSt3__110__distanceB8ne200100INS_13move_iteratorIPPPKN8nlohmann16json_abi_v3_11_310basic_jsonINS_3mapENS_6vectorENS_12basic_stringIcNS_11char_traitsIcEENS_9allocatorIcEEEEbxydSA_NS3_14adl_serializerENS6_IhNSA_IhEEEEvEEEEEENS_15iterator_traitsIT_E15difference_typeESN_SN_NS_26random_access_iterator_tagE
FNA:0,0,_ZNSt3__110__distanceB8ne200100INS_13move_iteratorIPPPN4inja15IfStatementNodeEEEEENS_15iterator_traitsIT_E15difference_typeES9_S9_NS_26random_access_iterator_tagE
FNA:0,0,_ZNSt3__110__distanceB8ne200100INS_13move_iteratorIPPPN4inja16ForStatementNodeEEEEENS_15iterator_traitsIT_E15difference_typeES9_S9_NS_26random_access_iterator_tagE
FNA:0,0,_ZNSt3__110__distanceB8ne200100INS_13move_iteratorIPPPN4inja18BlockStatementNodeEEEEENS_15iterator_traitsIT_E15difference_typeES9_S9_NS_26random_access_iterator_tagE
FNA:0,597,_ZNSt3__110__distanceB8ne200100IPKN8nlohmann16json_abi_v3_11_36detail8json_refINS2_10basic_jsonINS_3mapENS_6vectorENS_12basic_stringIcNS_11char_traitsIcEENS_9allocatorIcEEEEbxydSB_NS2_14adl_serializerENS7_IhNSB_IhEEEEvEEEEEENS_15iterator_traitsIT_E15difference_typeESM_SM_NS_26random_access_iterator_tagE
FNA:0,1908,_ZNSt3__110__distanceB8ne200100IPKNS_10shared_ptrIN4inja14ExpressionNodeEEEEENS_15iterator_traitsIT_E15difference_typeES8_S8_NS_26random_access_iterator_tagE
FNA:0,9,_ZNSt3__110__distanceB8ne200100IPKNS_12basic_stringIcNS_11char_traitsIcEENS_9allocatorIcEEEEEENS_15iterator_traitsIT_E15difference_typeESA_SA_NS_26random_access_iterator_tagE
FNA:0,4150,_ZNSt3__110__distanceB8ne200100IPKcEENS_15iterator_traitsIT_E15difference_typeES4_S4_NS_26random_access_iterator_tagE
FNA:0,49,_ZNSt3__110__distanceB8ne200100IPN4dbal4core11EntityFieldEEENS_15iterator_traitsIT_E15difference_typeES6_S6_NS_26random_access_iterator_tagE
FNA:0,49,_ZNSt3__110__distanceB8ne200100IPN4dbal4core11EntityIndexEEENS_15iterator_traitsIT_E15difference_typeES6_S6_NS_26random_access_iterator_tagE
FNA:0,49,_ZNSt3__110__distanceB8ne200100IPN4dbal4core11RelationDefEEENS_15iterator_traitsIT_E15difference_typeES6_S6_NS_26random_access_iterator_tagE
FNA:0,114,_ZNSt3__110__distanceB8ne200100IPN4dbal8adapters11EntityFieldEEENS_15iterator_traitsIT_E15difference_typeES6_S6_NS_26random_access_iterator_tagE
FNA:0,114,_ZNSt3__110__distanceB8ne200100IPN4dbal8adapters11RelationDefEEENS_15iterator_traitsIT_E15difference_typeES6_S6_NS_26random_access_iterator_tagE
FNA:0,63,_ZNSt3__110__distanceB8ne200100IPN8nlohmann16json_abi_v3_11_310basic_jsonINS_3mapENS_6vectorENS_12basic_stringIcNS_11char_traitsIcEENS_9allocatorIcEEEEbxydS9_NS2_14adl_serializerENS5_IhNS9_IhEEEEvEEEENS_15iterator_traitsIT_E15difference_typeESI_SI_NS_26random_access_iterator_tagE
FNA:0,1075,_ZNSt3__110__distanceB8ne200100IPNS_12basic_stringIcNS_11char_traitsIcEENS_9allocatorIcEEEEEENS_15iterator_traitsIT_E15difference_typeES9_S9_NS_26random_access_iterator_tagE
FNA:0,0,_ZNSt3__110__distanceB8ne200100IPNS_4pairImPKcEEEENS_15iterator_traitsIT_E15difference_typeES7_S7_NS_26random_access_iterator_tagE
FNA:0,0,_ZNSt3__110__distanceB8ne200100IPNS_9sub_matchIPKcEEEENS_15iterator_traitsIT_E15difference_typeES7_S7_NS_26random_access_iterator_tagE
FNA:0,0,_ZNSt3__110__distanceB8ne200100IPcEENS_15iterator_traitsIT_E15difference_typeES3_S3_NS_26random_access_iterator_tagE
FNL:1,46,47
FNA:1,212,_ZNSt3__18distanceB8ne200100INS_11__wrap_iterIPKNS_12basic_stringIcNS_11char_traitsIcEENS_9allocatorIcEEEEEEEENS_15iterator_traitsIT_E15difference_typeESC_SC_
FNA:1,0,_ZNSt3__18distanceB8ne200100INS_11__wrap_iterIPKiEEEENS_15iterator_traitsIT_E15difference_typeES6_S6_
FNA:1,0,_ZNSt3__18distanceB8ne200100INS_11__wrap_iterIPcEEEENS_15iterator_traitsIT_E15difference_typeES5_S5_
FNA:1,0,_ZNSt3__18distanceB8ne200100INS_13move_iteratorIPNS_10shared_ptrIN4inja14ExpressionNodeEEEEEEENS_15iterator_traitsIT_E15difference_typeES9_S9_
FNA:1,0,_ZNSt3__18distanceB8ne200100INS_13move_iteratorIPPNS_10shared_ptrIN4inja12FunctionNodeEEEEEEENS_15iterator_traitsIT_E15difference_typeESA_SA_
FNA:1,0,_ZNSt3__18distanceB8ne200100INS_13move_iteratorIPPNS_10unique_ptrIN4dbal8adapters3sql13SqlConnectionENS_14default_deleteIS6_EEEEEEEENS_15iterator_traitsIT_E15difference_typeESE_SE_
FNA:1,0,_ZNSt3__18distanceB8ne200100INS_13move_iteratorIPPNS_7__stateIcEEEEEENS_15iterator_traitsIT_E15difference_typeES8_S8_
FNA:1,0,_ZNSt3__18distanceB8ne200100INS_13move_iteratorIPPPKN4inja8DataNodeEEEEENS_15iterator_traitsIT_E15difference_typeESA_SA_
FNA:1,0,_ZNSt3__18distanceB8ne200100INS_13move_iteratorIPPPKN8nlohmann16json_abi_v3_11_310basic_jsonINS_3mapENS_6vectorENS_12basic_stringIcNS_11char_traitsIcEENS_9allocatorIcEEEEbxydSA_NS3_14adl_serializerENS6_IhNSA_IhEEEEvEEEEEENS_15iterator_traitsIT_E15difference_typeESN_SN_
FNA:1,0,_ZNSt3__18distanceB8ne200100INS_13move_iteratorIPPPN4inja15IfStatementNodeEEEEENS_15iterator_traitsIT_E15difference_typeES9_S9_
FNA:1,0,_ZNSt3__18distanceB8ne200100INS_13move_iteratorIPPPN4inja16ForStatementNodeEEEEENS_15iterator_traitsIT_E15difference_typeES9_S9_
FNA:1,0,_ZNSt3__18distanceB8ne200100INS_13move_iteratorIPPPN4inja18BlockStatementNodeEEEEENS_15iterator_traitsIT_E15difference_typeES9_S9_
FNA:1,597,_ZNSt3__18distanceB8ne200100IPKN8nlohmann16json_abi_v3_11_36detail8json_refINS2_10basic_jsonINS_3mapENS_6vectorENS_12basic_stringIcNS_11char_traitsIcEENS_9allocatorIcEEEEbxydSB_NS2_14adl_serializerENS7_IhNSB_IhEEEEvEEEEEENS_15iterator_traitsIT_E15difference_typeESM_SM_
FNA:1,1908,_ZNSt3__18distanceB8ne200100IPKNS_10shared_ptrIN4inja14ExpressionNodeEEEEENS_15iterator_traitsIT_E15difference_typeES8_S8_
FNA:1,9,_ZNSt3__18distanceB8ne200100IPKNS_12basic_stringIcNS_11char_traitsIcEENS_9allocatorIcEEEEEENS_15iterator_traitsIT_E15difference_typeESA_SA_
FNA:1,4150,_ZNSt3__18distanceB8ne200100IPKcEENS_15iterator_traitsIT_E15difference_typeES4_S4_
FNA:1,49,_ZNSt3__18distanceB8ne200100IPN4dbal4core11EntityFieldEEENS_15iterator_traitsIT_E15difference_typeES6_S6_
FNA:1,49,_ZNSt3__18distanceB8ne200100IPN4dbal4core11EntityIndexEEENS_15iterator_traitsIT_E15difference_typeES6_S6_
FNA:1,49,_ZNSt3__18distanceB8ne200100IPN4dbal4core11RelationDefEEENS_15iterator_traitsIT_E15difference_typeES6_S6_
FNA:1,114,_ZNSt3__18distanceB8ne200100IPN4dbal8adapters11EntityFieldEEENS_15iterator_traitsIT_E15difference_typeES6_S6_
FNA:1,114,_ZNSt3__18distanceB8ne200100IPN4dbal8adapters11RelationDefEEENS_15iterator_traitsIT_E15difference_typeES6_S6_
FNA:1,63,_ZNSt3__18distanceB8ne200100IPN8nlohmann16json_abi_v3_11_310basic_jsonINS_3mapENS_6vectorENS_12basic_stringIcNS_11char_traitsIcEENS_9allocatorIcEEEEbxydS9_NS2_14adl_serializerENS5_IhNS9_IhEEEEvEEEENS_15iterator_traitsIT_E15difference_typeESI_SI_
FNA:1,1075,_ZNSt3__18distanceB8ne200100IPNS_12basic_stringIcNS_11char_traitsIcEENS_9allocatorIcEEEEEENS_15iterator_traitsIT_E15difference_typeES9_S9_
FNA:1,0,_ZNSt3__18distanceB8ne200100IPNS_4pairImPKcEEEENS_15iterator_traitsIT_E15difference_typeES7_S7_
FNA:1,0,_ZNSt3__18distanceB8ne200100IPNS_9sub_matchIPKcEEEENS_15iterator_traitsIT_E15difference_typeES7_S7_
FNA:1,0,_ZNSt3__18distanceB8ne200100IPcEENS_15iterator_traitsIT_E15difference_typeES3_S3_
FNF:2
FNH:2
DA:40,8389
DA:41,8389
DA:46,8389
DA:47,8389
LF:4
LH:4
end_of_record
TN:
SF:/Library/Developer/CommandLineTools/SDKs/MacOSX.sdk/usr/include/c++/v1/__iterator/istreambuf_iterator.h
FNL:0,62,65
FNA:0,90300,_ZNKSt3__119istreambuf_iteratorIcNS_11char_traitsIcEEE14__test_for_eofB8ne200100Ev
FNL:1,69,69
FNA:1,106,_ZNSt3__119istreambuf_iteratorIcNS_11char_traitsIcEEEC1B8ne200100Ev
FNA:1,106,_ZNSt3__119istreambuf_iteratorIcNS_11char_traitsIcEEEC2B8ne200100Ev
FNL:2,73,73
FNA:2,106,_ZNSt3__119istreambuf_iteratorIcNS_11char_traitsIcEEEC1B8ne200100ERNS_13basic_istreamIcS2_EE
FNA:2,106,_ZNSt3__119istreambuf_iteratorIcNS_11char_traitsIcEEEC2B8ne200100ERNS_13basic_istreamIcS2_EE
FNL:3,77,77
FNA:3,45044,_ZNKSt3__119istreambuf_iteratorIcNS_11char_traitsIcEEEdeB8ne200100Ev
FNL:4,78,80
FNA:4,45044,_ZNSt3__119istreambuf_iteratorIcNS_11char_traitsIcEEEppB8ne200100Ev
FNL:5,84,85
FNA:5,45150,_ZNKSt3__119istreambuf_iteratorIcNS_11char_traitsIcEEE5equalB8ne200100ERKS3_
FNL:6,97,98
FNA:6,45150,_ZNSt3__1eqB8ne200100IcNS_11char_traitsIcEEEEbRKNS_19istreambuf_iteratorIT_T0_EES8_
FNF:7
FNH:7
DA:62,90300
DA:63,90300
DA:64,106
DA:65,90300
DA:69,212
DA:73,212
DA:77,45044
DA:78,45044
DA:79,45044
DA:80,45044
DA:84,45150
DA:85,45150
DA:97,45150
DA:98,45150
LF:14
LH:14
end_of_record
TN:
SF:/Library/Developer/CommandLineTools/SDKs/MacOSX.sdk/usr/include/c++/v1/__iterator/iter_move.h
FNL:0,72,74
FNA:0,0,_ZNKSt3__16ranges11__iter_move4__fnclB8ne200100IRKPNS_10shared_ptrIN4inja14ExpressionNodeEEEEEDTclsr3stdE4movedeclsr3stdE7forwardIT_Efp_EEEOSB_
FNA:0,0,_ZNKSt3__16ranges11__iter_move4__fnclB8ne200100IRKPPNS_10shared_ptrIN4inja12FunctionNodeEEEEEDTclsr3stdE4movedeclsr3stdE7forwardIT_Efp_EEEOSC_
FNA:0,0,_ZNKSt3__16ranges11__iter_move4__fnclB8ne200100IRKPPNS_10unique_ptrIN4dbal8adapters3sql13SqlConnectionENS_14default_deleteIS8_EEEEEEDTclsr3stdE4movedeclsr3stdE7forwardIT_Efp_EEEOSG_
FNA:0,0,_ZNKSt3__16ranges11__iter_move4__fnclB8ne200100IRKPPNS_7__stateIcEEEEDTclsr3stdE4movedeclsr3stdE7forwardIT_Efp_EEEOSA_
FNA:0,0,_ZNKSt3__16ranges11__iter_move4__fnclB8ne200100IRKPPPKN4inja8DataNodeEEEDTclsr3stdE4movedeclsr3stdE7forwardIT_Efp_EEEOSC_
FNA:0,0,_ZNKSt3__16ranges11__iter_move4__fnclB8ne200100IRKPPPKN8nlohmann16json_abi_v3_11_310basic_jsonINS_3mapENS_6vectorENS_12basic_stringIcNS_11char_traitsIcEENS_9allocatorIcEEEEbxydSC_NS5_14adl_serializerENS8_IhNSC_IhEEEEvEEEEDTclsr3stdE4movedeclsr3stdE7forwardIT_Efp_EEEOSP_
FNA:0,0,_ZNKSt3__16ranges11__iter_move4__fnclB8ne200100IRKPPPN4inja15IfStatementNodeEEEDTclsr3stdE4movedeclsr3stdE7forwardIT_Efp_EEEOSB_
FNA:0,0,_ZNKSt3__16ranges11__iter_move4__fnclB8ne200100IRKPPPN4inja16ForStatementNodeEEEDTclsr3stdE4movedeclsr3stdE7forwardIT_Efp_EEEOSB_
FNA:0,0,_ZNKSt3__16ranges11__iter_move4__fnclB8ne200100IRKPPPN4inja18BlockStatementNodeEEEDTclsr3stdE4movedeclsr3stdE7forwardIT_Efp_EEEOSB_
FNF:1
FNH:0
DA:72,0
DA:74,0
LF:2
LH:0
end_of_record
TN:
SF:/Library/Developer/CommandLineTools/SDKs/MacOSX.sdk/usr/include/c++/v1/__iterator/move_iterator.h
FNL:0,112,112
FNA:0,0,_ZNSt3__113move_iteratorIPNS_10shared_ptrIN4inja14ExpressionNodeEEEEC1B8ne200100ES5_
FNA:0,0,_ZNSt3__113move_iteratorIPNS_10shared_ptrIN4inja14ExpressionNodeEEEEC2B8ne200100ES5_
FNA:0,0,_ZNSt3__113move_iteratorIPPNS_10shared_ptrIN4inja12FunctionNodeEEEEC1B8ne200100ES6_
FNA:0,0,_ZNSt3__113move_iteratorIPPNS_10shared_ptrIN4inja12FunctionNodeEEEEC2B8ne200100ES6_
FNA:0,0,_ZNSt3__113move_iteratorIPPNS_10unique_ptrIN4dbal8adapters3sql13SqlConnectionENS_14default_deleteIS5_EEEEEC1B8ne200100ESA_
FNA:0,0,_ZNSt3__113move_iteratorIPPNS_10unique_ptrIN4dbal8adapters3sql13SqlConnectionENS_14default_deleteIS5_EEEEEC2B8ne200100ESA_
FNA:0,0,_ZNSt3__113move_iteratorIPPNS_7__stateIcEEEC1B8ne200100ES4_
FNA:0,0,_ZNSt3__113move_iteratorIPPNS_7__stateIcEEEC2B8ne200100ES4_
FNA:0,0,_ZNSt3__113move_iteratorIPPPKN4inja8DataNodeEEC1B8ne200100ES6_
FNA:0,0,_ZNSt3__113move_iteratorIPPPKN4inja8DataNodeEEC2B8ne200100ES6_
FNA:0,0,_ZNSt3__113move_iteratorIPPPKN8nlohmann16json_abi_v3_11_310basic_jsonINS_3mapENS_6vectorENS_12basic_stringIcNS_11char_traitsIcEENS_9allocatorIcEEEEbxydS9_NS2_14adl_serializerENS5_IhNS9_IhEEEEvEEEC1B8ne200100ESJ_
FNA:0,0,_ZNSt3__113move_iteratorIPPPKN8nlohmann16json_abi_v3_11_310basic_jsonINS_3mapENS_6vectorENS_12basic_stringIcNS_11char_traitsIcEENS_9allocatorIcEEEEbxydS9_NS2_14adl_serializerENS5_IhNS9_IhEEEEvEEEC2B8ne200100ESJ_
FNA:0,0,_ZNSt3__113move_iteratorIPPPN4inja15IfStatementNodeEEC1B8ne200100ES5_
FNA:0,0,_ZNSt3__113move_iteratorIPPPN4inja15IfStatementNodeEEC2B8ne200100ES5_
FNA:0,0,_ZNSt3__113move_iteratorIPPPN4inja16ForStatementNodeEEC1B8ne200100ES5_
FNA:0,0,_ZNSt3__113move_iteratorIPPPN4inja16ForStatementNodeEEC2B8ne200100ES5_
FNA:0,0,_ZNSt3__113move_iteratorIPPPN4inja18BlockStatementNodeEEC1B8ne200100ES5_
FNA:0,0,_ZNSt3__113move_iteratorIPPPN4inja18BlockStatementNodeEEC2B8ne200100ES5_
FNL:1,114,116
FNA:1,0,_ZNSt3__113move_iteratorIPNS_10shared_ptrIN4inja14ExpressionNodeEEEEppB8ne200100Ev
FNA:1,0,_ZNSt3__113move_iteratorIPPNS_10shared_ptrIN4inja12FunctionNodeEEEEppB8ne200100Ev
FNA:1,0,_ZNSt3__113move_iteratorIPPNS_10unique_ptrIN4dbal8adapters3sql13SqlConnectionENS_14default_deleteIS5_EEEEEppB8ne200100Ev
FNA:1,0,_ZNSt3__113move_iteratorIPPNS_7__stateIcEEEppB8ne200100Ev
FNA:1,0,_ZNSt3__113move_iteratorIPPPKN4inja8DataNodeEEppB8ne200100Ev
FNA:1,0,_ZNSt3__113move_iteratorIPPPKN8nlohmann16json_abi_v3_11_310basic_jsonINS_3mapENS_6vectorENS_12basic_stringIcNS_11char_traitsIcEENS_9allocatorIcEEEEbxydS9_NS2_14adl_serializerENS5_IhNS9_IhEEEEvEEEppB8ne200100Ev
FNA:1,0,_ZNSt3__113move_iteratorIPPPN4inja15IfStatementNodeEEppB8ne200100Ev
FNA:1,0,_ZNSt3__113move_iteratorIPPPN4inja16ForStatementNodeEEppB8ne200100Ev
FNA:1,0,_ZNSt3__113move_iteratorIPPPN4inja18BlockStatementNodeEEppB8ne200100Ev
FNL:2,139,139
FNA:2,0,_ZNKRSt3__113move_iteratorIPNS_10shared_ptrIN4inja14ExpressionNodeEEEE4baseB8ne200100Ev
FNA:2,0,_ZNKRSt3__113move_iteratorIPPNS_10shared_ptrIN4inja12FunctionNodeEEEE4baseB8ne200100Ev
FNA:2,0,_ZNKRSt3__113move_iteratorIPPNS_10unique_ptrIN4dbal8adapters3sql13SqlConnectionENS_14default_deleteIS5_EEEEE4baseB8ne200100Ev
FNA:2,0,_ZNKRSt3__113move_iteratorIPPNS_7__stateIcEEE4baseB8ne200100Ev
FNA:2,0,_ZNKRSt3__113move_iteratorIPPPKN4inja8DataNodeEE4baseB8ne200100Ev
FNA:2,0,_ZNKRSt3__113move_iteratorIPPPKN8nlohmann16json_abi_v3_11_310basic_jsonINS_3mapENS_6vectorENS_12basic_stringIcNS_11char_traitsIcEENS_9allocatorIcEEEEbxydS9_NS2_14adl_serializerENS5_IhNS9_IhEEEEvEEE4baseB8ne200100Ev
FNA:2,0,_ZNKRSt3__113move_iteratorIPPPN4inja15IfStatementNodeEE4baseB8ne200100Ev
FNA:2,0,_ZNKRSt3__113move_iteratorIPPPN4inja16ForStatementNodeEE4baseB8ne200100Ev
FNA:2,0,_ZNKRSt3__113move_iteratorIPPPN4inja18BlockStatementNodeEE4baseB8ne200100Ev
FNL:3,142,142
FNA:3,0,_ZNKSt3__113move_iteratorIPNS_10shared_ptrIN4inja14ExpressionNodeEEEEdeB8ne200100Ev
FNA:3,0,_ZNKSt3__113move_iteratorIPPNS_10shared_ptrIN4inja12FunctionNodeEEEEdeB8ne200100Ev
FNA:3,0,_ZNKSt3__113move_iteratorIPPNS_10unique_ptrIN4dbal8adapters3sql13SqlConnectionENS_14default_deleteIS5_EEEEEdeB8ne200100Ev
FNA:3,0,_ZNKSt3__113move_iteratorIPPNS_7__stateIcEEEdeB8ne200100Ev
FNA:3,0,_ZNKSt3__113move_iteratorIPPPKN4inja8DataNodeEEdeB8ne200100Ev
FNA:3,0,_ZNKSt3__113move_iteratorIPPPKN8nlohmann16json_abi_v3_11_310basic_jsonINS_3mapENS_6vectorENS_12basic_stringIcNS_11char_traitsIcEENS_9allocatorIcEEEEbxydS9_NS2_14adl_serializerENS5_IhNS9_IhEEEEvEEEdeB8ne200100Ev
FNA:3,0,_ZNKSt3__113move_iteratorIPPPN4inja15IfStatementNodeEEdeB8ne200100Ev
FNA:3,0,_ZNKSt3__113move_iteratorIPPPN4inja16ForStatementNodeEEdeB8ne200100Ev
FNA:3,0,_ZNKSt3__113move_iteratorIPPPN4inja18BlockStatementNodeEEdeB8ne200100Ev
FNL:4,303,304
FNA:4,0,_ZNSt3__1miB8ne200100IPNS_10shared_ptrIN4inja14ExpressionNodeEEES5_EEDTmicldtfp_4baseEcldtfp0_4baseEERKNS_13move_iteratorIT_EERKNS7_IT0_EE
FNA:4,0,_ZNSt3__1miB8ne200100IPPNS_10shared_ptrIN4inja12FunctionNodeEEES6_EEDTmicldtfp_4baseEcldtfp0_4baseEERKNS_13move_iteratorIT_EERKNS8_IT0_EE
FNA:4,0,_ZNSt3__1miB8ne200100IPPNS_10unique_ptrIN4dbal8adapters3sql13SqlConnectionENS_14default_deleteIS5_EEEESA_EEDTmicldtfp_4baseEcldtfp0_4baseEERKNS_13move_iteratorIT_EERKNSC_IT0_EE
FNA:4,0,_ZNSt3__1miB8ne200100IPPNS_7__stateIcEES4_EEDTmicldtfp_4baseEcldtfp0_4baseEERKNS_13move_iteratorIT_EERKNS6_IT0_EE
FNA:4,0,_ZNSt3__1miB8ne200100IPPPKN4inja8DataNodeES6_EEDTmicldtfp_4baseEcldtfp0_4baseEERKNS_13move_iteratorIT_EERKNS8_IT0_EE
FNA:4,0,_ZNSt3__1miB8ne200100IPPPKN8nlohmann16json_abi_v3_11_310basic_jsonINS_3mapENS_6vectorENS_12basic_stringIcNS_11char_traitsIcEENS_9allocatorIcEEEEbxydS9_NS2_14adl_serializerENS5_IhNS9_IhEEEEvEESJ_EEDTmicldtfp_4baseEcldtfp0_4baseEERKNS_13move_iteratorIT_EERKNSL_IT0_EE
FNA:4,0,_ZNSt3__1miB8ne200100IPPPN4inja15IfStatementNodeES5_EEDTmicldtfp_4baseEcldtfp0_4baseEERKNS_13move_iteratorIT_EERKNS7_IT0_EE
FNA:4,0,_ZNSt3__1miB8ne200100IPPPN4inja16ForStatementNodeES5_EEDTmicldtfp_4baseEcldtfp0_4baseEERKNS_13move_iteratorIT_EERKNS7_IT0_EE
FNA:4,0,_ZNSt3__1miB8ne200100IPPPN4inja18BlockStatementNodeES5_EEDTmicldtfp_4baseEcldtfp0_4baseEERKNS_13move_iteratorIT_EERKNS7_IT0_EE
FNF:5
FNH:0
DA:112,0
DA:114,0
DA:115,0
DA:116,0
DA:139,0
DA:142,0
DA:303,0
DA:304,0
LF:8
LH:0
end_of_record
TN:
SF:/Library/Developer/CommandLineTools/SDKs/MacOSX.sdk/usr/include/c++/v1/__iterator/next.h
FNL:0,29,36
FNA:0,0,_ZNSt3__14nextB8ne200100INS_11__wrap_iterIPKcEELi0EEET_S5_NS_15iterator_traitsIS5_E15difference_typeE
FNA:0,0,_ZNSt3__14nextB8ne200100INS_20__map_const_iteratorINS_21__tree_const_iteratorINS_12__value_typeINS_12basic_stringIcNS_11char_traitsIcEENS_9allocatorIcEEEEN8nlohmann16json_abi_v3_11_310basic_jsonINS_3mapENS_6vectorES9_bxydS7_NSB_14adl_serializerENSE_IhNS7_IhEEEEvEEEEPNS_11__tree_nodeISJ_PvEElEEEELi0EEET_SQ_NS_15iterator_traitsISQ_E15difference_typeE
FNA:0,0,_ZNSt3__14nextB8ne200100INS_21__tree_const_iteratorINS_12__value_typeINS_12basic_stringIcNS_11char_traitsIcEENS_9allocatorIcEEEEN4dbal4core12EntitySchemaEEEPNS_11__tree_nodeISC_PvEElEELi0EEET_SI_NS_15iterator_traitsISI_E15difference_typeE
FNA:0,0,_ZNSt3__14nextB8ne200100INS_21__tree_const_iteratorINS_12__value_typeINS_12basic_stringIcNS_11char_traitsIcEENS_9allocatorIcEEEEN8nlohmann16json_abi_v3_11_310basic_jsonINS_3mapENS_6vectorES8_bxydS6_NSA_14adl_serializerENSD_IhNS6_IhEEEEvEEEEPNS_11__tree_nodeISI_PvEElEELi0EEET_SO_NS_15iterator_traitsISO_E15difference_typeE
FNA:0,0,_ZNSt3__14nextB8ne200100INS_21__tree_const_iteratorINS_12__value_typeINS_12basic_stringIcNS_11char_traitsIcEENS_9allocatorIcEEEENS_10shared_ptrIN4inja18BlockStatementNodeEEEEEPNS_11__tree_nodeISD_PvEElEELi0EEET_SJ_NS_15iterator_traitsISJ_E15difference_typeE
FNA:0,0,_ZNSt3__14nextB8ne200100INS_21__tree_const_iteratorINS_12__value_typeINS_12basic_stringIcNS_11char_traitsIcEENS_9allocatorIcEEEES8_EEPNS_11__tree_nodeIS9_PvEElEELi0EEET_SF_NS_15iterator_traitsISF_E15difference_typeE
FNA:0,0,_ZNSt3__14nextB8ne200100INS_21__tree_const_iteratorINS_12__value_typeINS_12basic_stringIcNS_11char_traitsIcEENS_9allocatorIcEEEEbEEPNS_11__tree_nodeIS9_PvEElEELi0EEET_SF_NS_15iterator_traitsISF_E15difference_typeE
FNA:0,0,_ZNSt3__14nextB8ne200100INS_21__tree_const_iteratorINS_12__value_typeINS_4pairINS_12basic_stringIcNS_11char_traitsIcEENS_9allocatorIcEEEEiEEN4inja15FunctionStorage12FunctionDataEEEPNS_11__tree_nodeISE_PvEElEELi0EEET_SK_NS_15iterator_traitsISK_E15difference_typeE
FNA:0,0,_ZNSt3__14nextB8ne200100IPKNS_10shared_ptrIN4inja14ExpressionNodeEEELi0EEET_S7_NS_15iterator_traitsIS7_E15difference_typeE
FNA:0,0,_ZNSt3__14nextB8ne200100IPKNS_12basic_stringIcNS_11char_traitsIcEENS_9allocatorIcEEEELi0EEET_S9_NS_15iterator_traitsIS9_E15difference_typeE
FNA:0,0,_ZNSt3__14nextB8ne200100IPKcLi0EEET_S3_NS_15iterator_traitsIS3_E15difference_typeE
FNA:0,0,_ZNSt3__14nextB8ne200100IPN4dbal4core11EntityFieldELi0EEET_S5_NS_15iterator_traitsIS5_E15difference_typeE
FNA:0,0,_ZNSt3__14nextB8ne200100IPN4dbal4core11EntityIndexELi0EEET_S5_NS_15iterator_traitsIS5_E15difference_typeE
FNA:0,0,_ZNSt3__14nextB8ne200100IPN4dbal4core11RelationDefELi0EEET_S5_NS_15iterator_traitsIS5_E15difference_typeE
FNA:0,0,_ZNSt3__14nextB8ne200100IPN4dbal8adapters11EntityFieldELi0EEET_S5_NS_15iterator_traitsIS5_E15difference_typeE
FNA:0,0,_ZNSt3__14nextB8ne200100IPN4dbal8adapters11RelationDefELi0EEET_S5_NS_15iterator_traitsIS5_E15difference_typeE
FNA:0,0,_ZNSt3__14nextB8ne200100IPN8nlohmann16json_abi_v3_11_310basic_jsonINS_3mapENS_6vectorENS_12basic_stringIcNS_11char_traitsIcEENS_9allocatorIcEEEEbxydS9_NS2_14adl_serializerENS5_IhNS9_IhEEEEvEELi0EEET_SH_NS_15iterator_traitsISH_E15difference_typeE
FNA:0,0,_ZNSt3__14nextB8ne200100IPNS_12basic_stringIcNS_11char_traitsIcEENS_9allocatorIcEEEELi0EEET_S8_NS_15iterator_traitsIS8_E15difference_typeE
FNA:0,0,_ZNSt3__14nextB8ne200100IPNS_4pairImPKcEELi0EEET_S6_NS_15iterator_traitsIS6_E15difference_typeE
FNA:0,0,_ZNSt3__14nextB8ne200100IPNS_9sub_matchIPKcEELi0EEET_S6_NS_15iterator_traitsIS6_E15difference_typeE
FNF:1
FNH:0
DA:29,0
DA:35,0
DA:36,0
LF:3
LH:0
end_of_record
TN:
SF:/Library/Developer/CommandLineTools/SDKs/MacOSX.sdk/usr/include/c++/v1/__iterator/ostreambuf_iterator.h
FNL:0,56,56
FNA:0,59066,_ZNSt3__119ostreambuf_iteratorIcNS_11char_traitsIcEEEC1B8ne200100ERNS_13basic_ostreamIcS2_EE
FNA:0,59066,_ZNSt3__119ostreambuf_iteratorIcNS_11char_traitsIcEEEC2B8ne200100ERNS_13basic_ostreamIcS2_EE
FNL:1,66,66
FNA:1,59066,_ZNKSt3__119ostreambuf_iteratorIcNS_11char_traitsIcEEE6failedB8ne200100Ev
FNF:2
FNH:2
DA:56,118132
DA:66,59066
LF:2
LH:2
end_of_record
TN:
SF:/Library/Developer/CommandLineTools/SDKs/MacOSX.sdk/usr/include/c++/v1/__iterator/prev.h
FNL:0,33,39
FNA:0,0,_ZNSt3__14prevB8ne200100IPKcLi0EEET_S3_NS_15iterator_traitsIS3_E15difference_typeE
FNL:1,46,49
FNA:1,0,_ZNSt3__14prevB8ne200100IPKcLi0EEET_S3_
FNF:2
FNH:0
DA:33,0
DA:38,0
DA:39,0
DA:46,0
DA:49,0
LF:5
LH:0
end_of_record
TN:
SF:/Library/Developer/CommandLineTools/SDKs/MacOSX.sdk/usr/include/c++/v1/__iterator/reverse_iterator.h
FNL:0,129,129
FNA:0,0,_ZNKSt3__116reverse_iteratorINS_11__wrap_iterIPN4dbal4core23CompensatingTransaction6UndoOpEEEE4baseB8ne200100Ev
FNA:0,0,_ZNKSt3__116reverse_iteratorIPN4dbal11FilterGroupEE4baseB8ne200100Ev
FNA:0,0,_ZNKSt3__116reverse_iteratorIPN4dbal13AggregateSpecEE4baseB8ne200100Ev
FNA:0,0,_ZNKSt3__116reverse_iteratorIPN4dbal15FilterConditionEE4baseB8ne200100Ev
FNA:0,0,_ZNKSt3__116reverse_iteratorIPN4dbal4core11EntityFieldEE4baseB8ne200100Ev
FNA:0,0,_ZNKSt3__116reverse_iteratorIPN4dbal4core11EntityIndexEE4baseB8ne200100Ev
FNA:0,0,_ZNKSt3__116reverse_iteratorIPN4dbal4core11RelationDefEE4baseB8ne200100Ev
FNA:0,0,_ZNKSt3__116reverse_iteratorIPN4dbal4core23CompensatingTransaction6UndoOpEE4baseB8ne200100Ev
FNA:0,0,_ZNKSt3__116reverse_iteratorIPN4dbal8adapters11EntityFieldEE4baseB8ne200100Ev
FNA:0,0,_ZNKSt3__116reverse_iteratorIPN4dbal8adapters11RelationDefEE4baseB8ne200100Ev
FNA:0,0,_ZNKSt3__116reverse_iteratorIPN4dbal8adapters15FieldDefinitionEE4baseB8ne200100Ev
FNA:0,0,_ZNKSt3__116reverse_iteratorIPN4dbal8adapters15IndexDefinitionEE4baseB8ne200100Ev
FNA:0,0,_ZNKSt3__116reverse_iteratorIPN4dbal8adapters16EntityDefinitionEE4baseB8ne200100Ev
FNA:0,0,_ZNKSt3__116reverse_iteratorIPN4dbal8adapters18RelationDefinitionEE4baseB8ne200100Ev
FNA:0,0,_ZNKSt3__116reverse_iteratorIPN4dbal8adapters3sql6SqlRowEE4baseB8ne200100Ev
FNA:0,0,_ZNKSt3__116reverse_iteratorIPN4dbal8adapters3sql8SqlParamEE4baseB8ne200100Ev
FNA:0,0,_ZNKSt3__116reverse_iteratorIPN8nlohmann16json_abi_v3_11_310basic_jsonINS_3mapENS_6vectorENS_12basic_stringIcNS_11char_traitsIcEENS_9allocatorIcEEEEbxydS9_NS2_14adl_serializerENS5_IhNS9_IhEEEEvEEE4baseB8ne200100Ev
FNA:0,0,_ZNKSt3__116reverse_iteratorIPNS_10shared_ptrIN4inja14ExpressionNodeEEEE4baseB8ne200100Ev
FNA:0,0,_ZNKSt3__116reverse_iteratorIPNS_10shared_ptrIN4inja7AstNodeEEEE4baseB8ne200100Ev
FNA:0,0,_ZNKSt3__116reverse_iteratorIPNS_12basic_stringIcNS_11char_traitsIcEENS_9allocatorIcEEEEE4baseB8ne200100Ev
FNA:0,0,_ZNKSt3__116reverse_iteratorIPNS_4pairImPKcEEE4baseB8ne200100Ev
FNA:0,0,_ZNKSt3__116reverse_iteratorIPNS_6threadEE4baseB8ne200100Ev
FNA:0,0,_ZNKSt3__116reverse_iteratorIPNS_7__stateIcEEE4baseB8ne200100Ev
FNA:0,0,_ZNKSt3__116reverse_iteratorIPNS_9sub_matchINS_11__wrap_iterIPKcEEEEE4baseB8ne200100Ev
FNA:0,0,_ZNKSt3__116reverse_iteratorIPNS_9sub_matchIPKcEEE4baseB8ne200100Ev
FNL:1,130,132
FNA:1,0,_ZNKSt3__116reverse_iteratorINS_11__wrap_iterIPN4dbal4core23CompensatingTransaction6UndoOpEEEEdeB8ne200100Ev
FNL:2,136,142
FNA:2,0,_ZNKSt3__116reverse_iteratorIPN4dbal11FilterGroupEEptB8ne200100Ev
FNA:2,0,_ZNKSt3__116reverse_iteratorIPN4dbal13AggregateSpecEEptB8ne200100Ev
FNA:2,0,_ZNKSt3__116reverse_iteratorIPN4dbal15FilterConditionEEptB8ne200100Ev
FNA:2,0,_ZNKSt3__116reverse_iteratorIPN4dbal4core11EntityFieldEEptB8ne200100Ev
FNA:2,0,_ZNKSt3__116reverse_iteratorIPN4dbal4core11EntityIndexEEptB8ne200100Ev
FNA:2,0,_ZNKSt3__116reverse_iteratorIPN4dbal4core11RelationDefEEptB8ne200100Ev
FNA:2,0,_ZNKSt3__116reverse_iteratorIPN4dbal4core23CompensatingTransaction6UndoOpEEptB8ne200100Ev
FNA:2,0,_ZNKSt3__116reverse_iteratorIPN4dbal8adapters11EntityFieldEEptB8ne200100Ev
FNA:2,0,_ZNKSt3__116reverse_iteratorIPN4dbal8adapters11RelationDefEEptB8ne200100Ev
FNA:2,0,_ZNKSt3__116reverse_iteratorIPN4dbal8adapters15FieldDefinitionEEptB8ne200100Ev
FNA:2,0,_ZNKSt3__116reverse_iteratorIPN4dbal8adapters15IndexDefinitionEEptB8ne200100Ev
FNA:2,0,_ZNKSt3__116reverse_iteratorIPN4dbal8adapters16EntityDefinitionEEptB8ne200100Ev
FNA:2,0,_ZNKSt3__116reverse_iteratorIPN4dbal8adapters18RelationDefinitionEEptB8ne200100Ev
FNA:2,0,_ZNKSt3__116reverse_iteratorIPN4dbal8adapters3sql6SqlRowEEptB8ne200100Ev
FNA:2,0,_ZNKSt3__116reverse_iteratorIPN4dbal8adapters3sql8SqlParamEEptB8ne200100Ev
FNA:2,0,_ZNKSt3__116reverse_iteratorIPN8nlohmann16json_abi_v3_11_310basic_jsonINS_3mapENS_6vectorENS_12basic_stringIcNS_11char_traitsIcEENS_9allocatorIcEEEEbxydS9_NS2_14adl_serializerENS5_IhNS9_IhEEEEvEEEptB8ne200100Ev
FNA:2,0,_ZNKSt3__116reverse_iteratorIPNS_10shared_ptrIN4inja14ExpressionNodeEEEEptB8ne200100Ev
FNA:2,0,_ZNKSt3__116reverse_iteratorIPNS_10shared_ptrIN4inja7AstNodeEEEEptB8ne200100Ev
FNA:2,0,_ZNKSt3__116reverse_iteratorIPNS_12basic_stringIcNS_11char_traitsIcEENS_9allocatorIcEEEEEptB8ne200100Ev
FNA:2,0,_ZNKSt3__116reverse_iteratorIPNS_4pairImPKcEEEptB8ne200100Ev
FNA:2,0,_ZNKSt3__116reverse_iteratorIPNS_6threadEEptB8ne200100Ev
FNA:2,0,_ZNKSt3__116reverse_iteratorIPNS_7__stateIcEEEptB8ne200100Ev
FNA:2,0,_ZNKSt3__116reverse_iteratorIPNS_9sub_matchINS_11__wrap_iterIPKcEEEEEptB8ne200100Ev
FNA:2,0,_ZNKSt3__116reverse_iteratorIPNS_9sub_matchIPKcEEEptB8ne200100Ev
FNL:3,151,153
FNA:3,0,_ZNSt3__116reverse_iteratorINS_11__wrap_iterIPN4dbal4core23CompensatingTransaction6UndoOpEEEEppB8ne200100Ev
FNA:3,0,_ZNSt3__116reverse_iteratorIPN4dbal11FilterGroupEEppB8ne200100Ev
FNA:3,0,_ZNSt3__116reverse_iteratorIPN4dbal13AggregateSpecEEppB8ne200100Ev
FNA:3,0,_ZNSt3__116reverse_iteratorIPN4dbal15FilterConditionEEppB8ne200100Ev
FNA:3,0,_ZNSt3__116reverse_iteratorIPN4dbal4core11EntityFieldEEppB8ne200100Ev
FNA:3,0,_ZNSt3__116reverse_iteratorIPN4dbal4core11EntityIndexEEppB8ne200100Ev
FNA:3,0,_ZNSt3__116reverse_iteratorIPN4dbal4core11RelationDefEEppB8ne200100Ev
FNA:3,0,_ZNSt3__116reverse_iteratorIPN4dbal4core23CompensatingTransaction6UndoOpEEppB8ne200100Ev
FNA:3,0,_ZNSt3__116reverse_iteratorIPN4dbal8adapters11EntityFieldEEppB8ne200100Ev
FNA:3,0,_ZNSt3__116reverse_iteratorIPN4dbal8adapters11RelationDefEEppB8ne200100Ev
FNA:3,0,_ZNSt3__116reverse_iteratorIPN4dbal8adapters15FieldDefinitionEEppB8ne200100Ev
FNA:3,0,_ZNSt3__116reverse_iteratorIPN4dbal8adapters15IndexDefinitionEEppB8ne200100Ev
FNA:3,0,_ZNSt3__116reverse_iteratorIPN4dbal8adapters16EntityDefinitionEEppB8ne200100Ev
FNA:3,0,_ZNSt3__116reverse_iteratorIPN4dbal8adapters18RelationDefinitionEEppB8ne200100Ev
FNA:3,0,_ZNSt3__116reverse_iteratorIPN4dbal8adapters3sql6SqlRowEEppB8ne200100Ev
FNA:3,0,_ZNSt3__116reverse_iteratorIPN4dbal8adapters3sql8SqlParamEEppB8ne200100Ev
FNA:3,0,_ZNSt3__116reverse_iteratorIPN8nlohmann16json_abi_v3_11_310basic_jsonINS_3mapENS_6vectorENS_12basic_stringIcNS_11char_traitsIcEENS_9allocatorIcEEEEbxydS9_NS2_14adl_serializerENS5_IhNS9_IhEEEEvEEEppB8ne200100Ev
FNA:3,0,_ZNSt3__116reverse_iteratorIPNS_10shared_ptrIN4inja14ExpressionNodeEEEEppB8ne200100Ev
FNA:3,0,_ZNSt3__116reverse_iteratorIPNS_10shared_ptrIN4inja7AstNodeEEEEppB8ne200100Ev
FNA:3,0,_ZNSt3__116reverse_iteratorIPNS_12basic_stringIcNS_11char_traitsIcEENS_9allocatorIcEEEEEppB8ne200100Ev
FNA:3,0,_ZNSt3__116reverse_iteratorIPNS_4pairImPKcEEEppB8ne200100Ev
FNA:3,0,_ZNSt3__116reverse_iteratorIPNS_6threadEEppB8ne200100Ev
FNA:3,0,_ZNSt3__116reverse_iteratorIPNS_7__stateIcEEEppB8ne200100Ev
FNA:3,0,_ZNSt3__116reverse_iteratorIPNS_9sub_matchINS_11__wrap_iterIPKcEEEEEppB8ne200100Ev
FNA:3,0,_ZNSt3__116reverse_iteratorIPNS_9sub_matchIPKcEEEppB8ne200100Ev
FNL:4,232,239
FNA:4,0,_ZNSt3__1neB8ne200100INS_11__wrap_iterIPN4dbal4core23CompensatingTransaction6UndoOpEEES7_EEbRKNS_16reverse_iteratorIT_EERKNS8_IT0_EE
FNA:4,0,_ZNSt3__1neB8ne200100IPN4dbal11FilterGroupES3_EEbRKNS_16reverse_iteratorIT_EERKNS4_IT0_EE
FNA:4,0,_ZNSt3__1neB8ne200100IPN4dbal13AggregateSpecES3_EEbRKNS_16reverse_iteratorIT_EERKNS4_IT0_EE
FNA:4,0,_ZNSt3__1neB8ne200100IPN4dbal15FilterConditionES3_EEbRKNS_16reverse_iteratorIT_EERKNS4_IT0_EE
FNA:4,0,_ZNSt3__1neB8ne200100IPN4dbal4core11EntityFieldES4_EEbRKNS_16reverse_iteratorIT_EERKNS5_IT0_EE
FNA:4,0,_ZNSt3__1neB8ne200100IPN4dbal4core11EntityIndexES4_EEbRKNS_16reverse_iteratorIT_EERKNS5_IT0_EE
FNA:4,0,_ZNSt3__1neB8ne200100IPN4dbal4core11RelationDefES4_EEbRKNS_16reverse_iteratorIT_EERKNS5_IT0_EE
FNA:4,0,_ZNSt3__1neB8ne200100IPN4dbal4core23CompensatingTransaction6UndoOpES5_EEbRKNS_16reverse_iteratorIT_EERKNS6_IT0_EE
FNA:4,0,_ZNSt3__1neB8ne200100IPN4dbal8adapters11EntityFieldES4_EEbRKNS_16reverse_iteratorIT_EERKNS5_IT0_EE
FNA:4,0,_ZNSt3__1neB8ne200100IPN4dbal8adapters11RelationDefES4_EEbRKNS_16reverse_iteratorIT_EERKNS5_IT0_EE
FNA:4,0,_ZNSt3__1neB8ne200100IPN4dbal8adapters15FieldDefinitionES4_EEbRKNS_16reverse_iteratorIT_EERKNS5_IT0_EE
FNA:4,0,_ZNSt3__1neB8ne200100IPN4dbal8adapters15IndexDefinitionES4_EEbRKNS_16reverse_iteratorIT_EERKNS5_IT0_EE
FNA:4,0,_ZNSt3__1neB8ne200100IPN4dbal8adapters16EntityDefinitionES4_EEbRKNS_16reverse_iteratorIT_EERKNS5_IT0_EE
FNA:4,0,_ZNSt3__1neB8ne200100IPN4dbal8adapters18RelationDefinitionES4_EEbRKNS_16reverse_iteratorIT_EERKNS5_IT0_EE
FNA:4,0,_ZNSt3__1neB8ne200100IPN4dbal8adapters3sql6SqlRowES5_EEbRKNS_16reverse_iteratorIT_EERKNS6_IT0_EE
FNA:4,0,_ZNSt3__1neB8ne200100IPN4dbal8adapters3sql8SqlParamES5_EEbRKNS_16reverse_iteratorIT_EERKNS6_IT0_EE
FNA:4,0,_ZNSt3__1neB8ne200100IPN8nlohmann16json_abi_v3_11_310basic_jsonINS_3mapENS_6vectorENS_12basic_stringIcNS_11char_traitsIcEENS_9allocatorIcEEEEbxydS9_NS2_14adl_serializerENS5_IhNS9_IhEEEEvEESG_EEbRKNS_16reverse_iteratorIT_EERKNSH_IT0_EE
FNA:4,0,_ZNSt3__1neB8ne200100IPNS_10shared_ptrIN4inja14ExpressionNodeEEES5_EEbRKNS_16reverse_iteratorIT_EERKNS6_IT0_EE
FNA:4,0,_ZNSt3__1neB8ne200100IPNS_10shared_ptrIN4inja7AstNodeEEES5_EEbRKNS_16reverse_iteratorIT_EERKNS6_IT0_EE
FNA:4,0,_ZNSt3__1neB8ne200100IPNS_12basic_stringIcNS_11char_traitsIcEENS_9allocatorIcEEEES7_EEbRKNS_16reverse_iteratorIT_EERKNS8_IT0_EE
FNA:4,0,_ZNSt3__1neB8ne200100IPNS_4pairImPKcEES5_EEbRKNS_16reverse_iteratorIT_EERKNS6_IT0_EE
FNA:4,0,_ZNSt3__1neB8ne200100IPNS_6threadES2_EEbRKNS_16reverse_iteratorIT_EERKNS3_IT0_EE
FNA:4,0,_ZNSt3__1neB8ne200100IPNS_7__stateIcEES3_EEbRKNS_16reverse_iteratorIT_EERKNS4_IT0_EE
FNA:4,0,_ZNSt3__1neB8ne200100IPNS_9sub_matchINS_11__wrap_iterIPKcEEEES7_EEbRKNS_16reverse_iteratorIT_EERKNS8_IT0_EE
FNA:4,0,_ZNSt3__1neB8ne200100IPNS_9sub_matchIPKcEES5_EEbRKNS_16reverse_iteratorIT_EERKNS6_IT0_EE
FNL:5,97,97
FNA:5,0,_ZNSt3__116reverse_iteratorINS_11__wrap_iterIPN4dbal4core23CompensatingTransaction6UndoOpEEEEC1B8ne200100ES7_
FNA:5,0,_ZNSt3__116reverse_iteratorINS_11__wrap_iterIPN4dbal4core23CompensatingTransaction6UndoOpEEEEC2B8ne200100ES7_
FNA:5,0,_ZNSt3__116reverse_iteratorIPN4dbal11FilterGroupEEC1B8ne200100ES3_
FNA:5,0,_ZNSt3__116reverse_iteratorIPN4dbal11FilterGroupEEC2B8ne200100ES3_
FNA:5,0,_ZNSt3__116reverse_iteratorIPN4dbal13AggregateSpecEEC1B8ne200100ES3_
FNA:5,0,_ZNSt3__116reverse_iteratorIPN4dbal13AggregateSpecEEC2B8ne200100ES3_
FNA:5,0,_ZNSt3__116reverse_iteratorIPN4dbal15FilterConditionEEC1B8ne200100ES3_
FNA:5,0,_ZNSt3__116reverse_iteratorIPN4dbal15FilterConditionEEC2B8ne200100ES3_
FNA:5,0,_ZNSt3__116reverse_iteratorIPN4dbal4core11EntityFieldEEC1B8ne200100ES4_
FNA:5,0,_ZNSt3__116reverse_iteratorIPN4dbal4core11EntityFieldEEC2B8ne200100ES4_
FNA:5,0,_ZNSt3__116reverse_iteratorIPN4dbal4core11EntityIndexEEC1B8ne200100ES4_
FNA:5,0,_ZNSt3__116reverse_iteratorIPN4dbal4core11EntityIndexEEC2B8ne200100ES4_
FNA:5,0,_ZNSt3__116reverse_iteratorIPN4dbal4core11RelationDefEEC1B8ne200100ES4_
FNA:5,0,_ZNSt3__116reverse_iteratorIPN4dbal4core11RelationDefEEC2B8ne200100ES4_
FNA:5,0,_ZNSt3__116reverse_iteratorIPN4dbal4core23CompensatingTransaction6UndoOpEEC1B8ne200100ES5_
FNA:5,0,_ZNSt3__116reverse_iteratorIPN4dbal4core23CompensatingTransaction6UndoOpEEC2B8ne200100ES5_
FNA:5,0,_ZNSt3__116reverse_iteratorIPN4dbal8adapters11EntityFieldEEC1B8ne200100ES4_
FNA:5,0,_ZNSt3__116reverse_iteratorIPN4dbal8adapters11EntityFieldEEC2B8ne200100ES4_
FNA:5,0,_ZNSt3__116reverse_iteratorIPN4dbal8adapters11RelationDefEEC1B8ne200100ES4_
FNA:5,0,_ZNSt3__116reverse_iteratorIPN4dbal8adapters11RelationDefEEC2B8ne200100ES4_
FNA:5,0,_ZNSt3__116reverse_iteratorIPN4dbal8adapters15FieldDefinitionEEC1B8ne200100ES4_
FNA:5,0,_ZNSt3__116reverse_iteratorIPN4dbal8adapters15FieldDefinitionEEC2B8ne200100ES4_
FNA:5,0,_ZNSt3__116reverse_iteratorIPN4dbal8adapters15IndexDefinitionEEC1B8ne200100ES4_
FNA:5,0,_ZNSt3__116reverse_iteratorIPN4dbal8adapters15IndexDefinitionEEC2B8ne200100ES4_
FNA:5,0,_ZNSt3__116reverse_iteratorIPN4dbal8adapters16EntityDefinitionEEC1B8ne200100ES4_
FNA:5,0,_ZNSt3__116reverse_iteratorIPN4dbal8adapters16EntityDefinitionEEC2B8ne200100ES4_
FNA:5,0,_ZNSt3__116reverse_iteratorIPN4dbal8adapters18RelationDefinitionEEC1B8ne200100ES4_
FNA:5,0,_ZNSt3__116reverse_iteratorIPN4dbal8adapters18RelationDefinitionEEC2B8ne200100ES4_
FNA:5,0,_ZNSt3__116reverse_iteratorIPN4dbal8adapters3sql6SqlRowEEC1B8ne200100ES5_
FNA:5,0,_ZNSt3__116reverse_iteratorIPN4dbal8adapters3sql6SqlRowEEC2B8ne200100ES5_
FNA:5,0,_ZNSt3__116reverse_iteratorIPN4dbal8adapters3sql8SqlParamEEC1B8ne200100ES5_
FNA:5,0,_ZNSt3__116reverse_iteratorIPN4dbal8adapters3sql8SqlParamEEC2B8ne200100ES5_
FNA:5,0,_ZNSt3__116reverse_iteratorIPN8nlohmann16json_abi_v3_11_310basic_jsonINS_3mapENS_6vectorENS_12basic_stringIcNS_11char_traitsIcEENS_9allocatorIcEEEEbxydS9_NS2_14adl_serializerENS5_IhNS9_IhEEEEvEEEC1B8ne200100ESG_
FNA:5,0,_ZNSt3__116reverse_iteratorIPN8nlohmann16json_abi_v3_11_310basic_jsonINS_3mapENS_6vectorENS_12basic_stringIcNS_11char_traitsIcEENS_9allocatorIcEEEEbxydS9_NS2_14adl_serializerENS5_IhNS9_IhEEEEvEEEC2B8ne200100ESG_
FNA:5,0,_ZNSt3__116reverse_iteratorIPNS_10shared_ptrIN4inja14ExpressionNodeEEEEC1B8ne200100ES5_
FNA:5,0,_ZNSt3__116reverse_iteratorIPNS_10shared_ptrIN4inja14ExpressionNodeEEEEC2B8ne200100ES5_
FNA:5,0,_ZNSt3__116reverse_iteratorIPNS_10shared_ptrIN4inja7AstNodeEEEEC1B8ne200100ES5_
FNA:5,0,_ZNSt3__116reverse_iteratorIPNS_10shared_ptrIN4inja7AstNodeEEEEC2B8ne200100ES5_
FNA:5,0,_ZNSt3__116reverse_iteratorIPNS_12basic_stringIcNS_11char_traitsIcEENS_9allocatorIcEEEEEC1B8ne200100ES7_
FNA:5,0,_ZNSt3__116reverse_iteratorIPNS_12basic_stringIcNS_11char_traitsIcEENS_9allocatorIcEEEEEC2B8ne200100ES7_
FNA:5,0,_ZNSt3__116reverse_iteratorIPNS_4pairImPKcEEEC1B8ne200100ES5_
FNA:5,0,_ZNSt3__116reverse_iteratorIPNS_4pairImPKcEEEC2B8ne200100ES5_
FNA:5,0,_ZNSt3__116reverse_iteratorIPNS_6threadEEC1B8ne200100ES2_
FNA:5,0,_ZNSt3__116reverse_iteratorIPNS_6threadEEC2B8ne200100ES2_
FNA:5,0,_ZNSt3__116reverse_iteratorIPNS_7__stateIcEEEC1B8ne200100ES3_
FNA:5,0,_ZNSt3__116reverse_iteratorIPNS_7__stateIcEEEC2B8ne200100ES3_
FNA:5,0,_ZNSt3__116reverse_iteratorIPNS_9sub_matchINS_11__wrap_iterIPKcEEEEEC1B8ne200100ES7_
FNA:5,0,_ZNSt3__116reverse_iteratorIPNS_9sub_matchINS_11__wrap_iterIPKcEEEEEC2B8ne200100ES7_
FNA:5,0,_ZNSt3__116reverse_iteratorIPNS_9sub_matchIPKcEEEC1B8ne200100ES5_
FNA:5,0,_ZNSt3__116reverse_iteratorIPNS_9sub_matchIPKcEEEC2B8ne200100ES5_
FNF:6
FNH:0
DA:97,0
DA:129,0
DA:130,0
DA:131,0
DA:132,0
DA:136,0
DA:139,0
DA:140,0
DA:142,0
DA:151,0
DA:152,0
DA:153,0
DA:232,0
DA:239,0
LF:14
LH:0
end_of_record
TN:
SF:/Library/Developer/CommandLineTools/SDKs/MacOSX.sdk/usr/include/c++/v1/__iterator/wrap_iter.h
FNL:0,103,103
FNA:0,314,_ZNKSt3__111__wrap_iterIPKN4dbal11FilterGroupEE4baseB8ne200100Ev
FNA:0,24,_ZNKSt3__111__wrap_iterIPKN4dbal13AggregateSpecEE4baseB8ne200100Ev
FNA:0,524,_ZNKSt3__111__wrap_iterIPKN4dbal15FilterConditionEE4baseB8ne200100Ev
FNA:0,47386,_ZNKSt3__111__wrap_iterIPKN4dbal4core11EntityFieldEE4baseB8ne200100Ev
FNA:0,4,_ZNKSt3__111__wrap_iterIPKN4dbal4core11EntityIndexEE4baseB8ne200100Ev
FNA:0,0,_ZNKSt3__111__wrap_iterIPKN4dbal4core11RelationDefEE4baseB8ne200100Ev
FNA:0,26820,_ZNKSt3__111__wrap_iterIPKN4dbal8adapters11EntityFieldEE4baseB8ne200100Ev
FNA:0,6784,_ZNKSt3__111__wrap_iterIPKN4dbal8adapters15FieldDefinitionEE4baseB8ne200100Ev
FNA:0,1044,_ZNKSt3__111__wrap_iterIPKN4dbal8adapters15IndexDefinitionEE4baseB8ne200100Ev
FNA:0,114,_ZNKSt3__111__wrap_iterIPKN4dbal8adapters18RelationDefinitionEE4baseB8ne200100Ev
FNA:0,340,_ZNKSt3__111__wrap_iterIPKN4dbal8adapters3sql6SqlRowEE4baseB8ne200100Ev
FNA:0,4100,_ZNKSt3__111__wrap_iterIPKN4dbal8adapters3sql8SqlParamEE4baseB8ne200100Ev
FNA:0,52,_ZNKSt3__111__wrap_iterIPKN8nlohmann16json_abi_v3_11_310basic_jsonINS_3mapENS_6vectorENS_12basic_stringIcNS_11char_traitsIcEENS_9allocatorIcEEEEbxydS9_NS2_14adl_serializerENS5_IhNS9_IhEEEEvEEE4baseB8ne200100Ev
FNA:0,848,_ZNKSt3__111__wrap_iterIPKNS_10shared_ptrIN4inja14ExpressionNodeEEEE4baseB8ne200100Ev
FNA:0,25440,_ZNKSt3__111__wrap_iterIPKNS_10shared_ptrIN4inja7AstNodeEEEE4baseB8ne200100Ev
FNA:0,83381,_ZNKSt3__111__wrap_iterIPKNS_12basic_stringIcNS_11char_traitsIcEENS_9allocatorIcEEEEE4baseB8ne200100Ev
FNA:0,7952,_ZNKSt3__111__wrap_iterIPKcE4baseB8ne200100Ev
FNA:0,0,_ZNKSt3__111__wrap_iterIPKhE4baseB8ne200100Ev
FNA:0,0,_ZNKSt3__111__wrap_iterIPKiE4baseB8ne200100Ev
FNA:0,0,_ZNKSt3__111__wrap_iterIPN4dbal4core23CompensatingTransaction6UndoOpEE4baseB8ne200100Ev
FNA:0,652,_ZNKSt3__111__wrap_iterIPN4dbal8adapters16EntityDefinitionEE4baseB8ne200100Ev
FNA:0,912,_ZNKSt3__111__wrap_iterIPN4dbal8adapters3sql6SqlRowEE4baseB8ne200100Ev
FNA:0,25439,_ZNKSt3__111__wrap_iterIPN8nlohmann16json_abi_v3_11_310basic_jsonINS_3mapENS_6vectorENS_12basic_stringIcNS_11char_traitsIcEENS_9allocatorIcEEEEbxydS9_NS2_14adl_serializerENS5_IhNS9_IhEEEEvEEE4baseB8ne200100Ev
FNA:0,848,_ZNKSt3__111__wrap_iterIPNS_10shared_ptrIN4inja14ExpressionNodeEEEE4baseB8ne200100Ev
FNA:0,1284,_ZNKSt3__111__wrap_iterIPNS_10unique_ptrIN4dbal8adapters3sql13SqlConnectionENS_14default_deleteIS5_EEEEE4baseB8ne200100Ev
FNA:0,587,_ZNKSt3__111__wrap_iterIPNS_12basic_stringIcNS_11char_traitsIcEENS_9allocatorIcEEEEE4baseB8ne200100Ev
FNA:0,12,_ZNKSt3__111__wrap_iterIPNS_6threadEE4baseB8ne200100Ev
FNA:0,30358,_ZNKSt3__111__wrap_iterIPcE4baseB8ne200100Ev
FNA:0,0,_ZNKSt3__111__wrap_iterIPiE4baseB8ne200100Ev
FNL:1,106,106
FNA:1,294,_ZNSt3__111__wrap_iterIPKN4dbal11FilterGroupEEC1B8ne200100ES4_
FNA:1,294,_ZNSt3__111__wrap_iterIPKN4dbal11FilterGroupEEC2B8ne200100ES4_
FNA:1,12,_ZNSt3__111__wrap_iterIPKN4dbal13AggregateSpecEEC1B8ne200100ES4_
FNA:1,12,_ZNSt3__111__wrap_iterIPKN4dbal13AggregateSpecEEC2B8ne200100ES4_
FNA:1,314,_ZNSt3__111__wrap_iterIPKN4dbal15FilterConditionEEC1B8ne200100ES4_
FNA:1,314,_ZNSt3__111__wrap_iterIPKN4dbal15FilterConditionEEC2B8ne200100ES4_
FNA:1,9350,_ZNSt3__111__wrap_iterIPKN4dbal4core11EntityFieldEEC1B8ne200100ES5_
FNA:1,9350,_ZNSt3__111__wrap_iterIPKN4dbal4core11EntityFieldEEC2B8ne200100ES5_
FNA:1,2,_ZNSt3__111__wrap_iterIPKN4dbal4core11EntityIndexEEC1B8ne200100ES5_
FNA:1,2,_ZNSt3__111__wrap_iterIPKN4dbal4core11EntityIndexEEC2B8ne200100ES5_
FNA:1,0,_ZNSt3__111__wrap_iterIPKN4dbal4core11RelationDefEEC1B8ne200100ES5_
FNA:1,0,_ZNSt3__111__wrap_iterIPKN4dbal4core11RelationDefEEC2B8ne200100ES5_
FNA:1,3426,_ZNSt3__111__wrap_iterIPKN4dbal8adapters11EntityFieldEEC1B8ne200100ES5_
FNA:1,3426,_ZNSt3__111__wrap_iterIPKN4dbal8adapters11EntityFieldEEC2B8ne200100ES5_
FNA:1,848,_ZNSt3__111__wrap_iterIPKN4dbal8adapters15FieldDefinitionEEC1B8ne200100ES5_
FNA:1,848,_ZNSt3__111__wrap_iterIPKN4dbal8adapters15FieldDefinitionEEC2B8ne200100ES5_
FNA:1,522,_ZNSt3__111__wrap_iterIPKN4dbal8adapters15IndexDefinitionEEC1B8ne200100ES5_
FNA:1,522,_ZNSt3__111__wrap_iterIPKN4dbal8adapters15IndexDefinitionEEC2B8ne200100ES5_
FNA:1,114,_ZNSt3__111__wrap_iterIPKN4dbal8adapters18RelationDefinitionEEC1B8ne200100ES5_
FNA:1,114,_ZNSt3__111__wrap_iterIPKN4dbal8adapters18RelationDefinitionEEC2B8ne200100ES5_
FNA:1,70,_ZNSt3__111__wrap_iterIPKN4dbal8adapters3sql6SqlRowEEC1B8ne200100ES6_
FNA:1,70,_ZNSt3__111__wrap_iterIPKN4dbal8adapters3sql6SqlRowEEC2B8ne200100ES6_
FNA:1,856,_ZNSt3__111__wrap_iterIPKN4dbal8adapters3sql8SqlParamEEC1B8ne200100ES6_
FNA:1,856,_ZNSt3__111__wrap_iterIPKN4dbal8adapters3sql8SqlParamEEC2B8ne200100ES6_
FNA:1,12,_ZNSt3__111__wrap_iterIPKN8nlohmann16json_abi_v3_11_310basic_jsonINS_3mapENS_6vectorENS_12basic_stringIcNS_11char_traitsIcEENS_9allocatorIcEEEEbxydS9_NS2_14adl_serializerENS5_IhNS9_IhEEEEvEEEC1B8ne200100ESH_
FNA:1,12,_ZNSt3__111__wrap_iterIPKN8nlohmann16json_abi_v3_11_310basic_jsonINS_3mapENS_6vectorENS_12basic_stringIcNS_11char_traitsIcEENS_9allocatorIcEEEEbxydS9_NS2_14adl_serializerENS5_IhNS9_IhEEEEvEEEC2B8ne200100ESH_
FNA:1,0,_ZNSt3__111__wrap_iterIPKNS_10shared_ptrIN4inja14ExpressionNodeEEEEC1B8ne200100ES6_
FNA:1,0,_ZNSt3__111__wrap_iterIPKNS_10shared_ptrIN4inja14ExpressionNodeEEEEC2B8ne200100ES6_
FNA:1,4664,_ZNSt3__111__wrap_iterIPKNS_10shared_ptrIN4inja7AstNodeEEEEC1B8ne200100ES6_
FNA:1,4664,_ZNSt3__111__wrap_iterIPKNS_10shared_ptrIN4inja7AstNodeEEEEC2B8ne200100ES6_
FNA:1,32360,_ZNSt3__111__wrap_iterIPKNS_12basic_stringIcNS_11char_traitsIcEENS_9allocatorIcEEEEEC1B8ne200100ES8_
FNA:1,32360,_ZNSt3__111__wrap_iterIPKNS_12basic_stringIcNS_11char_traitsIcEENS_9allocatorIcEEEEEC2B8ne200100ES8_
FNA:1,922,_ZNSt3__111__wrap_iterIPKcEC1B8ne200100ES2_
FNA:1,922,_ZNSt3__111__wrap_iterIPKcEC2B8ne200100ES2_
FNA:1,0,_ZNSt3__111__wrap_iterIPKhEC1B8ne200100ES2_
FNA:1,0,_ZNSt3__111__wrap_iterIPKhEC2B8ne200100ES2_
FNA:1,0,_ZNSt3__111__wrap_iterIPKiEC1B8ne200100ES2_
FNA:1,0,_ZNSt3__111__wrap_iterIPKiEC2B8ne200100ES2_
FNA:1,0,_ZNSt3__111__wrap_iterIPN4dbal4core23CompensatingTransaction6UndoOpEEC1B8ne200100ES5_
FNA:1,0,_ZNSt3__111__wrap_iterIPN4dbal4core23CompensatingTransaction6UndoOpEEC2B8ne200100ES5_
FNA:1,326,_ZNSt3__111__wrap_iterIPN4dbal8adapters16EntityDefinitionEEC1B8ne200100ES4_
FNA:1,326,_ZNSt3__111__wrap_iterIPN4dbal8adapters16EntityDefinitionEEC2B8ne200100ES4_
FNA:1,114,_ZNSt3__111__wrap_iterIPN4dbal8adapters3sql6SqlRowEEC1B8ne200100ES5_
FNA:1,114,_ZNSt3__111__wrap_iterIPN4dbal8adapters3sql6SqlRowEEC2B8ne200100ES5_
FNA:1,15552,_ZNSt3__111__wrap_iterIPN8nlohmann16json_abi_v3_11_310basic_jsonINS_3mapENS_6vectorENS_12basic_stringIcNS_11char_traitsIcEENS_9allocatorIcEEEEbxydS9_NS2_14adl_serializerENS5_IhNS9_IhEEEEvEEEC1B8ne200100ESG_
FNA:1,15552,_ZNSt3__111__wrap_iterIPN8nlohmann16json_abi_v3_11_310basic_jsonINS_3mapENS_6vectorENS_12basic_stringIcNS_11char_traitsIcEENS_9allocatorIcEEEEbxydS9_NS2_14adl_serializerENS5_IhNS9_IhEEEEvEEEC2B8ne200100ESG_
FNA:1,2544,_ZNSt3__111__wrap_iterIPNS_10shared_ptrIN4inja14ExpressionNodeEEEEC1B8ne200100ES5_
FNA:1,2544,_ZNSt3__111__wrap_iterIPNS_10shared_ptrIN4inja14ExpressionNodeEEEEC2B8ne200100ES5_
FNA:1,1284,_ZNSt3__111__wrap_iterIPNS_10unique_ptrIN4dbal8adapters3sql13SqlConnectionENS_14default_deleteIS5_EEEEEC1B8ne200100ES9_
FNA:1,1284,_ZNSt3__111__wrap_iterIPNS_10unique_ptrIN4dbal8adapters3sql13SqlConnectionENS_14default_deleteIS5_EEEEEC2B8ne200100ES9_
FNA:1,270,_ZNSt3__111__wrap_iterIPNS_12basic_stringIcNS_11char_traitsIcEENS_9allocatorIcEEEEEC1B8ne200100ES7_
FNA:1,270,_ZNSt3__111__wrap_iterIPNS_12basic_stringIcNS_11char_traitsIcEENS_9allocatorIcEEEEEC2B8ne200100ES7_
FNA:1,2,_ZNSt3__111__wrap_iterIPNS_6threadEEC1B8ne200100ES2_
FNA:1,2,_ZNSt3__111__wrap_iterIPNS_6threadEEC2B8ne200100ES2_
FNA:1,4741,_ZNSt3__111__wrap_iterIPcEC1B8ne200100ES1_
FNA:1,4741,_ZNSt3__111__wrap_iterIPcEC2B8ne200100ES1_
FNA:1,0,_ZNSt3__111__wrap_iterIPiEC1B8ne200100ES1_
FNA:1,0,_ZNSt3__111__wrap_iterIPiEC2B8ne200100ES1_
FNL:2,124,125
FNA:2,157,_ZNSt3__1eqB8ne200100IPKN4dbal11FilterGroupEEEbRKNS_11__wrap_iterIT_EES9_
FNA:2,12,_ZNSt3__1eqB8ne200100IPKN4dbal13AggregateSpecEEEbRKNS_11__wrap_iterIT_EES9_
FNA:2,262,_ZNSt3__1eqB8ne200100IPKN4dbal15FilterConditionEEEbRKNS_11__wrap_iterIT_EES9_
FNA:2,23693,_ZNSt3__1eqB8ne200100IPKN4dbal4core11EntityFieldEEEbRKNS_11__wrap_iterIT_EESA_
FNA:2,2,_ZNSt3__1eqB8ne200100IPKN4dbal4core11EntityIndexEEEbRKNS_11__wrap_iterIT_EESA_
FNA:2,0,_ZNSt3__1eqB8ne200100IPKN4dbal4core11RelationDefEEEbRKNS_11__wrap_iterIT_EESA_
FNA:2,13411,_ZNSt3__1eqB8ne200100IPKN4dbal8adapters11EntityFieldEEEbRKNS_11__wrap_iterIT_EESA_
FNA:2,3392,_ZNSt3__1eqB8ne200100IPKN4dbal8adapters15FieldDefinitionEEEbRKNS_11__wrap_iterIT_EESA_
FNA:2,522,_ZNSt3__1eqB8ne200100IPKN4dbal8adapters15IndexDefinitionEEEbRKNS_11__wrap_iterIT_EESA_
FNA:2,57,_ZNSt3__1eqB8ne200100IPKN4dbal8adapters18RelationDefinitionEEEbRKNS_11__wrap_iterIT_EESA_
FNA:2,170,_ZNSt3__1eqB8ne200100IPKN4dbal8adapters3sql6SqlRowEEEbRKNS_11__wrap_iterIT_EESB_
FNA:2,2050,_ZNSt3__1eqB8ne200100IPKN4dbal8adapters3sql8SqlParamEEEbRKNS_11__wrap_iterIT_EESB_
FNA:2,26,_ZNSt3__1eqB8ne200100IPKN8nlohmann16json_abi_v3_11_310basic_jsonINS_3mapENS_6vectorENS_12basic_stringIcNS_11char_traitsIcEENS_9allocatorIcEEEEbxydS9_NS2_14adl_serializerENS5_IhNS9_IhEEEEvEEEEbRKNS_11__wrap_iterIT_EESM_
FNA:2,0,_ZNSt3__1eqB8ne200100IPKNS_10shared_ptrIN4inja14ExpressionNodeEEEEEbRKNS_11__wrap_iterIT_EESB_
FNA:2,12720,_ZNSt3__1eqB8ne200100IPKNS_10shared_ptrIN4inja7AstNodeEEEEEbRKNS_11__wrap_iterIT_EESB_
FNA:2,39942,_ZNSt3__1eqB8ne200100IPKNS_12basic_stringIcNS_11char_traitsIcEENS_9allocatorIcEEEEEEbRKNS_11__wrap_iterIT_EESD_
FNA:2,3370,_ZNSt3__1eqB8ne200100IPKcEEbRKNS_11__wrap_iterIT_EES7_
FNA:2,0,_ZNSt3__1eqB8ne200100IPKhEEbRKNS_11__wrap_iterIT_EES7_
FNA:2,0,_ZNSt3__1eqB8ne200100IPN4dbal4core23CompensatingTransaction6UndoOpEEEbRKNS_11__wrap_iterIT_EESA_
FNA:2,326,_ZNSt3__1eqB8ne200100IPN4dbal8adapters16EntityDefinitionEEEbRKNS_11__wrap_iterIT_EES9_
FNA:2,456,_ZNSt3__1eqB8ne200100IPN4dbal8adapters3sql6SqlRowEEEbRKNS_11__wrap_iterIT_EESA_
FNA:2,4279,_ZNSt3__1eqB8ne200100IPN8nlohmann16json_abi_v3_11_310basic_jsonINS_3mapENS_6vectorENS_12basic_stringIcNS_11char_traitsIcEENS_9allocatorIcEEEEbxydS9_NS2_14adl_serializerENS5_IhNS9_IhEEEEvEEEEbRKNS_11__wrap_iterIT_EESL_
FNA:2,642,_ZNSt3__1eqB8ne200100IPNS_10unique_ptrIN4dbal8adapters3sql13SqlConnectionENS_14default_deleteIS5_EEEEEEbRKNS_11__wrap_iterIT_EESE_
FNA:2,266,_ZNSt3__1eqB8ne200100IPNS_12basic_stringIcNS_11char_traitsIcEENS_9allocatorIcEEEEEEbRKNS_11__wrap_iterIT_EESC_
FNA:2,6,_ZNSt3__1eqB8ne200100IPNS_6threadEEEbRKNS_11__wrap_iterIT_EES7_
FNA:2,14952,_ZNSt3__1eqB8ne200100IPcEEbRKNS_11__wrap_iterIT_EES6_
FNA:2,0,_ZNSt3__1eqB8ne200100IPiEEbRKNS_11__wrap_iterIT_EES6_
FNL:3,136,137
FNA:3,0,_ZNSt3__1ltB8ne200100IPN8nlohmann16json_abi_v3_11_310basic_jsonINS_3mapENS_6vectorENS_12basic_stringIcNS_11char_traitsIcEENS_9allocatorIcEEEEbxydS9_NS2_14adl_serializerENS5_IhNS9_IhEEEEvEEEEbRKNS_11__wrap_iterIT_EESL_
FNL:4,216,223
FNA:4,0,_ZNSt3__1miB8ne200100IPKN8nlohmann16json_abi_v3_11_310basic_jsonINS_3mapENS_6vectorENS_12basic_stringIcNS_11char_traitsIcEENS_9allocatorIcEEEEbxydS9_NS2_14adl_serializerENS5_IhNS9_IhEEEEvEESH_EEDTmicldtfp_4baseEcldtfp0_4baseEERKNS_11__wrap_iterIT_EERKNSJ_IT0_EE
FNA:4,848,_ZNSt3__1miB8ne200100IPKNS_10shared_ptrIN4inja14ExpressionNodeEEEPS4_EEDTmicldtfp_4baseEcldtfp0_4baseEERKNS_11__wrap_iterIT_EERKNS9_IT0_EE
FNA:4,212,_ZNSt3__1miB8ne200100IPKNS_12basic_stringIcNS_11char_traitsIcEENS_9allocatorIcEEEES8_EEDTmicldtfp_4baseEcldtfp0_4baseEERKNS_11__wrap_iterIT_EERKNSA_IT0_EE
FNA:4,0,_ZNSt3__1miB8ne200100IPKhS2_EEDTmicldtfp_4baseEcldtfp0_4baseEERKNS_11__wrap_iterIT_EERKNS4_IT0_EE
FNA:4,0,_ZNSt3__1miB8ne200100IPKiS2_EEDTmicldtfp_4baseEcldtfp0_4baseEERKNS_11__wrap_iterIT_EERKNS4_IT0_EE
FNA:4,0,_ZNSt3__1miB8ne200100IPN8nlohmann16json_abi_v3_11_310basic_jsonINS_3mapENS_6vectorENS_12basic_stringIcNS_11char_traitsIcEENS_9allocatorIcEEEEbxydS9_NS2_14adl_serializerENS5_IhNS9_IhEEEEvEESG_EEDTmicldtfp_4baseEcldtfp0_4baseEERKNS_11__wrap_iterIT_EERKNSI_IT0_EE
FNA:4,0,_ZNSt3__1miB8ne200100IPcS1_EEDTmicldtfp_4baseEcldtfp0_4baseEERKNS_11__wrap_iterIT_EERKNS3_IT0_EE
FNL:5,244,245
FNA:5,0,_ZNSt3__114pointer_traitsINS_11__wrap_iterIPKN8nlohmann16json_abi_v3_11_310basic_jsonINS_3mapENS_6vectorENS_12basic_stringIcNS_11char_traitsIcEENS_9allocatorIcEEEEbxydSA_NS3_14adl_serializerENS6_IhNSA_IhEEEEvEEEEE10to_addressB8ne200100ESJ_
FNA:5,3064,_ZNSt3__114pointer_traitsINS_11__wrap_iterIPKNS_12basic_stringIcNS_11char_traitsIcEENS_9allocatorIcEEEEEEE10to_addressB8ne200100ESA_
FNA:5,106,_ZNSt3__114pointer_traitsINS_11__wrap_iterIPKcEEE10to_addressB8ne200100ES4_
FNA:5,0,_ZNSt3__114pointer_traitsINS_11__wrap_iterIPKhEEE10to_addressB8ne200100ES4_
FNA:5,0,_ZNSt3__114pointer_traitsINS_11__wrap_iterIPKiEEE10to_addressB8ne200100ES4_
FNA:5,16881,_ZNSt3__114pointer_traitsINS_11__wrap_iterIPN8nlohmann16json_abi_v3_11_310basic_jsonINS_3mapENS_6vectorENS_12basic_stringIcNS_11char_traitsIcEENS_9allocatorIcEEEEbxydSA_NS3_14adl_serializerENS6_IhNSA_IhEEEEvEEEEE10to_addressB8ne200100ESI_
FNA:5,36,_ZNSt3__114pointer_traitsINS_11__wrap_iterIPNS_12basic_stringIcNS_11char_traitsIcEENS_9allocatorIcEEEEEEE10to_addressB8ne200100ES9_
FNA:5,0,_ZNSt3__114pointer_traitsINS_11__wrap_iterIPcEEE10to_addressB8ne200100ES3_
FNL:6,51,51
FNA:6,0,_ZNSt3__111__wrap_iterIPKcEC1B8ne200100Ev
FNA:6,0,_ZNSt3__111__wrap_iterIPKcEC2B8ne200100Ev
FNA:6,26054,_ZNSt3__111__wrap_iterIPN8nlohmann16json_abi_v3_11_310basic_jsonINS_3mapENS_6vectorENS_12basic_stringIcNS_11char_traitsIcEENS_9allocatorIcEEEEbxydS9_NS2_14adl_serializerENS5_IhNS9_IhEEEEvEEEC1B8ne200100Ev
FNA:6,26054,_ZNSt3__111__wrap_iterIPN8nlohmann16json_abi_v3_11_310basic_jsonINS_3mapENS_6vectorENS_12basic_stringIcNS_11char_traitsIcEENS_9allocatorIcEEEEbxydS9_NS2_14adl_serializerENS5_IhNS9_IhEEEEvEEEC2B8ne200100Ev
FNL:7,58,59
FNA:7,0,_ZNSt3__111__wrap_iterIPKN8nlohmann16json_abi_v3_11_310basic_jsonINS_3mapENS_6vectorENS_12basic_stringIcNS_11char_traitsIcEENS_9allocatorIcEEEEbxydS9_NS2_14adl_serializerENS5_IhNS9_IhEEEEvEEEC1B8ne200100IPSF_Li0EEERKNS0_IT_EE
FNA:7,0,_ZNSt3__111__wrap_iterIPKN8nlohmann16json_abi_v3_11_310basic_jsonINS_3mapENS_6vectorENS_12basic_stringIcNS_11char_traitsIcEENS_9allocatorIcEEEEbxydS9_NS2_14adl_serializerENS5_IhNS9_IhEEEEvEEEC2B8ne200100IPSF_Li0EEERKNS0_IT_EE
FNA:7,848,_ZNSt3__111__wrap_iterIPKNS_10shared_ptrIN4inja14ExpressionNodeEEEEC1B8ne200100IPS4_Li0EEERKNS0_IT_EE
FNA:7,848,_ZNSt3__111__wrap_iterIPKNS_10shared_ptrIN4inja14ExpressionNodeEEEEC2B8ne200100IPS4_Li0EEERKNS0_IT_EE
FNL:8,60,60
FNA:8,10,_ZNKSt3__111__wrap_iterIPKN4dbal11FilterGroupEEdeB8ne200100Ev
FNA:8,6,_ZNKSt3__111__wrap_iterIPKN4dbal13AggregateSpecEEdeB8ne200100Ev
FNA:8,105,_ZNKSt3__111__wrap_iterIPKN4dbal15FilterConditionEEdeB8ne200100Ev
FNA:8,22444,_ZNKSt3__111__wrap_iterIPKN4dbal4core11EntityFieldEEdeB8ne200100Ev
FNA:8,1,_ZNKSt3__111__wrap_iterIPKN4dbal4core11EntityIndexEEdeB8ne200100Ev
FNA:8,0,_ZNKSt3__111__wrap_iterIPKN4dbal4core11RelationDefEEdeB8ne200100Ev
FNA:8,11743,_ZNKSt3__111__wrap_iterIPKN4dbal8adapters11EntityFieldEEdeB8ne200100Ev
FNA:8,2968,_ZNKSt3__111__wrap_iterIPKN4dbal8adapters15FieldDefinitionEEdeB8ne200100Ev
FNA:8,261,_ZNKSt3__111__wrap_iterIPKN4dbal8adapters15IndexDefinitionEEdeB8ne200100Ev
FNA:8,0,_ZNKSt3__111__wrap_iterIPKN4dbal8adapters18RelationDefinitionEEdeB8ne200100Ev
FNA:8,135,_ZNKSt3__111__wrap_iterIPKN4dbal8adapters3sql6SqlRowEEdeB8ne200100Ev
FNA:8,1622,_ZNKSt3__111__wrap_iterIPKN4dbal8adapters3sql8SqlParamEEdeB8ne200100Ev
FNA:8,20,_ZNKSt3__111__wrap_iterIPKN8nlohmann16json_abi_v3_11_310basic_jsonINS_3mapENS_6vectorENS_12basic_stringIcNS_11char_traitsIcEENS_9allocatorIcEEEEbxydS9_NS2_14adl_serializerENS5_IhNS9_IhEEEEvEEEdeB8ne200100Ev
FNA:8,0,_ZNKSt3__111__wrap_iterIPKNS_10shared_ptrIN4inja14ExpressionNodeEEEEdeB8ne200100Ev
FNA:8,10388,_ZNKSt3__111__wrap_iterIPKNS_10shared_ptrIN4inja7AstNodeEEEEdeB8ne200100Ev
FNA:8,25156,_ZNKSt3__111__wrap_iterIPKNS_12basic_stringIcNS_11char_traitsIcEENS_9allocatorIcEEEEEdeB8ne200100Ev
FNA:8,3469,_ZNKSt3__111__wrap_iterIPKcEdeB8ne200100Ev
FNA:8,0,_ZNKSt3__111__wrap_iterIPKhEdeB8ne200100Ev
FNA:8,0,_ZNKSt3__111__wrap_iterIPN4dbal4core23CompensatingTransaction6UndoOpEEdeB8ne200100Ev
FNA:8,163,_ZNKSt3__111__wrap_iterIPN4dbal8adapters16EntityDefinitionEEdeB8ne200100Ev
FNA:8,399,_ZNKSt3__111__wrap_iterIPN4dbal8adapters3sql6SqlRowEEdeB8ne200100Ev
FNA:8,1751,_ZNKSt3__111__wrap_iterIPN8nlohmann16json_abi_v3_11_310basic_jsonINS_3mapENS_6vectorENS_12basic_stringIcNS_11char_traitsIcEENS_9allocatorIcEEEEbxydS9_NS2_14adl_serializerENS5_IhNS9_IhEEEEvEEEdeB8ne200100Ev
FNA:8,642,_ZNKSt3__111__wrap_iterIPNS_10unique_ptrIN4dbal8adapters3sql13SqlConnectionENS_14default_deleteIS5_EEEEEdeB8ne200100Ev
FNA:8,151,_ZNKSt3__111__wrap_iterIPNS_12basic_stringIcNS_11char_traitsIcEENS_9allocatorIcEEEEEdeB8ne200100Ev
FNA:8,5,_ZNKSt3__111__wrap_iterIPNS_6threadEEdeB8ne200100Ev
FNA:8,27476,_ZNKSt3__111__wrap_iterIPcEdeB8ne200100Ev
FNA:8,0,_ZNKSt3__111__wrap_iterIPiEdeB8ne200100Ev
FNL:9,64,66
FNA:9,10,_ZNSt3__111__wrap_iterIPKN4dbal11FilterGroupEEppB8ne200100Ev
FNA:9,6,_ZNSt3__111__wrap_iterIPKN4dbal13AggregateSpecEEppB8ne200100Ev
FNA:9,105,_ZNSt3__111__wrap_iterIPKN4dbal15FilterConditionEEppB8ne200100Ev
FNA:9,19018,_ZNSt3__111__wrap_iterIPKN4dbal4core11EntityFieldEEppB8ne200100Ev
FNA:9,1,_ZNSt3__111__wrap_iterIPKN4dbal4core11EntityIndexEEppB8ne200100Ev
FNA:9,0,_ZNSt3__111__wrap_iterIPKN4dbal4core11RelationDefEEppB8ne200100Ev
FNA:9,11699,_ZNSt3__111__wrap_iterIPKN4dbal8adapters11EntityFieldEEppB8ne200100Ev
FNA:9,2968,_ZNSt3__111__wrap_iterIPKN4dbal8adapters15FieldDefinitionEEppB8ne200100Ev
FNA:9,261,_ZNSt3__111__wrap_iterIPKN4dbal8adapters15IndexDefinitionEEppB8ne200100Ev
FNA:9,0,_ZNSt3__111__wrap_iterIPKN4dbal8adapters18RelationDefinitionEEppB8ne200100Ev
FNA:9,135,_ZNSt3__111__wrap_iterIPKN4dbal8adapters3sql6SqlRowEEppB8ne200100Ev
FNA:9,1622,_ZNSt3__111__wrap_iterIPKN4dbal8adapters3sql8SqlParamEEppB8ne200100Ev
FNA:9,20,_ZNSt3__111__wrap_iterIPKN8nlohmann16json_abi_v3_11_310basic_jsonINS_3mapENS_6vectorENS_12basic_stringIcNS_11char_traitsIcEENS_9allocatorIcEEEEbxydS9_NS2_14adl_serializerENS5_IhNS9_IhEEEEvEEEppB8ne200100Ev
FNA:9,0,_ZNSt3__111__wrap_iterIPKNS_10shared_ptrIN4inja14ExpressionNodeEEEEppB8ne200100Ev
FNA:9,10388,_ZNSt3__111__wrap_iterIPKNS_10shared_ptrIN4inja7AstNodeEEEEppB8ne200100Ev
FNA:9,24414,_ZNSt3__111__wrap_iterIPKNS_12basic_stringIcNS_11char_traitsIcEENS_9allocatorIcEEEEEppB8ne200100Ev
FNA:9,3223,_ZNSt3__111__wrap_iterIPKcEppB8ne200100Ev
FNA:9,0,_ZNSt3__111__wrap_iterIPKhEppB8ne200100Ev
FNA:9,163,_ZNSt3__111__wrap_iterIPN4dbal8adapters16EntityDefinitionEEppB8ne200100Ev
FNA:9,399,_ZNSt3__111__wrap_iterIPN4dbal8adapters3sql6SqlRowEEppB8ne200100Ev
FNA:9,39,_ZNSt3__111__wrap_iterIPN8nlohmann16json_abi_v3_11_310basic_jsonINS_3mapENS_6vectorENS_12basic_stringIcNS_11char_traitsIcEENS_9allocatorIcEEEEbxydS9_NS2_14adl_serializerENS5_IhNS9_IhEEEEvEEEppB8ne200100Ev
FNA:9,0,_ZNSt3__111__wrap_iterIPNS_10unique_ptrIN4dbal8adapters3sql13SqlConnectionENS_14default_deleteIS5_EEEEEppB8ne200100Ev
FNA:9,160,_ZNSt3__111__wrap_iterIPNS_12basic_stringIcNS_11char_traitsIcEENS_9allocatorIcEEEEEppB8ne200100Ev
FNA:9,5,_ZNSt3__111__wrap_iterIPNS_6threadEEppB8ne200100Ev
FNA:9,27438,_ZNSt3__111__wrap_iterIPcEppB8ne200100Ev
FNA:9,0,_ZNSt3__111__wrap_iterIPiEppB8ne200100Ev
FNL:10,74,76
FNA:10,0,_ZNSt3__111__wrap_iterIPN4dbal4core23CompensatingTransaction6UndoOpEEmmB8ne200100Ev
FNL:11,83,86
FNA:11,0,_ZNKSt3__111__wrap_iterIPKN8nlohmann16json_abi_v3_11_310basic_jsonINS_3mapENS_6vectorENS_12basic_stringIcNS_11char_traitsIcEENS_9allocatorIcEEEEbxydS9_NS2_14adl_serializerENS5_IhNS9_IhEEEEvEEEplB8ne200100El
FNA:11,880,_ZNKSt3__111__wrap_iterIPKNS_12basic_stringIcNS_11char_traitsIcEENS_9allocatorIcEEEEEplB8ne200100El
FNA:11,0,_ZNKSt3__111__wrap_iterIPKcEplB8ne200100El
FNA:11,0,_ZNKSt3__111__wrap_iterIPKhEplB8ne200100El
FNA:11,5627,_ZNKSt3__111__wrap_iterIPN8nlohmann16json_abi_v3_11_310basic_jsonINS_3mapENS_6vectorENS_12basic_stringIcNS_11char_traitsIcEENS_9allocatorIcEEEEbxydS9_NS2_14adl_serializerENS5_IhNS9_IhEEEEvEEEplB8ne200100El
FNA:11,12,_ZNKSt3__111__wrap_iterIPNS_12basic_stringIcNS_11char_traitsIcEENS_9allocatorIcEEEEEplB8ne200100El
FNA:11,7,_ZNKSt3__111__wrap_iterIPcEplB8ne200100El
FNL:12,88,90
FNA:12,0,_ZNSt3__111__wrap_iterIPKN8nlohmann16json_abi_v3_11_310basic_jsonINS_3mapENS_6vectorENS_12basic_stringIcNS_11char_traitsIcEENS_9allocatorIcEEEEbxydS9_NS2_14adl_serializerENS5_IhNS9_IhEEEEvEEEpLB8ne200100El
FNA:12,880,_ZNSt3__111__wrap_iterIPKNS_12basic_stringIcNS_11char_traitsIcEENS_9allocatorIcEEEEEpLB8ne200100El
FNA:12,236,_ZNSt3__111__wrap_iterIPKcEpLB8ne200100El
FNA:12,0,_ZNSt3__111__wrap_iterIPKhEpLB8ne200100El
FNA:12,7339,_ZNSt3__111__wrap_iterIPN8nlohmann16json_abi_v3_11_310basic_jsonINS_3mapENS_6vectorENS_12basic_stringIcNS_11char_traitsIcEENS_9allocatorIcEEEEbxydS9_NS2_14adl_serializerENS5_IhNS9_IhEEEEvEEEpLB8ne200100El
FNA:12,12,_ZNSt3__111__wrap_iterIPNS_12basic_stringIcNS_11char_traitsIcEENS_9allocatorIcEEEEEpLB8ne200100El
FNA:12,45,_ZNSt3__111__wrap_iterIPcEpLB8ne200100El
FNL:13,92,93
FNA:13,0,_ZNKSt3__111__wrap_iterIPKN8nlohmann16json_abi_v3_11_310basic_jsonINS_3mapENS_6vectorENS_12basic_stringIcNS_11char_traitsIcEENS_9allocatorIcEEEEbxydS9_NS2_14adl_serializerENS5_IhNS9_IhEEEEvEEEmiB8ne200100El
FNA:13,0,_ZNKSt3__111__wrap_iterIPKhEmiB8ne200100El
FNF:14
FNH:11
DA:51,52108
DA:58,1696
DA:59,1696
DA:60,108915
DA:64,102074
DA:65,102074
DA:66,102074
DA:74,0
DA:75,0
DA:76,0
DA:83,6526
DA:84,6526
DA:85,6526
DA:86,6526
DA:88,8512
DA:89,8512
DA:90,8512
DA:92,0
DA:93,0
DA:103,265219
DA:106,157198
DA:124,120713
DA:125,120713
DA:136,0
DA:137,0
DA:216,1060
DA:223,1060
DA:244,20087
DA:245,20087
LF:29
LH:22
end_of_record
TN:
SF:/Library/Developer/CommandLineTools/SDKs/MacOSX.sdk/usr/include/c++/v1/__locale
FNL:0,171
FNA:0,4482,_ZNSt3__19use_facetB8ne200100INS_5ctypeIcEEEERKT_RKNS_6localeE
FNA:0,0,_ZNSt3__19use_facetB8ne200100INS_7collateIcEEEERKT_RKNS_6localeE
FNL:1,193
FNA:1,0,_ZNKSt3__17collateIcE9transformB8ne200100EPKcS3_
FNL:2,523
FNA:2,0,_ZNSt3__116__libcpp_isasciiB8ne200100Ei
FNL:3,535
FNA:3,0,_ZNKSt3__15ctypeIcE2isB8ne200100Ejc
FNL:4,565
FNA:4,0,_ZNKSt3__15ctypeIcE7tolowerB8ne200100Ec
FNL:5,567
FNA:5,0,_ZNKSt3__15ctypeIcE7tolowerB8ne200100EPcPKc
FNL:6,571
FNA:6,4482,_ZNKSt3__15ctypeIcE5widenB8ne200100Ec
FNF:7
FNH:2
DA:171,4482
DA:172,4482
DA:193,0
DA:194,0
DA:523,0
DA:535,0
DA:536,0
DA:565,0
DA:567,0
DA:568,0
DA:571,4482
LF:11
LH:3
end_of_record
TN:
SF:/Library/Developer/CommandLineTools/SDKs/MacOSX.sdk/usr/include/c++/v1/__locale_dir/pad_and_output.h
FNL:0,44,82
FNA:0,59066,_ZNSt3__116__pad_and_outputB8ne200100IcNS_11char_traitsIcEEEENS_19ostreambuf_iteratorIT_T0_EES6_PKS4_S8_S8_RNS_8ios_baseES4_
FNF:1
FNH:1
DA:44,59066
DA:51,59066
DA:52,0
DA:53,59066
DA:54,59066
DA:55,59066
DA:56,0
DA:58,59066
DA:59,59066
DA:60,59066
DA:61,0
DA:62,0
DA:63,0
DA:65,0
DA:66,59066
DA:67,0
DA:68,0
DA:69,0
DA:70,0
DA:72,0
DA:73,59066
DA:74,59066
DA:75,58956
DA:76,0
DA:77,0
DA:79,58956
DA:80,59066
DA:81,59066
DA:82,59066
LF:29
LH:16
end_of_record
TN:
SF:/Library/Developer/CommandLineTools/SDKs/MacOSX.sdk/usr/include/c++/v1/__math/exponential_functions.h
FNL:0,152,153
FNA:0,0,_ZNSt3__16__math3powB8ne200100IiEEddd
FNL:1,161,164
FNA:1,0,_ZNSt3__16__math3powB8ne200100IdxLi0EEENS_9__promoteIJT_T0_EE4typeES3_S4_
FNA:1,0,_ZNSt3__16__math3powB8ne200100IxxLi0EEENS_9__promoteIJT_T0_EE4typeES3_S4_
FNF:2
FNH:0
DA:152,0
DA:153,0
DA:161,0
DA:164,0
LF:4
LH:0
end_of_record
TN:
SF:/Library/Developer/CommandLineTools/SDKs/MacOSX.sdk/usr/include/c++/v1/__math/rounding_functions.h
FNL:0,29,29
FNA:0,212,_ZNSt3__16__math4ceilB8ne200100Ef
FNF:1
FNH:1
DA:29,212
LF:1
LH:1
end_of_record
TN:
SF:/Library/Developer/CommandLineTools/SDKs/MacOSX.sdk/usr/include/c++/v1/__math/traits.h
FNL:0,123,124
FNA:0,0,_ZNSt3__16__math5isnanB8ne200100EUa9enable_ifIXLb1EEEd
FNL:1,45,46
FNA:1,0,_ZNSt3__16__math7signbitB8ne200100IvEEbd
FNL:2,75,76
FNA:2,0,_ZNSt3__16__math8isfiniteB8ne200100Ed
FNF:3
FNH:0
DA:45,0
DA:46,0
DA:75,0
DA:76,0
DA:123,0
DA:124,0
LF:6
LH:0
end_of_record
TN:
SF:/Library/Developer/CommandLineTools/SDKs/MacOSX.sdk/usr/include/c++/v1/__memory/allocate_at_least.h
FNL:0,40,41
FNA:0,4,_ZNSt3__119__allocate_at_leastB8ne200100INS_9allocatorIN4dbal11FilterGroupEEEEENS_19__allocation_resultINS_16allocator_traitsIT_E7pointerEEERS7_m
FNA:0,4,_ZNSt3__119__allocate_at_leastB8ne200100INS_9allocatorIN4dbal13AggregateSpecEEEEENS_19__allocation_resultINS_16allocator_traitsIT_E7pointerEEERS7_m
FNA:0,46,_ZNSt3__119__allocate_at_leastB8ne200100INS_9allocatorIN4dbal15FilterConditionEEEEENS_19__allocation_resultINS_16allocator_traitsIT_E7pointerEEERS7_m
FNA:0,690,_ZNSt3__119__allocate_at_leastB8ne200100INS_9allocatorIN4dbal4core11EntityFieldEEEEENS_19__allocation_resultINS_16allocator_traitsIT_E7pointerEEERS8_m
FNA:0,543,_ZNSt3__119__allocate_at_leastB8ne200100INS_9allocatorIN4dbal4core11EntityIndexEEEEENS_19__allocation_resultINS_16allocator_traitsIT_E7pointerEEERS8_m
FNA:0,0,_ZNSt3__119__allocate_at_leastB8ne200100INS_9allocatorIN4dbal4core11RelationDefEEEEENS_19__allocation_resultINS_16allocator_traitsIT_E7pointerEEERS8_m
FNA:0,0,_ZNSt3__119__allocate_at_leastB8ne200100INS_9allocatorIN4dbal4core23CompensatingTransaction6UndoOpEEEEENS_19__allocation_resultINS_16allocator_traitsIT_E7pointerEEERS9_m
FNA:0,930,_ZNSt3__119__allocate_at_leastB8ne200100INS_9allocatorIN4dbal8adapters11EntityFieldEEEEENS_19__allocation_resultINS_16allocator_traitsIT_E7pointerEEERS8_m
FNA:0,0,_ZNSt3__119__allocate_at_leastB8ne200100INS_9allocatorIN4dbal8adapters11RelationDefEEEEENS_19__allocation_resultINS_16allocator_traitsIT_E7pointerEEERS8_m
FNA:0,815,_ZNSt3__119__allocate_at_leastB8ne200100INS_9allocatorIN4dbal8adapters15FieldDefinitionEEEEENS_19__allocation_resultINS_16allocator_traitsIT_E7pointerEEERS8_m
FNA:0,326,_ZNSt3__119__allocate_at_leastB8ne200100INS_9allocatorIN4dbal8adapters15IndexDefinitionEEEEENS_19__allocation_resultINS_16allocator_traitsIT_E7pointerEEERS8_m
FNA:0,163,_ZNSt3__119__allocate_at_leastB8ne200100INS_9allocatorIN4dbal8adapters16EntityDefinitionEEEEENS_19__allocation_resultINS_16allocator_traitsIT_E7pointerEEERS8_m
FNA:0,0,_ZNSt3__119__allocate_at_leastB8ne200100INS_9allocatorIN4dbal8adapters18RelationDefinitionEEEEENS_19__allocation_resultINS_16allocator_traitsIT_E7pointerEEERS8_m
FNA:0,706,_ZNSt3__119__allocate_at_leastB8ne200100INS_9allocatorIN4dbal8adapters3sql6SqlRowEEEEENS_19__allocation_resultINS_16allocator_traitsIT_E7pointerEEERS9_m
FNA:0,2257,_ZNSt3__119__allocate_at_leastB8ne200100INS_9allocatorIN4dbal8adapters3sql8SqlParamEEEEENS_19__allocation_resultINS_16allocator_traitsIT_E7pointerEEERS9_m
FNA:0,14428,_ZNSt3__119__allocate_at_leastB8ne200100INS_9allocatorIN8nlohmann16json_abi_v3_11_310basic_jsonINS_3mapENS_6vectorENS_12basic_stringIcNS_11char_traitsIcEENS1_IcEEEEbxydS1_NS3_14adl_serializerENS6_IhNS1_IhEEEEvEEEEEENS_19__allocation_resultINS_16allocator_traitsIT_E7pointerEEERSJ_m
FNA:0,3180,_ZNSt3__119__allocate_at_leastB8ne200100INS_9allocatorINS_10shared_ptrIN4inja14ExpressionNodeEEEEEEENS_19__allocation_resultINS_16allocator_traitsIT_E7pointerEEERS9_m
FNA:0,2544,_ZNSt3__119__allocate_at_leastB8ne200100INS_9allocatorINS_10shared_ptrIN4inja7AstNodeEEEEEEENS_19__allocation_resultINS_16allocator_traitsIT_E7pointerEEERS9_m
FNA:0,848,_ZNSt3__119__allocate_at_leastB8ne200100INS_9allocatorINS_10shared_ptrIN8nlohmann16json_abi_v3_11_310basic_jsonINS_3mapENS_6vectorENS_12basic_stringIcNS_11char_traitsIcEENS1_IcEEEEbxydS1_NS4_14adl_serializerENS7_IhNS1_IhEEEEvEEEEEEEENS_19__allocation_resultINS_16allocator_traitsIT_E7pointerEEERSL_m
FNA:0,228,_ZNSt3__119__allocate_at_leastB8ne200100INS_9allocatorINS_10unique_ptrIN4dbal8adapters3sql13SqlConnectionENS_14default_deleteIS6_EEEEEEEENS_19__allocation_resultINS_16allocator_traitsIT_E7pointerEEERSD_m
FNA:0,17112,_ZNSt3__119__allocate_at_leastB8ne200100INS_9allocatorINS_12basic_stringIcNS_11char_traitsIcEENS1_IcEEEEEEEENS_19__allocation_resultINS_16allocator_traitsIT_E7pointerEEERSA_m
FNA:0,0,_ZNSt3__119__allocate_at_leastB8ne200100INS_9allocatorINS_4pairINS_12basic_stringIcNS_11char_traitsIcEENS1_IcEEEES7_EEEEEENS_19__allocation_resultINS_16allocator_traitsIT_E7pointerEEERSC_m
FNA:0,0,_ZNSt3__119__allocate_at_leastB8ne200100INS_9allocatorINS_4pairIccEEEEEENS_19__allocation_resultINS_16allocator_traitsIT_E7pointerEEERS7_m
FNA:0,0,_ZNSt3__119__allocate_at_leastB8ne200100INS_9allocatorINS_4pairImPKcEEEEEENS_19__allocation_resultINS_16allocator_traitsIT_E7pointerEEERS9_m
FNA:0,4,_ZNSt3__119__allocate_at_leastB8ne200100INS_9allocatorINS_6threadEEEEENS_19__allocation_resultINS_16allocator_traitsIT_E7pointerEEERS6_m
FNA:0,0,_ZNSt3__119__allocate_at_leastB8ne200100INS_9allocatorINS_7__stateIcEEEEEENS_19__allocation_resultINS_16allocator_traitsIT_E7pointerEEERS7_m
FNA:0,0,_ZNSt3__119__allocate_at_leastB8ne200100INS_9allocatorINS_9sub_matchINS_11__wrap_iterIPKcEEEEEEEENS_19__allocation_resultINS_16allocator_traitsIT_E7pointerEEERSB_m
FNA:0,0,_ZNSt3__119__allocate_at_leastB8ne200100INS_9allocatorINS_9sub_matchIPKcEEEEEENS_19__allocation_resultINS_16allocator_traitsIT_E7pointerEEERS9_m
FNA:0,0,_ZNSt3__119__allocate_at_leastB8ne200100INS_9allocatorIPKN4inja18BlockStatementNodeEEEEENS_19__allocation_resultINS_16allocator_traitsIT_E7pointerEEERS9_m
FNA:0,212,_ZNSt3__119__allocate_at_leastB8ne200100INS_9allocatorIPKN4inja8TemplateEEEEENS_19__allocation_resultINS_16allocator_traitsIT_E7pointerEEERS9_m
FNA:0,0,_ZNSt3__119__allocate_at_leastB8ne200100INS_9allocatorIPKN8nlohmann16json_abi_v3_11_310basic_jsonINS_3mapENS_6vectorENS_12basic_stringIcNS_11char_traitsIcEENS1_IcEEEEbxydS1_NS3_14adl_serializerENS6_IhNS1_IhEEEEvEEEEEENS_19__allocation_resultINS_16allocator_traitsIT_E7pointerEEERSL_m
FNA:0,337,_ZNSt3__119__allocate_at_leastB8ne200100INS_9allocatorIPKcEEEENS_19__allocation_resultINS_16allocator_traitsIT_E7pointerEEERS7_m
FNA:0,491,_ZNSt3__119__allocate_at_leastB8ne200100INS_9allocatorIPN8nlohmann16json_abi_v3_11_310basic_jsonINS_3mapENS_6vectorENS_12basic_stringIcNS_11char_traitsIcEENS1_IcEEEEbxydS1_NS3_14adl_serializerENS6_IhNS1_IhEEEEvEEEEEENS_19__allocation_resultINS_16allocator_traitsIT_E7pointerEEERSK_m
FNA:0,424,_ZNSt3__119__allocate_at_leastB8ne200100INS_9allocatorIPNS_10shared_ptrIN4inja12FunctionNodeEEEEEEENS_19__allocation_resultINS_16allocator_traitsIT_E7pointerEEERSA_m
FNA:0,0,_ZNSt3__119__allocate_at_leastB8ne200100INS_9allocatorIPNS_10unique_ptrIN4dbal8adapters3sql13SqlConnectionENS_14default_deleteIS6_EEEEEEEENS_19__allocation_resultINS_16allocator_traitsIT_E7pointerEEERSE_m
FNA:0,0,_ZNSt3__119__allocate_at_leastB8ne200100INS_9allocatorIPNS_7__stateIcEEEEEENS_19__allocation_resultINS_16allocator_traitsIT_E7pointerEEERS8_m
FNA:0,0,_ZNSt3__119__allocate_at_leastB8ne200100INS_9allocatorIPPKN4inja8DataNodeEEEEENS_19__allocation_resultINS_16allocator_traitsIT_E7pointerEEERSA_m
FNA:0,212,_ZNSt3__119__allocate_at_leastB8ne200100INS_9allocatorIPPKN8nlohmann16json_abi_v3_11_310basic_jsonINS_3mapENS_6vectorENS_12basic_stringIcNS_11char_traitsIcEENS1_IcEEEEbxydS1_NS3_14adl_serializerENS6_IhNS1_IhEEEEvEEEEEENS_19__allocation_resultINS_16allocator_traitsIT_E7pointerEEERSM_m
FNA:0,212,_ZNSt3__119__allocate_at_leastB8ne200100INS_9allocatorIPPN4inja15IfStatementNodeEEEEENS_19__allocation_resultINS_16allocator_traitsIT_E7pointerEEERS9_m
FNA:0,212,_ZNSt3__119__allocate_at_leastB8ne200100INS_9allocatorIPPN4inja16ForStatementNodeEEEEENS_19__allocation_resultINS_16allocator_traitsIT_E7pointerEEERS9_m
FNA:0,0,_ZNSt3__119__allocate_at_leastB8ne200100INS_9allocatorIPPN4inja18BlockStatementNodeEEEEENS_19__allocation_resultINS_16allocator_traitsIT_E7pointerEEERS9_m
FNA:0,1589,_ZNSt3__119__allocate_at_leastB8ne200100INS_9allocatorIcEEEENS_19__allocation_resultINS_16allocator_traitsIT_E7pointerEEERS5_m
FNA:0,0,_ZNSt3__119__allocate_at_leastB8ne200100INS_9allocatorIhEEEENS_19__allocation_resultINS_16allocator_traitsIT_E7pointerEEERS5_m
FNA:0,22,_ZNSt3__119__allocate_at_leastB8ne200100INS_9allocatorIiEEEENS_19__allocation_resultINS_16allocator_traitsIT_E7pointerEEERS5_m
FNA:0,165,_ZNSt3__119__allocate_at_leastB8ne200100INS_9allocatorImEEEENS_19__allocation_resultINS_16allocator_traitsIT_E7pointerEEERS5_m
FNF:1
FNH:1
DA:40,48704
DA:41,48704
LF:2
LH:2
end_of_record
TN:
SF:/Library/Developer/CommandLineTools/SDKs/MacOSX.sdk/usr/include/c++/v1/__memory/allocation_guard.h
FNL:0,52,56
FNA:0,106,_ZNSt3__118__allocation_guardINS_9allocatorINS_20__shared_ptr_emplaceIN4inja11LiteralNodeENS1_IS4_EEEEEEEC1B8ne200100IS5_EET_m
FNA:0,106,_ZNSt3__118__allocation_guardINS_9allocatorINS_20__shared_ptr_emplaceIN4inja11LiteralNodeENS1_IS4_EEEEEEEC2B8ne200100IS5_EET_m
FNA:0,742,_ZNSt3__118__allocation_guardINS_9allocatorINS_20__shared_ptr_emplaceIN4inja12FunctionNodeENS1_IS4_EEEEEEEC1B8ne200100IS5_EET_m
FNA:0,742,_ZNSt3__118__allocation_guardINS_9allocatorINS_20__shared_ptr_emplaceIN4inja12FunctionNodeENS1_IS4_EEEEEEEC2B8ne200100IS5_EET_m
FNA:0,636,_ZNSt3__118__allocation_guardINS_9allocatorINS_20__shared_ptr_emplaceIN4inja15IfStatementNodeENS1_IS4_EEEEEEEC1B8ne200100IS5_EET_m
FNA:0,636,_ZNSt3__118__allocation_guardINS_9allocatorINS_20__shared_ptr_emplaceIN4inja15IfStatementNodeENS1_IS4_EEEEEEEC2B8ne200100IS5_EET_m
FNA:0,0,_ZNSt3__118__allocation_guardINS_9allocatorINS_20__shared_ptr_emplaceIN4inja16SetStatementNodeENS1_IS4_EEEEEEEC1B8ne200100IS5_EET_m
FNA:0,0,_ZNSt3__118__allocation_guardINS_9allocatorINS_20__shared_ptr_emplaceIN4inja16SetStatementNodeENS1_IS4_EEEEEEEC2B8ne200100IS5_EET_m
FNA:0,0,_ZNSt3__118__allocation_guardINS_9allocatorINS_20__shared_ptr_emplaceIN4inja18BlockStatementNodeENS1_IS4_EEEEEEEC1B8ne200100IS5_EET_m
FNA:0,0,_ZNSt3__118__allocation_guardINS_9allocatorINS_20__shared_ptr_emplaceIN4inja18BlockStatementNodeENS1_IS4_EEEEEEEC2B8ne200100IS5_EET_m
FNA:0,848,_ZNSt3__118__allocation_guardINS_9allocatorINS_20__shared_ptr_emplaceIN4inja18ExpressionListNodeENS1_IS4_EEEEEEEC1B8ne200100IS5_EET_m
FNA:0,848,_ZNSt3__118__allocation_guardINS_9allocatorINS_20__shared_ptr_emplaceIN4inja18ExpressionListNodeENS1_IS4_EEEEEEEC2B8ne200100IS5_EET_m
FNA:0,0,_ZNSt3__118__allocation_guardINS_9allocatorINS_20__shared_ptr_emplaceIN4inja20ExtendsStatementNodeENS1_IS4_EEEEEEEC1B8ne200100IS5_EET_m
FNA:0,0,_ZNSt3__118__allocation_guardINS_9allocatorINS_20__shared_ptr_emplaceIN4inja20ExtendsStatementNodeENS1_IS4_EEEEEEEC2B8ne200100IS5_EET_m
FNA:0,0,_ZNSt3__118__allocation_guardINS_9allocatorINS_20__shared_ptr_emplaceIN4inja20IncludeStatementNodeENS1_IS4_EEEEEEEC1B8ne200100IS5_EET_m
FNA:0,0,_ZNSt3__118__allocation_guardINS_9allocatorINS_20__shared_ptr_emplaceIN4inja20IncludeStatementNodeENS1_IS4_EEEEEEEC2B8ne200100IS5_EET_m
FNA:0,212,_ZNSt3__118__allocation_guardINS_9allocatorINS_20__shared_ptr_emplaceIN4inja21ForArrayStatementNodeENS1_IS4_EEEEEEEC1B8ne200100IS5_EET_m
FNA:0,212,_ZNSt3__118__allocation_guardINS_9allocatorINS_20__shared_ptr_emplaceIN4inja21ForArrayStatementNodeENS1_IS4_EEEEEEEC2B8ne200100IS5_EET_m
FNA:0,0,_ZNSt3__118__allocation_guardINS_9allocatorINS_20__shared_ptr_emplaceIN4inja22ForObjectStatementNodeENS1_IS4_EEEEEEEC1B8ne200100IS5_EET_m
FNA:0,0,_ZNSt3__118__allocation_guardINS_9allocatorINS_20__shared_ptr_emplaceIN4inja22ForObjectStatementNodeENS1_IS4_EEEEEEEC2B8ne200100IS5_EET_m
FNA:0,1908,_ZNSt3__118__allocation_guardINS_9allocatorINS_20__shared_ptr_emplaceIN4inja8DataNodeENS1_IS4_EEEEEEEC1B8ne200100IS5_EET_m
FNA:0,1908,_ZNSt3__118__allocation_guardINS_9allocatorINS_20__shared_ptr_emplaceIN4inja8DataNodeENS1_IS4_EEEEEEEC2B8ne200100IS5_EET_m
FNA:0,1908,_ZNSt3__118__allocation_guardINS_9allocatorINS_20__shared_ptr_emplaceIN4inja8TextNodeENS1_IS4_EEEEEEEC1B8ne200100IS5_EET_m
FNA:0,1908,_ZNSt3__118__allocation_guardINS_9allocatorINS_20__shared_ptr_emplaceIN4inja8TextNodeENS1_IS4_EEEEEEEC2B8ne200100IS5_EET_m
FNA:0,9858,_ZNSt3__118__allocation_guardINS_9allocatorINS_20__shared_ptr_emplaceIN8nlohmann16json_abi_v3_11_310basic_jsonINS_3mapENS_6vectorENS_12basic_stringIcNS_11char_traitsIcEENS1_IcEEEEbxydS1_NS4_14adl_serializerENS7_IhNS1_IhEEEEvEENS1_ISG_EEEEEEEC1B8ne200100ISH_EET_m
FNA:0,9858,_ZNSt3__118__allocation_guardINS_9allocatorINS_20__shared_ptr_emplaceIN8nlohmann16json_abi_v3_11_310basic_jsonINS_3mapENS_6vectorENS_12basic_stringIcNS_11char_traitsIcEENS1_IcEEEEbxydS1_NS4_14adl_serializerENS7_IhNS1_IhEEEEvEENS1_ISG_EEEEEEEC2B8ne200100ISH_EET_m
FNA:0,0,_ZNSt3__118__allocation_guardINS_9allocatorINS_20__shared_ptr_emplaceIN8nlohmann16json_abi_v3_11_36detail21output_string_adapterIcNS_12basic_stringIcNS_11char_traitsIcEENS1_IcEEEEEENS1_ISC_EEEEEEEC1B8ne200100ISD_EET_m
FNA:0,0,_ZNSt3__118__allocation_guardINS_9allocatorINS_20__shared_ptr_emplaceIN8nlohmann16json_abi_v3_11_36detail21output_string_adapterIcNS_12basic_stringIcNS_11char_traitsIcEENS1_IcEEEEEENS1_ISC_EEEEEEEC2B8ne200100ISD_EET_m
FNL:1,58,58
FNA:1,106,_ZNSt3__118__allocation_guardINS_9allocatorINS_20__shared_ptr_emplaceIN4inja11LiteralNodeENS1_IS4_EEEEEEED1B8ne200100Ev
FNA:1,106,_ZNSt3__118__allocation_guardINS_9allocatorINS_20__shared_ptr_emplaceIN4inja11LiteralNodeENS1_IS4_EEEEEEED2B8ne200100Ev
FNA:1,742,_ZNSt3__118__allocation_guardINS_9allocatorINS_20__shared_ptr_emplaceIN4inja12FunctionNodeENS1_IS4_EEEEEEED1B8ne200100Ev
FNA:1,742,_ZNSt3__118__allocation_guardINS_9allocatorINS_20__shared_ptr_emplaceIN4inja12FunctionNodeENS1_IS4_EEEEEEED2B8ne200100Ev
FNA:1,636,_ZNSt3__118__allocation_guardINS_9allocatorINS_20__shared_ptr_emplaceIN4inja15IfStatementNodeENS1_IS4_EEEEEEED1B8ne200100Ev
FNA:1,636,_ZNSt3__118__allocation_guardINS_9allocatorINS_20__shared_ptr_emplaceIN4inja15IfStatementNodeENS1_IS4_EEEEEEED2B8ne200100Ev
FNA:1,0,_ZNSt3__118__allocation_guardINS_9allocatorINS_20__shared_ptr_emplaceIN4inja16SetStatementNodeENS1_IS4_EEEEEEED1B8ne200100Ev
FNA:1,0,_ZNSt3__118__allocation_guardINS_9allocatorINS_20__shared_ptr_emplaceIN4inja16SetStatementNodeENS1_IS4_EEEEEEED2B8ne200100Ev
FNA:1,0,_ZNSt3__118__allocation_guardINS_9allocatorINS_20__shared_ptr_emplaceIN4inja18BlockStatementNodeENS1_IS4_EEEEEEED1B8ne200100Ev
FNA:1,0,_ZNSt3__118__allocation_guardINS_9allocatorINS_20__shared_ptr_emplaceIN4inja18BlockStatementNodeENS1_IS4_EEEEEEED2B8ne200100Ev
FNA:1,848,_ZNSt3__118__allocation_guardINS_9allocatorINS_20__shared_ptr_emplaceIN4inja18ExpressionListNodeENS1_IS4_EEEEEEED1B8ne200100Ev
FNA:1,848,_ZNSt3__118__allocation_guardINS_9allocatorINS_20__shared_ptr_emplaceIN4inja18ExpressionListNodeENS1_IS4_EEEEEEED2B8ne200100Ev
FNA:1,0,_ZNSt3__118__allocation_guardINS_9allocatorINS_20__shared_ptr_emplaceIN4inja20ExtendsStatementNodeENS1_IS4_EEEEEEED1B8ne200100Ev
FNA:1,0,_ZNSt3__118__allocation_guardINS_9allocatorINS_20__shared_ptr_emplaceIN4inja20ExtendsStatementNodeENS1_IS4_EEEEEEED2B8ne200100Ev
FNA:1,0,_ZNSt3__118__allocation_guardINS_9allocatorINS_20__shared_ptr_emplaceIN4inja20IncludeStatementNodeENS1_IS4_EEEEEEED1B8ne200100Ev
FNA:1,0,_ZNSt3__118__allocation_guardINS_9allocatorINS_20__shared_ptr_emplaceIN4inja20IncludeStatementNodeENS1_IS4_EEEEEEED2B8ne200100Ev
FNA:1,212,_ZNSt3__118__allocation_guardINS_9allocatorINS_20__shared_ptr_emplaceIN4inja21ForArrayStatementNodeENS1_IS4_EEEEEEED1B8ne200100Ev
FNA:1,212,_ZNSt3__118__allocation_guardINS_9allocatorINS_20__shared_ptr_emplaceIN4inja21ForArrayStatementNodeENS1_IS4_EEEEEEED2B8ne200100Ev
FNA:1,0,_ZNSt3__118__allocation_guardINS_9allocatorINS_20__shared_ptr_emplaceIN4inja22ForObjectStatementNodeENS1_IS4_EEEEEEED1B8ne200100Ev
FNA:1,0,_ZNSt3__118__allocation_guardINS_9allocatorINS_20__shared_ptr_emplaceIN4inja22ForObjectStatementNodeENS1_IS4_EEEEEEED2B8ne200100Ev
FNA:1,1908,_ZNSt3__118__allocation_guardINS_9allocatorINS_20__shared_ptr_emplaceIN4inja8DataNodeENS1_IS4_EEEEEEED1B8ne200100Ev
FNA:1,1908,_ZNSt3__118__allocation_guardINS_9allocatorINS_20__shared_ptr_emplaceIN4inja8DataNodeENS1_IS4_EEEEEEED2B8ne200100Ev
FNA:1,1908,_ZNSt3__118__allocation_guardINS_9allocatorINS_20__shared_ptr_emplaceIN4inja8TextNodeENS1_IS4_EEEEEEED1B8ne200100Ev
FNA:1,1908,_ZNSt3__118__allocation_guardINS_9allocatorINS_20__shared_ptr_emplaceIN4inja8TextNodeENS1_IS4_EEEEEEED2B8ne200100Ev
FNA:1,9858,_ZNSt3__118__allocation_guardINS_9allocatorINS_20__shared_ptr_emplaceIN8nlohmann16json_abi_v3_11_310basic_jsonINS_3mapENS_6vectorENS_12basic_stringIcNS_11char_traitsIcEENS1_IcEEEEbxydS1_NS4_14adl_serializerENS7_IhNS1_IhEEEEvEENS1_ISG_EEEEEEED1B8ne200100Ev
FNA:1,9858,_ZNSt3__118__allocation_guardINS_9allocatorINS_20__shared_ptr_emplaceIN8nlohmann16json_abi_v3_11_310basic_jsonINS_3mapENS_6vectorENS_12basic_stringIcNS_11char_traitsIcEENS1_IcEEEEbxydS1_NS4_14adl_serializerENS7_IhNS1_IhEEEEvEENS1_ISG_EEEEEEED2B8ne200100Ev
FNA:1,0,_ZNSt3__118__allocation_guardINS_9allocatorINS_20__shared_ptr_emplaceIN8nlohmann16json_abi_v3_11_36detail21output_string_adapterIcNS_12basic_stringIcNS_11char_traitsIcEENS1_IcEEEEEENS1_ISC_EEEEEEED1B8ne200100Ev
FNA:1,0,_ZNSt3__118__allocation_guardINS_9allocatorINS_20__shared_ptr_emplaceIN8nlohmann16json_abi_v3_11_36detail21output_string_adapterIcNS_12basic_stringIcNS_11char_traitsIcEENS1_IcEEEEEENS1_ISC_EEEEEEED2B8ne200100Ev
FNL:2,83,86
FNA:2,106,_ZNSt3__118__allocation_guardINS_9allocatorINS_20__shared_ptr_emplaceIN4inja11LiteralNodeENS1_IS4_EEEEEEE13__release_ptrB8ne200100Ev
FNA:2,742,_ZNSt3__118__allocation_guardINS_9allocatorINS_20__shared_ptr_emplaceIN4inja12FunctionNodeENS1_IS4_EEEEEEE13__release_ptrB8ne200100Ev
FNA:2,636,_ZNSt3__118__allocation_guardINS_9allocatorINS_20__shared_ptr_emplaceIN4inja15IfStatementNodeENS1_IS4_EEEEEEE13__release_ptrB8ne200100Ev
FNA:2,0,_ZNSt3__118__allocation_guardINS_9allocatorINS_20__shared_ptr_emplaceIN4inja16SetStatementNodeENS1_IS4_EEEEEEE13__release_ptrB8ne200100Ev
FNA:2,0,_ZNSt3__118__allocation_guardINS_9allocatorINS_20__shared_ptr_emplaceIN4inja18BlockStatementNodeENS1_IS4_EEEEEEE13__release_ptrB8ne200100Ev
FNA:2,848,_ZNSt3__118__allocation_guardINS_9allocatorINS_20__shared_ptr_emplaceIN4inja18ExpressionListNodeENS1_IS4_EEEEEEE13__release_ptrB8ne200100Ev
FNA:2,0,_ZNSt3__118__allocation_guardINS_9allocatorINS_20__shared_ptr_emplaceIN4inja20ExtendsStatementNodeENS1_IS4_EEEEEEE13__release_ptrB8ne200100Ev
FNA:2,0,_ZNSt3__118__allocation_guardINS_9allocatorINS_20__shared_ptr_emplaceIN4inja20IncludeStatementNodeENS1_IS4_EEEEEEE13__release_ptrB8ne200100Ev
FNA:2,212,_ZNSt3__118__allocation_guardINS_9allocatorINS_20__shared_ptr_emplaceIN4inja21ForArrayStatementNodeENS1_IS4_EEEEEEE13__release_ptrB8ne200100Ev
FNA:2,0,_ZNSt3__118__allocation_guardINS_9allocatorINS_20__shared_ptr_emplaceIN4inja22ForObjectStatementNodeENS1_IS4_EEEEEEE13__release_ptrB8ne200100Ev
FNA:2,1908,_ZNSt3__118__allocation_guardINS_9allocatorINS_20__shared_ptr_emplaceIN4inja8DataNodeENS1_IS4_EEEEEEE13__release_ptrB8ne200100Ev
FNA:2,1908,_ZNSt3__118__allocation_guardINS_9allocatorINS_20__shared_ptr_emplaceIN4inja8TextNodeENS1_IS4_EEEEEEE13__release_ptrB8ne200100Ev
FNA:2,9858,_ZNSt3__118__allocation_guardINS_9allocatorINS_20__shared_ptr_emplaceIN8nlohmann16json_abi_v3_11_310basic_jsonINS_3mapENS_6vectorENS_12basic_stringIcNS_11char_traitsIcEENS1_IcEEEEbxydS1_NS4_14adl_serializerENS7_IhNS1_IhEEEEvEENS1_ISG_EEEEEEE13__release_ptrB8ne200100Ev
FNA:2,0,_ZNSt3__118__allocation_guardINS_9allocatorINS_20__shared_ptr_emplaceIN8nlohmann16json_abi_v3_11_36detail21output_string_adapterIcNS_12basic_stringIcNS_11char_traitsIcEENS1_IcEEEEEENS1_ISC_EEEEEEE13__release_ptrB8ne200100Ev
FNL:3,89,89
FNA:3,106,_ZNKSt3__118__allocation_guardINS_9allocatorINS_20__shared_ptr_emplaceIN4inja11LiteralNodeENS1_IS4_EEEEEEE5__getB8ne200100Ev
FNA:3,742,_ZNKSt3__118__allocation_guardINS_9allocatorINS_20__shared_ptr_emplaceIN4inja12FunctionNodeENS1_IS4_EEEEEEE5__getB8ne200100Ev
FNA:3,636,_ZNKSt3__118__allocation_guardINS_9allocatorINS_20__shared_ptr_emplaceIN4inja15IfStatementNodeENS1_IS4_EEEEEEE5__getB8ne200100Ev
FNA:3,0,_ZNKSt3__118__allocation_guardINS_9allocatorINS_20__shared_ptr_emplaceIN4inja16SetStatementNodeENS1_IS4_EEEEEEE5__getB8ne200100Ev
FNA:3,0,_ZNKSt3__118__allocation_guardINS_9allocatorINS_20__shared_ptr_emplaceIN4inja18BlockStatementNodeENS1_IS4_EEEEEEE5__getB8ne200100Ev
FNA:3,848,_ZNKSt3__118__allocation_guardINS_9allocatorINS_20__shared_ptr_emplaceIN4inja18ExpressionListNodeENS1_IS4_EEEEEEE5__getB8ne200100Ev
FNA:3,0,_ZNKSt3__118__allocation_guardINS_9allocatorINS_20__shared_ptr_emplaceIN4inja20ExtendsStatementNodeENS1_IS4_EEEEEEE5__getB8ne200100Ev
FNA:3,0,_ZNKSt3__118__allocation_guardINS_9allocatorINS_20__shared_ptr_emplaceIN4inja20IncludeStatementNodeENS1_IS4_EEEEEEE5__getB8ne200100Ev
FNA:3,212,_ZNKSt3__118__allocation_guardINS_9allocatorINS_20__shared_ptr_emplaceIN4inja21ForArrayStatementNodeENS1_IS4_EEEEEEE5__getB8ne200100Ev
FNA:3,0,_ZNKSt3__118__allocation_guardINS_9allocatorINS_20__shared_ptr_emplaceIN4inja22ForObjectStatementNodeENS1_IS4_EEEEEEE5__getB8ne200100Ev
FNA:3,1908,_ZNKSt3__118__allocation_guardINS_9allocatorINS_20__shared_ptr_emplaceIN4inja8DataNodeENS1_IS4_EEEEEEE5__getB8ne200100Ev
FNA:3,1908,_ZNKSt3__118__allocation_guardINS_9allocatorINS_20__shared_ptr_emplaceIN4inja8TextNodeENS1_IS4_EEEEEEE5__getB8ne200100Ev
FNA:3,9858,_ZNKSt3__118__allocation_guardINS_9allocatorINS_20__shared_ptr_emplaceIN8nlohmann16json_abi_v3_11_310basic_jsonINS_3mapENS_6vectorENS_12basic_stringIcNS_11char_traitsIcEENS1_IcEEEEbxydS1_NS4_14adl_serializerENS7_IhNS1_IhEEEEvEENS1_ISG_EEEEEEE5__getB8ne200100Ev
FNA:3,0,_ZNKSt3__118__allocation_guardINS_9allocatorINS_20__shared_ptr_emplaceIN8nlohmann16json_abi_v3_11_36detail21output_string_adapterIcNS_12basic_stringIcNS_11char_traitsIcEENS1_IcEEEEEENS1_ISC_EEEEEEE5__getB8ne200100Ev
FNL:4,92,96
FNA:4,106,_ZNSt3__118__allocation_guardINS_9allocatorINS_20__shared_ptr_emplaceIN4inja11LiteralNodeENS1_IS4_EEEEEEE9__destroyB8ne200100Ev
FNA:4,742,_ZNSt3__118__allocation_guardINS_9allocatorINS_20__shared_ptr_emplaceIN4inja12FunctionNodeENS1_IS4_EEEEEEE9__destroyB8ne200100Ev
FNA:4,636,_ZNSt3__118__allocation_guardINS_9allocatorINS_20__shared_ptr_emplaceIN4inja15IfStatementNodeENS1_IS4_EEEEEEE9__destroyB8ne200100Ev
FNA:4,0,_ZNSt3__118__allocation_guardINS_9allocatorINS_20__shared_ptr_emplaceIN4inja16SetStatementNodeENS1_IS4_EEEEEEE9__destroyB8ne200100Ev
FNA:4,0,_ZNSt3__118__allocation_guardINS_9allocatorINS_20__shared_ptr_emplaceIN4inja18BlockStatementNodeENS1_IS4_EEEEEEE9__destroyB8ne200100Ev
FNA:4,848,_ZNSt3__118__allocation_guardINS_9allocatorINS_20__shared_ptr_emplaceIN4inja18ExpressionListNodeENS1_IS4_EEEEEEE9__destroyB8ne200100Ev
FNA:4,0,_ZNSt3__118__allocation_guardINS_9allocatorINS_20__shared_ptr_emplaceIN4inja20ExtendsStatementNodeENS1_IS4_EEEEEEE9__destroyB8ne200100Ev
FNA:4,0,_ZNSt3__118__allocation_guardINS_9allocatorINS_20__shared_ptr_emplaceIN4inja20IncludeStatementNodeENS1_IS4_EEEEEEE9__destroyB8ne200100Ev
FNA:4,212,_ZNSt3__118__allocation_guardINS_9allocatorINS_20__shared_ptr_emplaceIN4inja21ForArrayStatementNodeENS1_IS4_EEEEEEE9__destroyB8ne200100Ev
FNA:4,0,_ZNSt3__118__allocation_guardINS_9allocatorINS_20__shared_ptr_emplaceIN4inja22ForObjectStatementNodeENS1_IS4_EEEEEEE9__destroyB8ne200100Ev
FNA:4,1908,_ZNSt3__118__allocation_guardINS_9allocatorINS_20__shared_ptr_emplaceIN4inja8DataNodeENS1_IS4_EEEEEEE9__destroyB8ne200100Ev
FNA:4,1908,_ZNSt3__118__allocation_guardINS_9allocatorINS_20__shared_ptr_emplaceIN4inja8TextNodeENS1_IS4_EEEEEEE9__destroyB8ne200100Ev
FNA:4,9858,_ZNSt3__118__allocation_guardINS_9allocatorINS_20__shared_ptr_emplaceIN8nlohmann16json_abi_v3_11_310basic_jsonINS_3mapENS_6vectorENS_12basic_stringIcNS_11char_traitsIcEENS1_IcEEEEbxydS1_NS4_14adl_serializerENS7_IhNS1_IhEEEEvEENS1_ISG_EEEEEEE9__destroyB8ne200100Ev
FNA:4,0,_ZNSt3__118__allocation_guardINS_9allocatorINS_20__shared_ptr_emplaceIN8nlohmann16json_abi_v3_11_36detail21output_string_adapterIcNS_12basic_stringIcNS_11char_traitsIcEENS1_IcEEEEEENS1_ISC_EEEEEEE9__destroyB8ne200100Ev
FNF:5
FNH:5
DA:52,32436
DA:53,16218
DA:54,16218
DA:55,16218
DA:56,32436
DA:58,32436
DA:83,16218
DA:84,16218
DA:85,16218
DA:86,16218
DA:89,16218
DA:92,16218
DA:93,16218
DA:94,0
DA:95,0
DA:96,16218
LF:16
LH:14
end_of_record
TN:
SF:/Library/Developer/CommandLineTools/SDKs/MacOSX.sdk/usr/include/c++/v1/__memory/allocator.h
FNL:0,116,122
FNA:0,4,_ZNSt3__19allocatorIN4dbal11FilterGroupEE10deallocateB8ne200100EPS2_m
FNA:0,4,_ZNSt3__19allocatorIN4dbal13AggregateSpecEE10deallocateB8ne200100EPS2_m
FNA:0,46,_ZNSt3__19allocatorIN4dbal15FilterConditionEE10deallocateB8ne200100EPS2_m
FNA:0,690,_ZNSt3__19allocatorIN4dbal4core11EntityFieldEE10deallocateB8ne200100EPS3_m
FNA:0,543,_ZNSt3__19allocatorIN4dbal4core11EntityIndexEE10deallocateB8ne200100EPS3_m
FNA:0,0,_ZNSt3__19allocatorIN4dbal4core11RelationDefEE10deallocateB8ne200100EPS3_m
FNA:0,0,_ZNSt3__19allocatorIN4dbal4core23CompensatingTransaction6UndoOpEE10deallocateB8ne200100EPS4_m
FNA:0,930,_ZNSt3__19allocatorIN4dbal8adapters11EntityFieldEE10deallocateB8ne200100EPS3_m
FNA:0,0,_ZNSt3__19allocatorIN4dbal8adapters11RelationDefEE10deallocateB8ne200100EPS3_m
FNA:0,815,_ZNSt3__19allocatorIN4dbal8adapters15FieldDefinitionEE10deallocateB8ne200100EPS3_m
FNA:0,326,_ZNSt3__19allocatorIN4dbal8adapters15IndexDefinitionEE10deallocateB8ne200100EPS3_m
FNA:0,163,_ZNSt3__19allocatorIN4dbal8adapters16EntityDefinitionEE10deallocateB8ne200100EPS3_m
FNA:0,0,_ZNSt3__19allocatorIN4dbal8adapters18RelationDefinitionEE10deallocateB8ne200100EPS3_m
FNA:0,706,_ZNSt3__19allocatorIN4dbal8adapters3sql6SqlRowEE10deallocateB8ne200100EPS4_m
FNA:0,2257,_ZNSt3__19allocatorIN4dbal8adapters3sql8SqlParamEE10deallocateB8ne200100EPS4_m
FNA:0,14428,_ZNSt3__19allocatorIN8nlohmann16json_abi_v3_11_310basic_jsonINS_3mapENS_6vectorENS_12basic_stringIcNS_11char_traitsIcEENS0_IcEEEEbxydS0_NS2_14adl_serializerENS5_IhNS0_IhEEEEvEEE10deallocateB8ne200100EPSE_m
FNA:0,0,_ZNSt3__19allocatorIN8nlohmann16json_abi_v3_11_327byte_container_with_subtypeINS_6vectorIhNS0_IhEEEEEEE10deallocateB8ne200100EPS7_m
FNA:0,424,_ZNSt3__19allocatorINS_10shared_ptrIN4inja12FunctionNodeEEEE10deallocateB8ne200100EPS4_m
FNA:0,3180,_ZNSt3__19allocatorINS_10shared_ptrIN4inja14ExpressionNodeEEEE10deallocateB8ne200100EPS4_m
FNA:0,2544,_ZNSt3__19allocatorINS_10shared_ptrIN4inja7AstNodeEEEE10deallocateB8ne200100EPS4_m
FNA:0,848,_ZNSt3__19allocatorINS_10shared_ptrIN8nlohmann16json_abi_v3_11_310basic_jsonINS_3mapENS_6vectorENS_12basic_stringIcNS_11char_traitsIcEENS0_IcEEEEbxydS0_NS3_14adl_serializerENS6_IhNS0_IhEEEEvEEEEE10deallocateB8ne200100EPSG_m
FNA:0,228,_ZNSt3__19allocatorINS_10unique_ptrIN4dbal8adapters3sql13SqlConnectionENS_14default_deleteIS5_EEEEE10deallocateB8ne200100EPS8_m
FNA:0,245,_ZNSt3__19allocatorINS_11__hash_nodeINS_12basic_stringIcNS_11char_traitsIcEENS0_IcEEEEPvEEE10deallocateB8ne200100EPS8_m
FNA:0,49,_ZNSt3__19allocatorINS_11__hash_nodeINS_17__hash_value_typeINS_12basic_stringIcNS_11char_traitsIcEENS0_IcEEEEN4dbal4core12EntitySchemaEEEPvEEE10deallocateB8ne200100EPSD_m
FNA:0,114,_ZNSt3__19allocatorINS_11__hash_nodeINS_17__hash_value_typeINS_12basic_stringIcNS_11char_traitsIcEENS0_IcEEEEN4dbal8adapters12EntitySchemaEEEPvEEE10deallocateB8ne200100EPSD_m
FNA:0,0,_ZNSt3__19allocatorINS_11__tree_nodeINS_12__value_typeINS_12basic_stringIcNS_11char_traitsIcEENS0_IcEEEEN4dbal4core10CacheEntryIN8nlohmann16json_abi_v3_11_310basic_jsonINS_3mapENS_6vectorES7_bxydS0_NSC_14adl_serializerENSF_IhNS0_IhEEEEvEEEEEEPvEEE10deallocateB8ne200100EPSN_m
FNA:0,0,_ZNSt3__19allocatorINS_11__tree_nodeINS_12__value_typeINS_12basic_stringIcNS_11char_traitsIcEENS0_IcEEEEN4dbal4core12EntitySchemaEEEPvEEE10deallocateB8ne200100EPSD_m
FNA:0,0,_ZNSt3__19allocatorINS_11__tree_nodeINS_12__value_typeINS_12basic_stringIcNS_11char_traitsIcEENS0_IcEEEEN4inja8TemplateEEEPvEEE10deallocateB8ne200100EPSC_m
FNA:0,80660,_ZNSt3__19allocatorINS_11__tree_nodeINS_12__value_typeINS_12basic_stringIcNS_11char_traitsIcEENS0_IcEEEEN8nlohmann16json_abi_v3_11_310basic_jsonINS_3mapENS_6vectorES7_bxydS0_NS9_14adl_serializerENSC_IhNS0_IhEEEEvEEEEPvEEE10deallocateB8ne200100EPSJ_m
FNA:0,0,_ZNSt3__19allocatorINS_11__tree_nodeINS_12__value_typeINS_12basic_stringIcNS_11char_traitsIcEENS0_IcEEEENS_10shared_ptrIN4inja18BlockStatementNodeEEEEEPvEEE10deallocateB8ne200100EPSE_m
FNA:0,4739,_ZNSt3__19allocatorINS_11__tree_nodeINS_12__value_typeINS_12basic_stringIcNS_11char_traitsIcEENS0_IcEEEES7_EEPvEEE10deallocateB8ne200100EPSA_m
FNA:0,0,_ZNSt3__19allocatorINS_11__tree_nodeINS_12__value_typeINS_12basic_stringIcNS_11char_traitsIcEENS0_IcEEEEbEEPvEEE10deallocateB8ne200100EPSA_m
FNA:0,3286,_ZNSt3__19allocatorINS_11__tree_nodeINS_12__value_typeINS_4pairINS_12basic_stringIcNS_11char_traitsIcEENS0_IcEEEEiEEN4inja15FunctionStorage12FunctionDataEEEPvEEE10deallocateB8ne200100EPSF_m
FNA:0,742,_ZNSt3__19allocatorINS_11__tree_nodeINS_12basic_stringIcNS_11char_traitsIcEENS0_IcEEEEPvEEE10deallocateB8ne200100EPS8_m
FNA:0,59041,_ZNSt3__19allocatorINS_12basic_stringIcNS_11char_traitsIcEENS0_IcEEEEE10deallocateB8ne200100EPS5_m
FNA:0,106,_ZNSt3__19allocatorINS_20__shared_ptr_emplaceIN4inja11LiteralNodeENS0_IS3_EEEEE10deallocateB8ne200100EPS5_m
FNA:0,742,_ZNSt3__19allocatorINS_20__shared_ptr_emplaceIN4inja12FunctionNodeENS0_IS3_EEEEE10deallocateB8ne200100EPS5_m
FNA:0,636,_ZNSt3__19allocatorINS_20__shared_ptr_emplaceIN4inja15IfStatementNodeENS0_IS3_EEEEE10deallocateB8ne200100EPS5_m
FNA:0,0,_ZNSt3__19allocatorINS_20__shared_ptr_emplaceIN4inja16SetStatementNodeENS0_IS3_EEEEE10deallocateB8ne200100EPS5_m
FNA:0,0,_ZNSt3__19allocatorINS_20__shared_ptr_emplaceIN4inja18BlockStatementNodeENS0_IS3_EEEEE10deallocateB8ne200100EPS5_m
FNA:0,848,_ZNSt3__19allocatorINS_20__shared_ptr_emplaceIN4inja18ExpressionListNodeENS0_IS3_EEEEE10deallocateB8ne200100EPS5_m
FNA:0,0,_ZNSt3__19allocatorINS_20__shared_ptr_emplaceIN4inja20ExtendsStatementNodeENS0_IS3_EEEEE10deallocateB8ne200100EPS5_m
FNA:0,0,_ZNSt3__19allocatorINS_20__shared_ptr_emplaceIN4inja20IncludeStatementNodeENS0_IS3_EEEEE10deallocateB8ne200100EPS5_m
FNA:0,212,_ZNSt3__19allocatorINS_20__shared_ptr_emplaceIN4inja21ForArrayStatementNodeENS0_IS3_EEEEE10deallocateB8ne200100EPS5_m
FNA:0,0,_ZNSt3__19allocatorINS_20__shared_ptr_emplaceIN4inja22ForObjectStatementNodeENS0_IS3_EEEEE10deallocateB8ne200100EPS5_m
FNA:0,1908,_ZNSt3__19allocatorINS_20__shared_ptr_emplaceIN4inja8DataNodeENS0_IS3_EEEEE10deallocateB8ne200100EPS5_m
FNA:0,1908,_ZNSt3__19allocatorINS_20__shared_ptr_emplaceIN4inja8TextNodeENS0_IS3_EEEEE10deallocateB8ne200100EPS5_m
FNA:0,9858,_ZNSt3__19allocatorINS_20__shared_ptr_emplaceIN8nlohmann16json_abi_v3_11_310basic_jsonINS_3mapENS_6vectorENS_12basic_stringIcNS_11char_traitsIcEENS0_IcEEEEbxydS0_NS3_14adl_serializerENS6_IhNS0_IhEEEEvEENS0_ISF_EEEEE10deallocateB8ne200100EPSH_m
FNA:0,0,_ZNSt3__19allocatorINS_20__shared_ptr_emplaceIN8nlohmann16json_abi_v3_11_36detail21output_string_adapterIcNS_12basic_stringIcNS_11char_traitsIcEENS0_IcEEEEEENS0_ISB_EEEEE10deallocateB8ne200100EPSD_m
FNA:0,0,_ZNSt3__19allocatorINS_20__shared_ptr_pointerIPNS_13__empty_stateIcEENS_10shared_ptrIS3_E27__shared_ptr_default_deleteIS3_S3_EENS0_IS3_EEEEE10deallocateB8ne200100EPSA_m
FNA:0,16101,_ZNSt3__19allocatorINS_3mapINS_12basic_stringIcNS_11char_traitsIcEENS0_IcEEEEN8nlohmann16json_abi_v3_11_310basic_jsonIS1_NS_6vectorES6_bxydS0_NS8_14adl_serializerENSA_IhNS0_IhEEEEvEENS_4lessIvEENS0_INS_4pairIKS6_SE_EEEEEEE10deallocateB8ne200100EPSL_m
FNA:0,0,_ZNSt3__19allocatorINS_4pairINS_12basic_stringIcNS_11char_traitsIcEENS0_IcEEEES6_EEE10deallocateB8ne200100EPS7_m
FNA:0,0,_ZNSt3__19allocatorINS_4pairIccEEE10deallocateB8ne200100EPS2_m
FNA:0,0,_ZNSt3__19allocatorINS_4pairImPKcEEE10deallocateB8ne200100EPS4_m
FNA:0,4,_ZNSt3__19allocatorINS_6threadEE10deallocateB8ne200100EPS1_m
FNA:0,3271,_ZNSt3__19allocatorINS_6vectorIN8nlohmann16json_abi_v3_11_310basic_jsonINS_3mapES1_NS_12basic_stringIcNS_11char_traitsIcEENS0_IcEEEEbxydS0_NS3_14adl_serializerENS1_IhNS0_IhEEEEvEENS0_ISE_EEEEE10deallocateB8ne200100EPSG_m
FNA:0,0,_ZNSt3__19allocatorINS_7__stateIcEEE10deallocateB8ne200100EPS2_m
FNA:0,0,_ZNSt3__19allocatorINS_9sub_matchINS_11__wrap_iterIPKcEEEEE10deallocateB8ne200100EPS6_m
FNA:0,0,_ZNSt3__19allocatorINS_9sub_matchIPKcEEE10deallocateB8ne200100EPS4_m
FNA:0,0,_ZNSt3__19allocatorIPKN4inja18BlockStatementNodeEE10deallocateB8ne200100EPS4_m
FNA:0,0,_ZNSt3__19allocatorIPKN4inja8DataNodeEE10deallocateB8ne200100EPS4_m
FNA:0,212,_ZNSt3__19allocatorIPKN4inja8TemplateEE10deallocateB8ne200100EPS4_m
FNA:0,212,_ZNSt3__19allocatorIPKN8nlohmann16json_abi_v3_11_310basic_jsonINS_3mapENS_6vectorENS_12basic_stringIcNS_11char_traitsIcEENS0_IcEEEEbxydS0_NS2_14adl_serializerENS5_IhNS0_IhEEEEvEEE10deallocateB8ne200100EPSG_m
FNA:0,337,_ZNSt3__19allocatorIPKcE10deallocateB8ne200100EPS2_m
FNA:0,212,_ZNSt3__19allocatorIPN4inja15IfStatementNodeEE10deallocateB8ne200100EPS3_m
FNA:0,212,_ZNSt3__19allocatorIPN4inja16ForStatementNodeEE10deallocateB8ne200100EPS3_m
FNA:0,0,_ZNSt3__19allocatorIPN4inja18BlockStatementNodeEE10deallocateB8ne200100EPS3_m
FNA:0,491,_ZNSt3__19allocatorIPN8nlohmann16json_abi_v3_11_310basic_jsonINS_3mapENS_6vectorENS_12basic_stringIcNS_11char_traitsIcEENS0_IcEEEEbxydS0_NS2_14adl_serializerENS5_IhNS0_IhEEEEvEEE10deallocateB8ne200100EPSF_m
FNA:0,424,_ZNSt3__19allocatorIPNS_10shared_ptrIN4inja12FunctionNodeEEEE10deallocateB8ne200100EPS5_m
FNA:0,0,_ZNSt3__19allocatorIPNS_10unique_ptrIN4dbal8adapters3sql13SqlConnectionENS_14default_deleteIS5_EEEEE10deallocateB8ne200100EPS9_m
FNA:0,105,_ZNSt3__19allocatorIPNS_16__hash_node_baseIPNS_11__hash_nodeINS_12basic_stringIcNS_11char_traitsIcEENS0_IcEEEEPvEEEEE10deallocateB8ne200100EPSC_m
FNA:0,49,_ZNSt3__19allocatorIPNS_16__hash_node_baseIPNS_11__hash_nodeINS_17__hash_value_typeINS_12basic_stringIcNS_11char_traitsIcEENS0_IcEEEEN4dbal4core12EntitySchemaEEEPvEEEEE10deallocateB8ne200100EPSH_m
FNA:0,57,_ZNSt3__19allocatorIPNS_16__hash_node_baseIPNS_11__hash_nodeINS_17__hash_value_typeINS_12basic_stringIcNS_11char_traitsIcEENS0_IcEEEEN4dbal8adapters12EntitySchemaEEEPvEEEEE10deallocateB8ne200100EPSH_m
FNA:0,0,_ZNSt3__19allocatorIPNS_7__stateIcEEE10deallocateB8ne200100EPS3_m
FNA:0,0,_ZNSt3__19allocatorIPPKN4inja8DataNodeEE10deallocateB8ne200100EPS5_m
FNA:0,212,_ZNSt3__19allocatorIPPKN8nlohmann16json_abi_v3_11_310basic_jsonINS_3mapENS_6vectorENS_12basic_stringIcNS_11char_traitsIcEENS0_IcEEEEbxydS0_NS2_14adl_serializerENS5_IhNS0_IhEEEEvEEE10deallocateB8ne200100EPSH_m
FNA:0,212,_ZNSt3__19allocatorIPPN4inja15IfStatementNodeEE10deallocateB8ne200100EPS4_m
FNA:0,212,_ZNSt3__19allocatorIPPN4inja16ForStatementNodeEE10deallocateB8ne200100EPS4_m
FNA:0,0,_ZNSt3__19allocatorIPPN4inja18BlockStatementNodeEE10deallocateB8ne200100EPS4_m
FNA:0,1695,_ZNSt3__19allocatorIcE10deallocateB8ne200100EPcm
FNA:0,0,_ZNSt3__19allocatorIhE10deallocateB8ne200100EPhm
FNA:0,18,_ZNSt3__19allocatorIiE10deallocateB8ne200100EPim
FNA:0,165,_ZNSt3__19allocatorImE10deallocateB8ne200100EPmm
FNL:1,71,71
FNA:1,64,_ZNSt3__116__non_trivial_ifILb1ENS_9allocatorIN4dbal11FilterGroupEEEEC2B8ne200100Ev
FNA:1,64,_ZNSt3__116__non_trivial_ifILb1ENS_9allocatorIN4dbal13AggregateSpecEEEEC2B8ne200100Ev
FNA:1,68,_ZNSt3__116__non_trivial_ifILb1ENS_9allocatorIN4dbal15FilterConditionEEEEC2B8ne200100Ev
FNA:1,98,_ZNSt3__116__non_trivial_ifILb1ENS_9allocatorIN4dbal4core11EntityFieldEEEEC2B8ne200100Ev
FNA:1,98,_ZNSt3__116__non_trivial_ifILb1ENS_9allocatorIN4dbal4core11EntityIndexEEEEC2B8ne200100Ev
FNA:1,98,_ZNSt3__116__non_trivial_ifILb1ENS_9allocatorIN4dbal4core11RelationDefEEEEC2B8ne200100Ev
FNA:1,0,_ZNSt3__116__non_trivial_ifILb1ENS_9allocatorIN4dbal4core23CompensatingTransaction6UndoOpEEEEC2B8ne200100Ev
FNA:1,174,_ZNSt3__116__non_trivial_ifILb1ENS_9allocatorIN4dbal8adapters11EntityFieldEEEEC2B8ne200100Ev
FNA:1,174,_ZNSt3__116__non_trivial_ifILb1ENS_9allocatorIN4dbal8adapters11RelationDefEEEEC2B8ne200100Ev
FNA:1,163,_ZNSt3__116__non_trivial_ifILb1ENS_9allocatorIN4dbal8adapters15FieldDefinitionEEEEC2B8ne200100Ev
FNA:1,163,_ZNSt3__116__non_trivial_ifILb1ENS_9allocatorIN4dbal8adapters15IndexDefinitionEEEEC2B8ne200100Ev
FNA:1,163,_ZNSt3__116__non_trivial_ifILb1ENS_9allocatorIN4dbal8adapters16EntityDefinitionEEEEC2B8ne200100Ev
FNA:1,163,_ZNSt3__116__non_trivial_ifILb1ENS_9allocatorIN4dbal8adapters18RelationDefinitionEEEEC2B8ne200100Ev
FNA:1,663,_ZNSt3__116__non_trivial_ifILb1ENS_9allocatorIN4dbal8adapters3sql6SqlRowEEEEC2B8ne200100Ev
FNA:1,968,_ZNSt3__116__non_trivial_ifILb1ENS_9allocatorIN4dbal8adapters3sql8SqlParamEEEEC2B8ne200100Ev
FNA:1,106,_ZNSt3__116__non_trivial_ifILb1ENS_9allocatorIN4inja11LiteralNodeEEEEC2B8ne200100Ev
FNA:1,742,_ZNSt3__116__non_trivial_ifILb1ENS_9allocatorIN4inja12FunctionNodeEEEEC2B8ne200100Ev
FNA:1,636,_ZNSt3__116__non_trivial_ifILb1ENS_9allocatorIN4inja15IfStatementNodeEEEEC2B8ne200100Ev
FNA:1,0,_ZNSt3__116__non_trivial_ifILb1ENS_9allocatorIN4inja16SetStatementNodeEEEEC2B8ne200100Ev
FNA:1,0,_ZNSt3__116__non_trivial_ifILb1ENS_9allocatorIN4inja18BlockStatementNodeEEEEC2B8ne200100Ev
FNA:1,848,_ZNSt3__116__non_trivial_ifILb1ENS_9allocatorIN4inja18ExpressionListNodeEEEEC2B8ne200100Ev
FNA:1,0,_ZNSt3__116__non_trivial_ifILb1ENS_9allocatorIN4inja20ExtendsStatementNodeEEEEC2B8ne200100Ev
FNA:1,0,_ZNSt3__116__non_trivial_ifILb1ENS_9allocatorIN4inja20IncludeStatementNodeEEEEC2B8ne200100Ev
FNA:1,212,_ZNSt3__116__non_trivial_ifILb1ENS_9allocatorIN4inja21ForArrayStatementNodeEEEEC2B8ne200100Ev
FNA:1,0,_ZNSt3__116__non_trivial_ifILb1ENS_9allocatorIN4inja22ForObjectStatementNodeEEEEC2B8ne200100Ev
FNA:1,1908,_ZNSt3__116__non_trivial_ifILb1ENS_9allocatorIN4inja8DataNodeEEEEC2B8ne200100Ev
FNA:1,1908,_ZNSt3__116__non_trivial_ifILb1ENS_9allocatorIN4inja8TextNodeEEEEC2B8ne200100Ev
FNA:1,30508,_ZNSt3__116__non_trivial_ifILb1ENS_9allocatorIN8nlohmann16json_abi_v3_11_310basic_jsonINS_3mapENS_6vectorENS_12basic_stringIcNS_11char_traitsIcEENS1_IcEEEEbxydS1_NS3_14adl_serializerENS6_IhNS1_IhEEEEvEEEEEC2B8ne200100Ev
FNA:1,0,_ZNSt3__116__non_trivial_ifILb1ENS_9allocatorIN8nlohmann16json_abi_v3_11_327byte_container_with_subtypeINS_6vectorIhNS1_IhEEEEEEEEEC2B8ne200100Ev
FNA:1,0,_ZNSt3__116__non_trivial_ifILb1ENS_9allocatorIN8nlohmann16json_abi_v3_11_36detail21output_string_adapterIcNS_12basic_stringIcNS_11char_traitsIcEENS1_IcEEEEEEEEEC2B8ne200100Ev
FNA:1,1908,_ZNSt3__116__non_trivial_ifILb1ENS_9allocatorINS_10shared_ptrIN4inja12FunctionNodeEEEEEEC2B8ne200100Ev
FNA:1,2650,_ZNSt3__116__non_trivial_ifILb1ENS_9allocatorINS_10shared_ptrIN4inja14ExpressionNodeEEEEEEC2B8ne200100Ev
FNA:1,1696,_ZNSt3__116__non_trivial_ifILb1ENS_9allocatorINS_10shared_ptrIN4inja7AstNodeEEEEEEC2B8ne200100Ev
FNA:1,212,_ZNSt3__116__non_trivial_ifILb1ENS_9allocatorINS_10shared_ptrIN8nlohmann16json_abi_v3_11_310basic_jsonINS_3mapENS_6vectorENS_12basic_stringIcNS_11char_traitsIcEENS1_IcEEEEbxydS1_NS4_14adl_serializerENS7_IhNS1_IhEEEEvEEEEEEEC2B8ne200100Ev
FNA:1,57,_ZNSt3__116__non_trivial_ifILb1ENS_9allocatorINS_10unique_ptrIN4dbal8adapters3sql13SqlConnectionENS_14default_deleteIS6_EEEEEEEC2B8ne200100Ev
FNA:1,42,_ZNSt3__116__non_trivial_ifILb1ENS_9allocatorINS_11__hash_nodeINS_12basic_stringIcNS_11char_traitsIcEENS1_IcEEEEPvEEEEEC2B8ne200100Ev
FNA:1,49,_ZNSt3__116__non_trivial_ifILb1ENS_9allocatorINS_11__hash_nodeINS_17__hash_value_typeINS_12basic_stringIcNS_11char_traitsIcEENS1_IcEEEEN4dbal4core12EntitySchemaEEEPvEEEEEC2B8ne200100Ev
FNA:1,57,_ZNSt3__116__non_trivial_ifILb1ENS_9allocatorINS_11__hash_nodeINS_17__hash_value_typeINS_12basic_stringIcNS_11char_traitsIcEENS1_IcEEEEN4dbal8adapters12EntitySchemaEEEPvEEEEEC2B8ne200100Ev
FNA:1,0,_ZNSt3__116__non_trivial_ifILb1ENS_9allocatorINS_11__tree_nodeINS_12__value_typeINS_12basic_stringIcNS_11char_traitsIcEENS1_IcEEEEN4dbal4core10CacheEntryIN8nlohmann16json_abi_v3_11_310basic_jsonINS_3mapENS_6vectorES8_bxydS1_NSD_14adl_serializerENSG_IhNS1_IhEEEEvEEEEEEPvEEEEEC2B8ne200100Ev
FNA:1,1,_ZNSt3__116__non_trivial_ifILb1ENS_9allocatorINS_11__tree_nodeINS_12__value_typeINS_12basic_stringIcNS_11char_traitsIcEENS1_IcEEEEN4dbal4core12EntitySchemaEEEPvEEEEEC2B8ne200100Ev
FNA:1,106,_ZNSt3__116__non_trivial_ifILb1ENS_9allocatorINS_11__tree_nodeINS_12__value_typeINS_12basic_stringIcNS_11char_traitsIcEENS1_IcEEEEN4inja8TemplateEEEPvEEEEEC2B8ne200100Ev
FNA:1,6051,_ZNSt3__116__non_trivial_ifILb1ENS_9allocatorINS_11__tree_nodeINS_12__value_typeINS_12basic_stringIcNS_11char_traitsIcEENS1_IcEEEEN8nlohmann16json_abi_v3_11_310basic_jsonINS_3mapENS_6vectorES8_bxydS1_NSA_14adl_serializerENSD_IhNS1_IhEEEEvEEEEPvEEEEEC2B8ne200100Ev
FNA:1,212,_ZNSt3__116__non_trivial_ifILb1ENS_9allocatorINS_11__tree_nodeINS_12__value_typeINS_12basic_stringIcNS_11char_traitsIcEENS1_IcEEEENS_10shared_ptrIN4inja18BlockStatementNodeEEEEEPvEEEEEC2B8ne200100Ev
FNA:1,1443,_ZNSt3__116__non_trivial_ifILb1ENS_9allocatorINS_11__tree_nodeINS_12__value_typeINS_12basic_stringIcNS_11char_traitsIcEENS1_IcEEEES8_EEPvEEEEEC2B8ne200100Ev
FNA:1,0,_ZNSt3__116__non_trivial_ifILb1ENS_9allocatorINS_11__tree_nodeINS_12__value_typeINS_12basic_stringIcNS_11char_traitsIcEENS1_IcEEEEbEEPvEEEEEC2B8ne200100Ev
FNA:1,106,_ZNSt3__116__non_trivial_ifILb1ENS_9allocatorINS_11__tree_nodeINS_12__value_typeINS_4pairINS_12basic_stringIcNS_11char_traitsIcEENS1_IcEEEEiEEN4inja15FunctionStorage12FunctionDataEEEPvEEEEEC2B8ne200100Ev
FNA:1,107,_ZNSt3__116__non_trivial_ifILb1ENS_9allocatorINS_11__tree_nodeINS_12basic_stringIcNS_11char_traitsIcEENS1_IcEEEEPvEEEEEC2B8ne200100Ev
FNA:1,94599,_ZNSt3__116__non_trivial_ifILb1ENS_9allocatorINS_12basic_stringIcNS_11char_traitsIcEENS1_IcEEEEEEEC2B8ne200100Ev
FNA:1,0,_ZNSt3__116__non_trivial_ifILb1ENS_9allocatorINS_13__empty_stateIcEEEEEC2B8ne200100Ev
FNA:1,212,_ZNSt3__116__non_trivial_ifILb1ENS_9allocatorINS_20__shared_ptr_emplaceIN4inja11LiteralNodeENS1_IS4_EEEEEEEC2B8ne200100Ev
FNA:1,1484,_ZNSt3__116__non_trivial_ifILb1ENS_9allocatorINS_20__shared_ptr_emplaceIN4inja12FunctionNodeENS1_IS4_EEEEEEEC2B8ne200100Ev
FNA:1,1272,_ZNSt3__116__non_trivial_ifILb1ENS_9allocatorINS_20__shared_ptr_emplaceIN4inja15IfStatementNodeENS1_IS4_EEEEEEEC2B8ne200100Ev
FNA:1,0,_ZNSt3__116__non_trivial_ifILb1ENS_9allocatorINS_20__shared_ptr_emplaceIN4inja16SetStatementNodeENS1_IS4_EEEEEEEC2B8ne200100Ev
FNA:1,0,_ZNSt3__116__non_trivial_ifILb1ENS_9allocatorINS_20__shared_ptr_emplaceIN4inja18BlockStatementNodeENS1_IS4_EEEEEEEC2B8ne200100Ev
FNA:1,1696,_ZNSt3__116__non_trivial_ifILb1ENS_9allocatorINS_20__shared_ptr_emplaceIN4inja18ExpressionListNodeENS1_IS4_EEEEEEEC2B8ne200100Ev
FNA:1,0,_ZNSt3__116__non_trivial_ifILb1ENS_9allocatorINS_20__shared_ptr_emplaceIN4inja20ExtendsStatementNodeENS1_IS4_EEEEEEEC2B8ne200100Ev
FNA:1,0,_ZNSt3__116__non_trivial_ifILb1ENS_9allocatorINS_20__shared_ptr_emplaceIN4inja20IncludeStatementNodeENS1_IS4_EEEEEEEC2B8ne200100Ev
FNA:1,424,_ZNSt3__116__non_trivial_ifILb1ENS_9allocatorINS_20__shared_ptr_emplaceIN4inja21ForArrayStatementNodeENS1_IS4_EEEEEEEC2B8ne200100Ev
FNA:1,0,_ZNSt3__116__non_trivial_ifILb1ENS_9allocatorINS_20__shared_ptr_emplaceIN4inja22ForObjectStatementNodeENS1_IS4_EEEEEEEC2B8ne200100Ev
FNA:1,3816,_ZNSt3__116__non_trivial_ifILb1ENS_9allocatorINS_20__shared_ptr_emplaceIN4inja8DataNodeENS1_IS4_EEEEEEEC2B8ne200100Ev
FNA:1,3816,_ZNSt3__116__non_trivial_ifILb1ENS_9allocatorINS_20__shared_ptr_emplaceIN4inja8TextNodeENS1_IS4_EEEEEEEC2B8ne200100Ev
FNA:1,19716,_ZNSt3__116__non_trivial_ifILb1ENS_9allocatorINS_20__shared_ptr_emplaceIN8nlohmann16json_abi_v3_11_310basic_jsonINS_3mapENS_6vectorENS_12basic_stringIcNS_11char_traitsIcEENS1_IcEEEEbxydS1_NS4_14adl_serializerENS7_IhNS1_IhEEEEvEENS1_ISG_EEEEEEEC2B8ne200100Ev
FNA:1,0,_ZNSt3__116__non_trivial_ifILb1ENS_9allocatorINS_20__shared_ptr_emplaceIN8nlohmann16json_abi_v3_11_36detail21output_string_adapterIcNS_12basic_stringIcNS_11char_traitsIcEENS1_IcEEEEEENS1_ISC_EEEEEEEC2B8ne200100Ev
FNA:1,0,_ZNSt3__116__non_trivial_ifILb1ENS_9allocatorINS_20__shared_ptr_pointerIPNS_13__empty_stateIcEENS_10shared_ptrIS4_E27__shared_ptr_default_deleteIS4_S4_EENS1_IS4_EEEEEEEC2B8ne200100Ev
FNA:1,32202,_ZNSt3__116__non_trivial_ifILb1ENS_9allocatorINS_3mapINS_12basic_stringIcNS_11char_traitsIcEENS1_IcEEEEN8nlohmann16json_abi_v3_11_310basic_jsonIS2_NS_6vectorES7_bxydS1_NS9_14adl_serializerENSB_IhNS1_IhEEEEvEENS_4lessIvEENS1_INS_4pairIKS7_SF_EEEEEEEEEC2B8ne200100Ev
FNA:1,0,_ZNSt3__116__non_trivial_ifILb1ENS_9allocatorINS_4pairINS_12basic_stringIcNS_11char_traitsIcEENS1_IcEEEES7_EEEEEC2B8ne200100Ev
FNA:1,0,_ZNSt3__116__non_trivial_ifILb1ENS_9allocatorINS_4pairIccEEEEEC2B8ne200100Ev
FNA:1,0,_ZNSt3__116__non_trivial_ifILb1ENS_9allocatorINS_4pairImPKcEEEEEC2B8ne200100Ev
FNA:1,1,_ZNSt3__116__non_trivial_ifILb1ENS_9allocatorINS_6threadEEEEC2B8ne200100Ev
FNA:1,6542,_ZNSt3__116__non_trivial_ifILb1ENS_9allocatorINS_6vectorIN8nlohmann16json_abi_v3_11_310basic_jsonINS_3mapES2_NS_12basic_stringIcNS_11char_traitsIcEENS1_IcEEEEbxydS1_NS4_14adl_serializerENS2_IhNS1_IhEEEEvEENS1_ISF_EEEEEEEC2B8ne200100Ev
FNA:1,0,_ZNSt3__116__non_trivial_ifILb1ENS_9allocatorINS_7__stateIcEEEEEC2B8ne200100Ev
FNA:1,0,_ZNSt3__116__non_trivial_ifILb1ENS_9allocatorINS_9sub_matchINS_11__wrap_iterIPKcEEEEEEEC2B8ne200100Ev
FNA:1,0,_ZNSt3__116__non_trivial_ifILb1ENS_9allocatorINS_9sub_matchIPKcEEEEEC2B8ne200100Ev
FNA:1,212,_ZNSt3__116__non_trivial_ifILb1ENS_9allocatorIPKN4inja18BlockStatementNodeEEEEC2B8ne200100Ev
FNA:1,212,_ZNSt3__116__non_trivial_ifILb1ENS_9allocatorIPKN4inja8DataNodeEEEEC2B8ne200100Ev
FNA:1,212,_ZNSt3__116__non_trivial_ifILb1ENS_9allocatorIPKN4inja8TemplateEEEEC2B8ne200100Ev
FNA:1,212,_ZNSt3__116__non_trivial_ifILb1ENS_9allocatorIPKN8nlohmann16json_abi_v3_11_310basic_jsonINS_3mapENS_6vectorENS_12basic_stringIcNS_11char_traitsIcEENS1_IcEEEEbxydS1_NS3_14adl_serializerENS6_IhNS1_IhEEEEvEEEEEC2B8ne200100Ev
FNA:1,430,_ZNSt3__116__non_trivial_ifILb1ENS_9allocatorIPKcEEEC2B8ne200100Ev
FNA:1,318,_ZNSt3__116__non_trivial_ifILb1ENS_9allocatorIPN4inja15IfStatementNodeEEEEC2B8ne200100Ev
FNA:1,318,_ZNSt3__116__non_trivial_ifILb1ENS_9allocatorIPN4inja16ForStatementNodeEEEEC2B8ne200100Ev
FNA:1,318,_ZNSt3__116__non_trivial_ifILb1ENS_9allocatorIPN4inja18BlockStatementNodeEEEEC2B8ne200100Ev
FNA:1,271,_ZNSt3__116__non_trivial_ifILb1ENS_9allocatorIPN8nlohmann16json_abi_v3_11_310basic_jsonINS_3mapENS_6vectorENS_12basic_stringIcNS_11char_traitsIcEENS1_IcEEEEbxydS1_NS3_14adl_serializerENS6_IhNS1_IhEEEEvEEEEEC2B8ne200100Ev
FNA:1,1908,_ZNSt3__116__non_trivial_ifILb1ENS_9allocatorIPNS_10shared_ptrIN4inja12FunctionNodeEEEEEEC2B8ne200100Ev
FNA:1,0,_ZNSt3__116__non_trivial_ifILb1ENS_9allocatorIPNS_10unique_ptrIN4dbal8adapters3sql13SqlConnectionENS_14default_deleteIS6_EEEEEEEC2B8ne200100Ev
FNA:1,42,_ZNSt3__116__non_trivial_ifILb1ENS_9allocatorIPNS_16__hash_node_baseIPNS_11__hash_nodeINS_12basic_stringIcNS_11char_traitsIcEENS1_IcEEEEPvEEEEEEEC2B8ne200100Ev
FNA:1,49,_ZNSt3__116__non_trivial_ifILb1ENS_9allocatorIPNS_16__hash_node_baseIPNS_11__hash_nodeINS_17__hash_value_typeINS_12basic_stringIcNS_11char_traitsIcEENS1_IcEEEEN4dbal4core12EntitySchemaEEEPvEEEEEEEC2B8ne200100Ev
FNA:1,57,_ZNSt3__116__non_trivial_ifILb1ENS_9allocatorIPNS_16__hash_node_baseIPNS_11__hash_nodeINS_17__hash_value_typeINS_12basic_stringIcNS_11char_traitsIcEENS1_IcEEEEN4dbal8adapters12EntitySchemaEEEPvEEEEEEEC2B8ne200100Ev
FNA:1,0,_ZNSt3__116__non_trivial_ifILb1ENS_9allocatorIPNS_7__stateIcEEEEEC2B8ne200100Ev
FNA:1,212,_ZNSt3__116__non_trivial_ifILb1ENS_9allocatorIPPKN4inja8DataNodeEEEEC2B8ne200100Ev
FNA:1,212,_ZNSt3__116__non_trivial_ifILb1ENS_9allocatorIPPKN8nlohmann16json_abi_v3_11_310basic_jsonINS_3mapENS_6vectorENS_12basic_stringIcNS_11char_traitsIcEENS1_IcEEEEbxydS1_NS3_14adl_serializerENS6_IhNS1_IhEEEEvEEEEEC2B8ne200100Ev
FNA:1,318,_ZNSt3__116__non_trivial_ifILb1ENS_9allocatorIPPN4inja15IfStatementNodeEEEEC2B8ne200100Ev
FNA:1,318,_ZNSt3__116__non_trivial_ifILb1ENS_9allocatorIPPN4inja16ForStatementNodeEEEEC2B8ne200100Ev
FNA:1,318,_ZNSt3__116__non_trivial_ifILb1ENS_9allocatorIPPN4inja18BlockStatementNodeEEEEC2B8ne200100Ev
FNA:1,165,_ZNSt3__116__non_trivial_ifILb1ENS_9allocatorIbEEEC2B8ne200100Ev
FNA:1,128489,_ZNSt3__116__non_trivial_ifILb1ENS_9allocatorIcEEEC2B8ne200100Ev
FNA:1,0,_ZNSt3__116__non_trivial_ifILb1ENS_9allocatorIhEEEC2B8ne200100Ev
FNA:1,4,_ZNSt3__116__non_trivial_ifILb1ENS_9allocatorIiEEEC2B8ne200100Ev
FNA:1,436,_ZNSt3__116__non_trivial_ifILb1ENS_9allocatorImEEEC2B8ne200100Ev
FNL:2,93,93
FNA:2,64,_ZNSt3__19allocatorIN4dbal11FilterGroupEEC1B8ne200100Ev
FNA:2,64,_ZNSt3__19allocatorIN4dbal11FilterGroupEEC2B8ne200100Ev
FNA:2,64,_ZNSt3__19allocatorIN4dbal13AggregateSpecEEC1B8ne200100Ev
FNA:2,64,_ZNSt3__19allocatorIN4dbal13AggregateSpecEEC2B8ne200100Ev
FNA:2,68,_ZNSt3__19allocatorIN4dbal15FilterConditionEEC1B8ne200100Ev
FNA:2,68,_ZNSt3__19allocatorIN4dbal15FilterConditionEEC2B8ne200100Ev
FNA:2,98,_ZNSt3__19allocatorIN4dbal4core11EntityFieldEEC1B8ne200100Ev
FNA:2,98,_ZNSt3__19allocatorIN4dbal4core11EntityFieldEEC2B8ne200100Ev
FNA:2,98,_ZNSt3__19allocatorIN4dbal4core11EntityIndexEEC1B8ne200100Ev
FNA:2,98,_ZNSt3__19allocatorIN4dbal4core11EntityIndexEEC2B8ne200100Ev
FNA:2,98,_ZNSt3__19allocatorIN4dbal4core11RelationDefEEC1B8ne200100Ev
FNA:2,98,_ZNSt3__19allocatorIN4dbal4core11RelationDefEEC2B8ne200100Ev
FNA:2,0,_ZNSt3__19allocatorIN4dbal4core23CompensatingTransaction6UndoOpEEC1B8ne200100Ev
FNA:2,0,_ZNSt3__19allocatorIN4dbal4core23CompensatingTransaction6UndoOpEEC2B8ne200100Ev
FNA:2,174,_ZNSt3__19allocatorIN4dbal8adapters11EntityFieldEEC1B8ne200100Ev
FNA:2,174,_ZNSt3__19allocatorIN4dbal8adapters11EntityFieldEEC2B8ne200100Ev
FNA:2,174,_ZNSt3__19allocatorIN4dbal8adapters11RelationDefEEC1B8ne200100Ev
FNA:2,174,_ZNSt3__19allocatorIN4dbal8adapters11RelationDefEEC2B8ne200100Ev
FNA:2,163,_ZNSt3__19allocatorIN4dbal8adapters15FieldDefinitionEEC1B8ne200100Ev
FNA:2,163,_ZNSt3__19allocatorIN4dbal8adapters15FieldDefinitionEEC2B8ne200100Ev
FNA:2,163,_ZNSt3__19allocatorIN4dbal8adapters15IndexDefinitionEEC1B8ne200100Ev
FNA:2,163,_ZNSt3__19allocatorIN4dbal8adapters15IndexDefinitionEEC2B8ne200100Ev
FNA:2,163,_ZNSt3__19allocatorIN4dbal8adapters16EntityDefinitionEEC1B8ne200100Ev
FNA:2,163,_ZNSt3__19allocatorIN4dbal8adapters16EntityDefinitionEEC2B8ne200100Ev
FNA:2,163,_ZNSt3__19allocatorIN4dbal8adapters18RelationDefinitionEEC1B8ne200100Ev
FNA:2,163,_ZNSt3__19allocatorIN4dbal8adapters18RelationDefinitionEEC2B8ne200100Ev
FNA:2,663,_ZNSt3__19allocatorIN4dbal8adapters3sql6SqlRowEEC1B8ne200100Ev
FNA:2,663,_ZNSt3__19allocatorIN4dbal8adapters3sql6SqlRowEEC2B8ne200100Ev
FNA:2,968,_ZNSt3__19allocatorIN4dbal8adapters3sql8SqlParamEEC1B8ne200100Ev
FNA:2,968,_ZNSt3__19allocatorIN4dbal8adapters3sql8SqlParamEEC2B8ne200100Ev
FNA:2,106,_ZNSt3__19allocatorIN4inja11LiteralNodeEEC1B8ne200100Ev
FNA:2,106,_ZNSt3__19allocatorIN4inja11LiteralNodeEEC2B8ne200100Ev
FNA:2,742,_ZNSt3__19allocatorIN4inja12FunctionNodeEEC1B8ne200100Ev
FNA:2,742,_ZNSt3__19allocatorIN4inja12FunctionNodeEEC2B8ne200100Ev
FNA:2,636,_ZNSt3__19allocatorIN4inja15IfStatementNodeEEC1B8ne200100Ev
FNA:2,636,_ZNSt3__19allocatorIN4inja15IfStatementNodeEEC2B8ne200100Ev
FNA:2,0,_ZNSt3__19allocatorIN4inja16SetStatementNodeEEC1B8ne200100Ev
FNA:2,0,_ZNSt3__19allocatorIN4inja16SetStatementNodeEEC2B8ne200100Ev
FNA:2,0,_ZNSt3__19allocatorIN4inja18BlockStatementNodeEEC1B8ne200100Ev
FNA:2,0,_ZNSt3__19allocatorIN4inja18BlockStatementNodeEEC2B8ne200100Ev
FNA:2,848,_ZNSt3__19allocatorIN4inja18ExpressionListNodeEEC1B8ne200100Ev
FNA:2,848,_ZNSt3__19allocatorIN4inja18ExpressionListNodeEEC2B8ne200100Ev
FNA:2,0,_ZNSt3__19allocatorIN4inja20ExtendsStatementNodeEEC1B8ne200100Ev
FNA:2,0,_ZNSt3__19allocatorIN4inja20ExtendsStatementNodeEEC2B8ne200100Ev
FNA:2,0,_ZNSt3__19allocatorIN4inja20IncludeStatementNodeEEC1B8ne200100Ev
FNA:2,0,_ZNSt3__19allocatorIN4inja20IncludeStatementNodeEEC2B8ne200100Ev
FNA:2,212,_ZNSt3__19allocatorIN4inja21ForArrayStatementNodeEEC1B8ne200100Ev
FNA:2,212,_ZNSt3__19allocatorIN4inja21ForArrayStatementNodeEEC2B8ne200100Ev
FNA:2,0,_ZNSt3__19allocatorIN4inja22ForObjectStatementNodeEEC1B8ne200100Ev
FNA:2,0,_ZNSt3__19allocatorIN4inja22ForObjectStatementNodeEEC2B8ne200100Ev
FNA:2,1908,_ZNSt3__19allocatorIN4inja8DataNodeEEC1B8ne200100Ev
FNA:2,1908,_ZNSt3__19allocatorIN4inja8DataNodeEEC2B8ne200100Ev
FNA:2,1908,_ZNSt3__19allocatorIN4inja8TextNodeEEC1B8ne200100Ev
FNA:2,1908,_ZNSt3__19allocatorIN4inja8TextNodeEEC2B8ne200100Ev
FNA:2,30508,_ZNSt3__19allocatorIN8nlohmann16json_abi_v3_11_310basic_jsonINS_3mapENS_6vectorENS_12basic_stringIcNS_11char_traitsIcEENS0_IcEEEEbxydS0_NS2_14adl_serializerENS5_IhNS0_IhEEEEvEEEC1B8ne200100Ev
FNA:2,30508,_ZNSt3__19allocatorIN8nlohmann16json_abi_v3_11_310basic_jsonINS_3mapENS_6vectorENS_12basic_stringIcNS_11char_traitsIcEENS0_IcEEEEbxydS0_NS2_14adl_serializerENS5_IhNS0_IhEEEEvEEEC2B8ne200100Ev
FNA:2,0,_ZNSt3__19allocatorIN8nlohmann16json_abi_v3_11_327byte_container_with_subtypeINS_6vectorIhNS0_IhEEEEEEEC1B8ne200100Ev
FNA:2,0,_ZNSt3__19allocatorIN8nlohmann16json_abi_v3_11_327byte_container_with_subtypeINS_6vectorIhNS0_IhEEEEEEEC2B8ne200100Ev
FNA:2,0,_ZNSt3__19allocatorIN8nlohmann16json_abi_v3_11_36detail21output_string_adapterIcNS_12basic_stringIcNS_11char_traitsIcEENS0_IcEEEEEEEC1B8ne200100Ev
FNA:2,0,_ZNSt3__19allocatorIN8nlohmann16json_abi_v3_11_36detail21output_string_adapterIcNS_12basic_stringIcNS_11char_traitsIcEENS0_IcEEEEEEEC2B8ne200100Ev
FNA:2,1908,_ZNSt3__19allocatorINS_10shared_ptrIN4inja12FunctionNodeEEEEC1B8ne200100Ev
FNA:2,1908,_ZNSt3__19allocatorINS_10shared_ptrIN4inja12FunctionNodeEEEEC2B8ne200100Ev
FNA:2,2650,_ZNSt3__19allocatorINS_10shared_ptrIN4inja14ExpressionNodeEEEEC1B8ne200100Ev
FNA:2,2650,_ZNSt3__19allocatorINS_10shared_ptrIN4inja14ExpressionNodeEEEEC2B8ne200100Ev
FNA:2,1696,_ZNSt3__19allocatorINS_10shared_ptrIN4inja7AstNodeEEEEC1B8ne200100Ev
FNA:2,1696,_ZNSt3__19allocatorINS_10shared_ptrIN4inja7AstNodeEEEEC2B8ne200100Ev
FNA:2,212,_ZNSt3__19allocatorINS_10shared_ptrIN8nlohmann16json_abi_v3_11_310basic_jsonINS_3mapENS_6vectorENS_12basic_stringIcNS_11char_traitsIcEENS0_IcEEEEbxydS0_NS3_14adl_serializerENS6_IhNS0_IhEEEEvEEEEEC1B8ne200100Ev
FNA:2,212,_ZNSt3__19allocatorINS_10shared_ptrIN8nlohmann16json_abi_v3_11_310basic_jsonINS_3mapENS_6vectorENS_12basic_stringIcNS_11char_traitsIcEENS0_IcEEEEbxydS0_NS3_14adl_serializerENS6_IhNS0_IhEEEEvEEEEEC2B8ne200100Ev
FNA:2,57,_ZNSt3__19allocatorINS_10unique_ptrIN4dbal8adapters3sql13SqlConnectionENS_14default_deleteIS5_EEEEEC1B8ne200100Ev
FNA:2,57,_ZNSt3__19allocatorINS_10unique_ptrIN4dbal8adapters3sql13SqlConnectionENS_14default_deleteIS5_EEEEEC2B8ne200100Ev
FNA:2,42,_ZNSt3__19allocatorINS_11__hash_nodeINS_12basic_stringIcNS_11char_traitsIcEENS0_IcEEEEPvEEEC1B8ne200100Ev
FNA:2,42,_ZNSt3__19allocatorINS_11__hash_nodeINS_12basic_stringIcNS_11char_traitsIcEENS0_IcEEEEPvEEEC2B8ne200100Ev
FNA:2,49,_ZNSt3__19allocatorINS_11__hash_nodeINS_17__hash_value_typeINS_12basic_stringIcNS_11char_traitsIcEENS0_IcEEEEN4dbal4core12EntitySchemaEEEPvEEEC1B8ne200100Ev
FNA:2,49,_ZNSt3__19allocatorINS_11__hash_nodeINS_17__hash_value_typeINS_12basic_stringIcNS_11char_traitsIcEENS0_IcEEEEN4dbal4core12EntitySchemaEEEPvEEEC2B8ne200100Ev
FNA:2,57,_ZNSt3__19allocatorINS_11__hash_nodeINS_17__hash_value_typeINS_12basic_stringIcNS_11char_traitsIcEENS0_IcEEEEN4dbal8adapters12EntitySchemaEEEPvEEEC1B8ne200100Ev
FNA:2,57,_ZNSt3__19allocatorINS_11__hash_nodeINS_17__hash_value_typeINS_12basic_stringIcNS_11char_traitsIcEENS0_IcEEEEN4dbal8adapters12EntitySchemaEEEPvEEEC2B8ne200100Ev
FNA:2,0,_ZNSt3__19allocatorINS_11__tree_nodeINS_12__value_typeINS_12basic_stringIcNS_11char_traitsIcEENS0_IcEEEEN4dbal4core10CacheEntryIN8nlohmann16json_abi_v3_11_310basic_jsonINS_3mapENS_6vectorES7_bxydS0_NSC_14adl_serializerENSF_IhNS0_IhEEEEvEEEEEEPvEEEC1B8ne200100Ev
FNA:2,0,_ZNSt3__19allocatorINS_11__tree_nodeINS_12__value_typeINS_12basic_stringIcNS_11char_traitsIcEENS0_IcEEEEN4dbal4core10CacheEntryIN8nlohmann16json_abi_v3_11_310basic_jsonINS_3mapENS_6vectorES7_bxydS0_NSC_14adl_serializerENSF_IhNS0_IhEEEEvEEEEEEPvEEEC2B8ne200100Ev
FNA:2,1,_ZNSt3__19allocatorINS_11__tree_nodeINS_12__value_typeINS_12basic_stringIcNS_11char_traitsIcEENS0_IcEEEEN4dbal4core12EntitySchemaEEEPvEEEC1B8ne200100Ev
FNA:2,1,_ZNSt3__19allocatorINS_11__tree_nodeINS_12__value_typeINS_12basic_stringIcNS_11char_traitsIcEENS0_IcEEEEN4dbal4core12EntitySchemaEEEPvEEEC2B8ne200100Ev
FNA:2,106,_ZNSt3__19allocatorINS_11__tree_nodeINS_12__value_typeINS_12basic_stringIcNS_11char_traitsIcEENS0_IcEEEEN4inja8TemplateEEEPvEEEC1B8ne200100Ev
FNA:2,106,_ZNSt3__19allocatorINS_11__tree_nodeINS_12__value_typeINS_12basic_stringIcNS_11char_traitsIcEENS0_IcEEEEN4inja8TemplateEEEPvEEEC2B8ne200100Ev
FNA:2,6051,_ZNSt3__19allocatorINS_11__tree_nodeINS_12__value_typeINS_12basic_stringIcNS_11char_traitsIcEENS0_IcEEEEN8nlohmann16json_abi_v3_11_310basic_jsonINS_3mapENS_6vectorES7_bxydS0_NS9_14adl_serializerENSC_IhNS0_IhEEEEvEEEEPvEEEC1B8ne200100Ev
FNA:2,6051,_ZNSt3__19allocatorINS_11__tree_nodeINS_12__value_typeINS_12basic_stringIcNS_11char_traitsIcEENS0_IcEEEEN8nlohmann16json_abi_v3_11_310basic_jsonINS_3mapENS_6vectorES7_bxydS0_NS9_14adl_serializerENSC_IhNS0_IhEEEEvEEEEPvEEEC2B8ne200100Ev
FNA:2,212,_ZNSt3__19allocatorINS_11__tree_nodeINS_12__value_typeINS_12basic_stringIcNS_11char_traitsIcEENS0_IcEEEENS_10shared_ptrIN4inja18BlockStatementNodeEEEEEPvEEEC1B8ne200100Ev
FNA:2,212,_ZNSt3__19allocatorINS_11__tree_nodeINS_12__value_typeINS_12basic_stringIcNS_11char_traitsIcEENS0_IcEEEENS_10shared_ptrIN4inja18BlockStatementNodeEEEEEPvEEEC2B8ne200100Ev
FNA:2,1443,_ZNSt3__19allocatorINS_11__tree_nodeINS_12__value_typeINS_12basic_stringIcNS_11char_traitsIcEENS0_IcEEEES7_EEPvEEEC1B8ne200100Ev
FNA:2,1443,_ZNSt3__19allocatorINS_11__tree_nodeINS_12__value_typeINS_12basic_stringIcNS_11char_traitsIcEENS0_IcEEEES7_EEPvEEEC2B8ne200100Ev
FNA:2,0,_ZNSt3__19allocatorINS_11__tree_nodeINS_12__value_typeINS_12basic_stringIcNS_11char_traitsIcEENS0_IcEEEEbEEPvEEEC1B8ne200100Ev
FNA:2,0,_ZNSt3__19allocatorINS_11__tree_nodeINS_12__value_typeINS_12basic_stringIcNS_11char_traitsIcEENS0_IcEEEEbEEPvEEEC2B8ne200100Ev
FNA:2,106,_ZNSt3__19allocatorINS_11__tree_nodeINS_12__value_typeINS_4pairINS_12basic_stringIcNS_11char_traitsIcEENS0_IcEEEEiEEN4inja15FunctionStorage12FunctionDataEEEPvEEEC1B8ne200100Ev
FNA:2,106,_ZNSt3__19allocatorINS_11__tree_nodeINS_12__value_typeINS_4pairINS_12basic_stringIcNS_11char_traitsIcEENS0_IcEEEEiEEN4inja15FunctionStorage12FunctionDataEEEPvEEEC2B8ne200100Ev
FNA:2,107,_ZNSt3__19allocatorINS_11__tree_nodeINS_12basic_stringIcNS_11char_traitsIcEENS0_IcEEEEPvEEEC1B8ne200100Ev
FNA:2,107,_ZNSt3__19allocatorINS_11__tree_nodeINS_12basic_stringIcNS_11char_traitsIcEENS0_IcEEEEPvEEEC2B8ne200100Ev
FNA:2,94599,_ZNSt3__19allocatorINS_12basic_stringIcNS_11char_traitsIcEENS0_IcEEEEEC1B8ne200100Ev
FNA:2,94599,_ZNSt3__19allocatorINS_12basic_stringIcNS_11char_traitsIcEENS0_IcEEEEEC2B8ne200100Ev
FNA:2,0,_ZNSt3__19allocatorINS_13__empty_stateIcEEEC1B8ne200100Ev
FNA:2,0,_ZNSt3__19allocatorINS_13__empty_stateIcEEEC2B8ne200100Ev
FNA:2,32202,_ZNSt3__19allocatorINS_3mapINS_12basic_stringIcNS_11char_traitsIcEENS0_IcEEEEN8nlohmann16json_abi_v3_11_310basic_jsonIS1_NS_6vectorES6_bxydS0_NS8_14adl_serializerENSA_IhNS0_IhEEEEvEENS_4lessIvEENS0_INS_4pairIKS6_SE_EEEEEEEC1B8ne200100Ev
FNA:2,32202,_ZNSt3__19allocatorINS_3mapINS_12basic_stringIcNS_11char_traitsIcEENS0_IcEEEEN8nlohmann16json_abi_v3_11_310basic_jsonIS1_NS_6vectorES6_bxydS0_NS8_14adl_serializerENSA_IhNS0_IhEEEEvEENS_4lessIvEENS0_INS_4pairIKS6_SE_EEEEEEEC2B8ne200100Ev
FNA:2,0,_ZNSt3__19allocatorINS_4pairINS_12basic_stringIcNS_11char_traitsIcEENS0_IcEEEES6_EEEC1B8ne200100Ev
FNA:2,0,_ZNSt3__19allocatorINS_4pairINS_12basic_stringIcNS_11char_traitsIcEENS0_IcEEEES6_EEEC2B8ne200100Ev
FNA:2,0,_ZNSt3__19allocatorINS_4pairIccEEEC1B8ne200100Ev
FNA:2,0,_ZNSt3__19allocatorINS_4pairIccEEEC2B8ne200100Ev
FNA:2,0,_ZNSt3__19allocatorINS_4pairImPKcEEEC1B8ne200100Ev
FNA:2,0,_ZNSt3__19allocatorINS_4pairImPKcEEEC2B8ne200100Ev
FNA:2,1,_ZNSt3__19allocatorINS_6threadEEC1B8ne200100Ev
FNA:2,1,_ZNSt3__19allocatorINS_6threadEEC2B8ne200100Ev
FNA:2,6542,_ZNSt3__19allocatorINS_6vectorIN8nlohmann16json_abi_v3_11_310basic_jsonINS_3mapES1_NS_12basic_stringIcNS_11char_traitsIcEENS0_IcEEEEbxydS0_NS3_14adl_serializerENS1_IhNS0_IhEEEEvEENS0_ISE_EEEEEC1B8ne200100Ev
FNA:2,6542,_ZNSt3__19allocatorINS_6vectorIN8nlohmann16json_abi_v3_11_310basic_jsonINS_3mapES1_NS_12basic_stringIcNS_11char_traitsIcEENS0_IcEEEEbxydS0_NS3_14adl_serializerENS1_IhNS0_IhEEEEvEENS0_ISE_EEEEEC2B8ne200100Ev
FNA:2,0,_ZNSt3__19allocatorINS_7__stateIcEEEC1B8ne200100Ev
FNA:2,0,_ZNSt3__19allocatorINS_7__stateIcEEEC2B8ne200100Ev
FNA:2,0,_ZNSt3__19allocatorINS_9sub_matchINS_11__wrap_iterIPKcEEEEEC1B8ne200100Ev
FNA:2,0,_ZNSt3__19allocatorINS_9sub_matchINS_11__wrap_iterIPKcEEEEEC2B8ne200100Ev
FNA:2,0,_ZNSt3__19allocatorINS_9sub_matchIPKcEEEC1B8ne200100Ev
FNA:2,0,_ZNSt3__19allocatorINS_9sub_matchIPKcEEEC2B8ne200100Ev
FNA:2,212,_ZNSt3__19allocatorIPKN4inja18BlockStatementNodeEEC1B8ne200100Ev
FNA:2,212,_ZNSt3__19allocatorIPKN4inja18BlockStatementNodeEEC2B8ne200100Ev
FNA:2,212,_ZNSt3__19allocatorIPKN4inja8DataNodeEEC1B8ne200100Ev
FNA:2,212,_ZNSt3__19allocatorIPKN4inja8DataNodeEEC2B8ne200100Ev
FNA:2,212,_ZNSt3__19allocatorIPKN4inja8TemplateEEC1B8ne200100Ev
FNA:2,212,_ZNSt3__19allocatorIPKN4inja8TemplateEEC2B8ne200100Ev
FNA:2,212,_ZNSt3__19allocatorIPKN8nlohmann16json_abi_v3_11_310basic_jsonINS_3mapENS_6vectorENS_12basic_stringIcNS_11char_traitsIcEENS0_IcEEEEbxydS0_NS2_14adl_serializerENS5_IhNS0_IhEEEEvEEEC1B8ne200100Ev
FNA:2,212,_ZNSt3__19allocatorIPKN8nlohmann16json_abi_v3_11_310basic_jsonINS_3mapENS_6vectorENS_12basic_stringIcNS_11char_traitsIcEENS0_IcEEEEbxydS0_NS2_14adl_serializerENS5_IhNS0_IhEEEEvEEEC2B8ne200100Ev
FNA:2,430,_ZNSt3__19allocatorIPKcEC1B8ne200100Ev
FNA:2,430,_ZNSt3__19allocatorIPKcEC2B8ne200100Ev
FNA:2,318,_ZNSt3__19allocatorIPN4inja15IfStatementNodeEEC1B8ne200100Ev
FNA:2,318,_ZNSt3__19allocatorIPN4inja15IfStatementNodeEEC2B8ne200100Ev
FNA:2,318,_ZNSt3__19allocatorIPN4inja16ForStatementNodeEEC1B8ne200100Ev
FNA:2,318,_ZNSt3__19allocatorIPN4inja16ForStatementNodeEEC2B8ne200100Ev
FNA:2,318,_ZNSt3__19allocatorIPN4inja18BlockStatementNodeEEC1B8ne200100Ev
FNA:2,318,_ZNSt3__19allocatorIPN4inja18BlockStatementNodeEEC2B8ne200100Ev
FNA:2,271,_ZNSt3__19allocatorIPN8nlohmann16json_abi_v3_11_310basic_jsonINS_3mapENS_6vectorENS_12basic_stringIcNS_11char_traitsIcEENS0_IcEEEEbxydS0_NS2_14adl_serializerENS5_IhNS0_IhEEEEvEEEC1B8ne200100Ev
FNA:2,271,_ZNSt3__19allocatorIPN8nlohmann16json_abi_v3_11_310basic_jsonINS_3mapENS_6vectorENS_12basic_stringIcNS_11char_traitsIcEENS0_IcEEEEbxydS0_NS2_14adl_serializerENS5_IhNS0_IhEEEEvEEEC2B8ne200100Ev
FNA:2,1908,_ZNSt3__19allocatorIPNS_10shared_ptrIN4inja12FunctionNodeEEEEC1B8ne200100Ev
FNA:2,1908,_ZNSt3__19allocatorIPNS_10shared_ptrIN4inja12FunctionNodeEEEEC2B8ne200100Ev
FNA:2,0,_ZNSt3__19allocatorIPNS_10unique_ptrIN4dbal8adapters3sql13SqlConnectionENS_14default_deleteIS5_EEEEEC1B8ne200100Ev
FNA:2,0,_ZNSt3__19allocatorIPNS_10unique_ptrIN4dbal8adapters3sql13SqlConnectionENS_14default_deleteIS5_EEEEEC2B8ne200100Ev
FNA:2,42,_ZNSt3__19allocatorIPNS_16__hash_node_baseIPNS_11__hash_nodeINS_12basic_stringIcNS_11char_traitsIcEENS0_IcEEEEPvEEEEEC1B8ne200100Ev
FNA:2,42,_ZNSt3__19allocatorIPNS_16__hash_node_baseIPNS_11__hash_nodeINS_12basic_stringIcNS_11char_traitsIcEENS0_IcEEEEPvEEEEEC2B8ne200100Ev
FNA:2,49,_ZNSt3__19allocatorIPNS_16__hash_node_baseIPNS_11__hash_nodeINS_17__hash_value_typeINS_12basic_stringIcNS_11char_traitsIcEENS0_IcEEEEN4dbal4core12EntitySchemaEEEPvEEEEEC1B8ne200100Ev
FNA:2,49,_ZNSt3__19allocatorIPNS_16__hash_node_baseIPNS_11__hash_nodeINS_17__hash_value_typeINS_12basic_stringIcNS_11char_traitsIcEENS0_IcEEEEN4dbal4core12EntitySchemaEEEPvEEEEEC2B8ne200100Ev
FNA:2,57,_ZNSt3__19allocatorIPNS_16__hash_node_baseIPNS_11__hash_nodeINS_17__hash_value_typeINS_12basic_stringIcNS_11char_traitsIcEENS0_IcEEEEN4dbal8adapters12EntitySchemaEEEPvEEEEEC1B8ne200100Ev
FNA:2,57,_ZNSt3__19allocatorIPNS_16__hash_node_baseIPNS_11__hash_nodeINS_17__hash_value_typeINS_12basic_stringIcNS_11char_traitsIcEENS0_IcEEEEN4dbal8adapters12EntitySchemaEEEPvEEEEEC2B8ne200100Ev
FNA:2,0,_ZNSt3__19allocatorIPNS_7__stateIcEEEC1B8ne200100Ev
FNA:2,0,_ZNSt3__19allocatorIPNS_7__stateIcEEEC2B8ne200100Ev
FNA:2,212,_ZNSt3__19allocatorIPPKN4inja8DataNodeEEC1B8ne200100Ev
FNA:2,212,_ZNSt3__19allocatorIPPKN4inja8DataNodeEEC2B8ne200100Ev
FNA:2,212,_ZNSt3__19allocatorIPPKN8nlohmann16json_abi_v3_11_310basic_jsonINS_3mapENS_6vectorENS_12basic_stringIcNS_11char_traitsIcEENS0_IcEEEEbxydS0_NS2_14adl_serializerENS5_IhNS0_IhEEEEvEEEC1B8ne200100Ev
FNA:2,212,_ZNSt3__19allocatorIPPKN8nlohmann16json_abi_v3_11_310basic_jsonINS_3mapENS_6vectorENS_12basic_stringIcNS_11char_traitsIcEENS0_IcEEEEbxydS0_NS2_14adl_serializerENS5_IhNS0_IhEEEEvEEEC2B8ne200100Ev
FNA:2,318,_ZNSt3__19allocatorIPPN4inja15IfStatementNodeEEC1B8ne200100Ev
FNA:2,318,_ZNSt3__19allocatorIPPN4inja15IfStatementNodeEEC2B8ne200100Ev
FNA:2,318,_ZNSt3__19allocatorIPPN4inja16ForStatementNodeEEC1B8ne200100Ev
FNA:2,318,_ZNSt3__19allocatorIPPN4inja16ForStatementNodeEEC2B8ne200100Ev
FNA:2,318,_ZNSt3__19allocatorIPPN4inja18BlockStatementNodeEEC1B8ne200100Ev
FNA:2,318,_ZNSt3__19allocatorIPPN4inja18BlockStatementNodeEEC2B8ne200100Ev
FNA:2,128489,_ZNSt3__19allocatorIcEC1B8ne200100Ev
FNA:2,128489,_ZNSt3__19allocatorIcEC2B8ne200100Ev
FNA:2,0,_ZNSt3__19allocatorIhEC1B8ne200100Ev
FNA:2,0,_ZNSt3__19allocatorIhEC2B8ne200100Ev
FNA:2,4,_ZNSt3__19allocatorIiEC1B8ne200100Ev
FNA:2,4,_ZNSt3__19allocatorIiEC2B8ne200100Ev
FNA:2,271,_ZNSt3__19allocatorImEC1B8ne200100Ev
FNA:2,271,_ZNSt3__19allocatorImEC2B8ne200100Ev
FNL:3,96,96
FNA:3,212,_ZNSt3__19allocatorINS_20__shared_ptr_emplaceIN4inja11LiteralNodeENS0_IS3_EEEEEC1B8ne200100IS3_EERKNS0_IT_EE
FNA:3,212,_ZNSt3__19allocatorINS_20__shared_ptr_emplaceIN4inja11LiteralNodeENS0_IS3_EEEEEC2B8ne200100IS3_EERKNS0_IT_EE
FNA:3,1484,_ZNSt3__19allocatorINS_20__shared_ptr_emplaceIN4inja12FunctionNodeENS0_IS3_EEEEEC1B8ne200100IS3_EERKNS0_IT_EE
FNA:3,1484,_ZNSt3__19allocatorINS_20__shared_ptr_emplaceIN4inja12FunctionNodeENS0_IS3_EEEEEC2B8ne200100IS3_EERKNS0_IT_EE
FNA:3,1272,_ZNSt3__19allocatorINS_20__shared_ptr_emplaceIN4inja15IfStatementNodeENS0_IS3_EEEEEC1B8ne200100IS3_EERKNS0_IT_EE
FNA:3,1272,_ZNSt3__19allocatorINS_20__shared_ptr_emplaceIN4inja15IfStatementNodeENS0_IS3_EEEEEC2B8ne200100IS3_EERKNS0_IT_EE
FNA:3,0,_ZNSt3__19allocatorINS_20__shared_ptr_emplaceIN4inja16SetStatementNodeENS0_IS3_EEEEEC1B8ne200100IS3_EERKNS0_IT_EE
FNA:3,0,_ZNSt3__19allocatorINS_20__shared_ptr_emplaceIN4inja16SetStatementNodeENS0_IS3_EEEEEC2B8ne200100IS3_EERKNS0_IT_EE
FNA:3,0,_ZNSt3__19allocatorINS_20__shared_ptr_emplaceIN4inja18BlockStatementNodeENS0_IS3_EEEEEC1B8ne200100IS3_EERKNS0_IT_EE
FNA:3,0,_ZNSt3__19allocatorINS_20__shared_ptr_emplaceIN4inja18BlockStatementNodeENS0_IS3_EEEEEC2B8ne200100IS3_EERKNS0_IT_EE
FNA:3,1696,_ZNSt3__19allocatorINS_20__shared_ptr_emplaceIN4inja18ExpressionListNodeENS0_IS3_EEEEEC1B8ne200100IS3_EERKNS0_IT_EE
FNA:3,1696,_ZNSt3__19allocatorINS_20__shared_ptr_emplaceIN4inja18ExpressionListNodeENS0_IS3_EEEEEC2B8ne200100IS3_EERKNS0_IT_EE
FNA:3,0,_ZNSt3__19allocatorINS_20__shared_ptr_emplaceIN4inja20ExtendsStatementNodeENS0_IS3_EEEEEC1B8ne200100IS3_EERKNS0_IT_EE
FNA:3,0,_ZNSt3__19allocatorINS_20__shared_ptr_emplaceIN4inja20ExtendsStatementNodeENS0_IS3_EEEEEC2B8ne200100IS3_EERKNS0_IT_EE
FNA:3,0,_ZNSt3__19allocatorINS_20__shared_ptr_emplaceIN4inja20IncludeStatementNodeENS0_IS3_EEEEEC1B8ne200100IS3_EERKNS0_IT_EE
FNA:3,0,_ZNSt3__19allocatorINS_20__shared_ptr_emplaceIN4inja20IncludeStatementNodeENS0_IS3_EEEEEC2B8ne200100IS3_EERKNS0_IT_EE
FNA:3,424,_ZNSt3__19allocatorINS_20__shared_ptr_emplaceIN4inja21ForArrayStatementNodeENS0_IS3_EEEEEC1B8ne200100IS3_EERKNS0_IT_EE
FNA:3,424,_ZNSt3__19allocatorINS_20__shared_ptr_emplaceIN4inja21ForArrayStatementNodeENS0_IS3_EEEEEC2B8ne200100IS3_EERKNS0_IT_EE
FNA:3,0,_ZNSt3__19allocatorINS_20__shared_ptr_emplaceIN4inja22ForObjectStatementNodeENS0_IS3_EEEEEC1B8ne200100IS3_EERKNS0_IT_EE
FNA:3,0,_ZNSt3__19allocatorINS_20__shared_ptr_emplaceIN4inja22ForObjectStatementNodeENS0_IS3_EEEEEC2B8ne200100IS3_EERKNS0_IT_EE
FNA:3,3816,_ZNSt3__19allocatorINS_20__shared_ptr_emplaceIN4inja8DataNodeENS0_IS3_EEEEEC1B8ne200100IS3_EERKNS0_IT_EE
FNA:3,3816,_ZNSt3__19allocatorINS_20__shared_ptr_emplaceIN4inja8DataNodeENS0_IS3_EEEEEC2B8ne200100IS3_EERKNS0_IT_EE
FNA:3,3816,_ZNSt3__19allocatorINS_20__shared_ptr_emplaceIN4inja8TextNodeENS0_IS3_EEEEEC1B8ne200100IS3_EERKNS0_IT_EE
FNA:3,3816,_ZNSt3__19allocatorINS_20__shared_ptr_emplaceIN4inja8TextNodeENS0_IS3_EEEEEC2B8ne200100IS3_EERKNS0_IT_EE
FNA:3,19716,_ZNSt3__19allocatorINS_20__shared_ptr_emplaceIN8nlohmann16json_abi_v3_11_310basic_jsonINS_3mapENS_6vectorENS_12basic_stringIcNS_11char_traitsIcEENS0_IcEEEEbxydS0_NS3_14adl_serializerENS6_IhNS0_IhEEEEvEENS0_ISF_EEEEEC1B8ne200100ISF_EERKNS0_IT_EE
FNA:3,19716,_ZNSt3__19allocatorINS_20__shared_ptr_emplaceIN8nlohmann16json_abi_v3_11_310basic_jsonINS_3mapENS_6vectorENS_12basic_stringIcNS_11char_traitsIcEENS0_IcEEEEbxydS0_NS3_14adl_serializerENS6_IhNS0_IhEEEEvEENS0_ISF_EEEEEC2B8ne200100ISF_EERKNS0_IT_EE
FNA:3,0,_ZNSt3__19allocatorINS_20__shared_ptr_emplaceIN8nlohmann16json_abi_v3_11_36detail21output_string_adapterIcNS_12basic_stringIcNS_11char_traitsIcEENS0_IcEEEEEENS0_ISB_EEEEEC1B8ne200100ISB_EERKNS0_IT_EE
FNA:3,0,_ZNSt3__19allocatorINS_20__shared_ptr_emplaceIN8nlohmann16json_abi_v3_11_36detail21output_string_adapterIcNS_12basic_stringIcNS_11char_traitsIcEENS0_IcEEEEEENS0_ISB_EEEEEC2B8ne200100ISB_EERKNS0_IT_EE
FNA:3,0,_ZNSt3__19allocatorINS_20__shared_ptr_pointerIPNS_13__empty_stateIcEENS_10shared_ptrIS3_E27__shared_ptr_default_deleteIS3_S3_EENS0_IS3_EEEEEC1B8ne200100IS3_EERKNS0_IT_EE
FNA:3,0,_ZNSt3__19allocatorINS_20__shared_ptr_pointerIPNS_13__empty_stateIcEENS_10shared_ptrIS3_E27__shared_ptr_default_deleteIS3_S3_EENS0_IS3_EEEEEC2B8ne200100IS3_EERKNS0_IT_EE
FNA:3,165,_ZNSt3__19allocatorIbEC1B8ne200100ImEERKNS0_IT_EE
FNA:3,165,_ZNSt3__19allocatorIbEC2B8ne200100ImEERKNS0_IT_EE
FNA:3,165,_ZNSt3__19allocatorImEC1B8ne200100IbEERKNS0_IT_EE
FNA:3,165,_ZNSt3__19allocatorImEC2B8ne200100IbEERKNS0_IT_EE
FNL:4,98,105
FNA:4,4,_ZNSt3__19allocatorIN4dbal11FilterGroupEE8allocateB8ne200100Em
FNA:4,4,_ZNSt3__19allocatorIN4dbal13AggregateSpecEE8allocateB8ne200100Em
FNA:4,46,_ZNSt3__19allocatorIN4dbal15FilterConditionEE8allocateB8ne200100Em
FNA:4,690,_ZNSt3__19allocatorIN4dbal4core11EntityFieldEE8allocateB8ne200100Em
FNA:4,543,_ZNSt3__19allocatorIN4dbal4core11EntityIndexEE8allocateB8ne200100Em
FNA:4,0,_ZNSt3__19allocatorIN4dbal4core11RelationDefEE8allocateB8ne200100Em
FNA:4,0,_ZNSt3__19allocatorIN4dbal4core23CompensatingTransaction6UndoOpEE8allocateB8ne200100Em
FNA:4,930,_ZNSt3__19allocatorIN4dbal8adapters11EntityFieldEE8allocateB8ne200100Em
FNA:4,0,_ZNSt3__19allocatorIN4dbal8adapters11RelationDefEE8allocateB8ne200100Em
FNA:4,815,_ZNSt3__19allocatorIN4dbal8adapters15FieldDefinitionEE8allocateB8ne200100Em
FNA:4,326,_ZNSt3__19allocatorIN4dbal8adapters15IndexDefinitionEE8allocateB8ne200100Em
FNA:4,163,_ZNSt3__19allocatorIN4dbal8adapters16EntityDefinitionEE8allocateB8ne200100Em
FNA:4,0,_ZNSt3__19allocatorIN4dbal8adapters18RelationDefinitionEE8allocateB8ne200100Em
FNA:4,706,_ZNSt3__19allocatorIN4dbal8adapters3sql6SqlRowEE8allocateB8ne200100Em
FNA:4,2257,_ZNSt3__19allocatorIN4dbal8adapters3sql8SqlParamEE8allocateB8ne200100Em
FNA:4,14428,_ZNSt3__19allocatorIN8nlohmann16json_abi_v3_11_310basic_jsonINS_3mapENS_6vectorENS_12basic_stringIcNS_11char_traitsIcEENS0_IcEEEEbxydS0_NS2_14adl_serializerENS5_IhNS0_IhEEEEvEEE8allocateB8ne200100Em
FNA:4,0,_ZNSt3__19allocatorIN8nlohmann16json_abi_v3_11_327byte_container_with_subtypeINS_6vectorIhNS0_IhEEEEEEE8allocateB8ne200100Em
FNA:4,424,_ZNSt3__19allocatorINS_10shared_ptrIN4inja12FunctionNodeEEEE8allocateB8ne200100Em
FNA:4,3180,_ZNSt3__19allocatorINS_10shared_ptrIN4inja14ExpressionNodeEEEE8allocateB8ne200100Em
FNA:4,2544,_ZNSt3__19allocatorINS_10shared_ptrIN4inja7AstNodeEEEE8allocateB8ne200100Em
FNA:4,848,_ZNSt3__19allocatorINS_10shared_ptrIN8nlohmann16json_abi_v3_11_310basic_jsonINS_3mapENS_6vectorENS_12basic_stringIcNS_11char_traitsIcEENS0_IcEEEEbxydS0_NS3_14adl_serializerENS6_IhNS0_IhEEEEvEEEEE8allocateB8ne200100Em
FNA:4,228,_ZNSt3__19allocatorINS_10unique_ptrIN4dbal8adapters3sql13SqlConnectionENS_14default_deleteIS5_EEEEE8allocateB8ne200100Em
FNA:4,245,_ZNSt3__19allocatorINS_11__hash_nodeINS_12basic_stringIcNS_11char_traitsIcEENS0_IcEEEEPvEEE8allocateB8ne200100Em
FNA:4,49,_ZNSt3__19allocatorINS_11__hash_nodeINS_17__hash_value_typeINS_12basic_stringIcNS_11char_traitsIcEENS0_IcEEEEN4dbal4core12EntitySchemaEEEPvEEE8allocateB8ne200100Em
FNA:4,114,_ZNSt3__19allocatorINS_11__hash_nodeINS_17__hash_value_typeINS_12basic_stringIcNS_11char_traitsIcEENS0_IcEEEEN4dbal8adapters12EntitySchemaEEEPvEEE8allocateB8ne200100Em
FNA:4,0,_ZNSt3__19allocatorINS_11__tree_nodeINS_12__value_typeINS_12basic_stringIcNS_11char_traitsIcEENS0_IcEEEEN4dbal4core10CacheEntryIN8nlohmann16json_abi_v3_11_310basic_jsonINS_3mapENS_6vectorES7_bxydS0_NSC_14adl_serializerENSF_IhNS0_IhEEEEvEEEEEEPvEEE8allocateB8ne200100Em
FNA:4,0,_ZNSt3__19allocatorINS_11__tree_nodeINS_12__value_typeINS_12basic_stringIcNS_11char_traitsIcEENS0_IcEEEEN4dbal4core12EntitySchemaEEEPvEEE8allocateB8ne200100Em
FNA:4,0,_ZNSt3__19allocatorINS_11__tree_nodeINS_12__value_typeINS_12basic_stringIcNS_11char_traitsIcEENS0_IcEEEEN4inja8TemplateEEEPvEEE8allocateB8ne200100Em
FNA:4,80660,_ZNSt3__19allocatorINS_11__tree_nodeINS_12__value_typeINS_12basic_stringIcNS_11char_traitsIcEENS0_IcEEEEN8nlohmann16json_abi_v3_11_310basic_jsonINS_3mapENS_6vectorES7_bxydS0_NS9_14adl_serializerENSC_IhNS0_IhEEEEvEEEEPvEEE8allocateB8ne200100Em
FNA:4,0,_ZNSt3__19allocatorINS_11__tree_nodeINS_12__value_typeINS_12basic_stringIcNS_11char_traitsIcEENS0_IcEEEENS_10shared_ptrIN4inja18BlockStatementNodeEEEEEPvEEE8allocateB8ne200100Em
FNA:4,4739,_ZNSt3__19allocatorINS_11__tree_nodeINS_12__value_typeINS_12basic_stringIcNS_11char_traitsIcEENS0_IcEEEES7_EEPvEEE8allocateB8ne200100Em
FNA:4,0,_ZNSt3__19allocatorINS_11__tree_nodeINS_12__value_typeINS_12basic_stringIcNS_11char_traitsIcEENS0_IcEEEEbEEPvEEE8allocateB8ne200100Em
FNA:4,3286,_ZNSt3__19allocatorINS_11__tree_nodeINS_12__value_typeINS_4pairINS_12basic_stringIcNS_11char_traitsIcEENS0_IcEEEEiEEN4inja15FunctionStorage12FunctionDataEEEPvEEE8allocateB8ne200100Em
FNA:4,742,_ZNSt3__19allocatorINS_11__tree_nodeINS_12basic_stringIcNS_11char_traitsIcEENS0_IcEEEEPvEEE8allocateB8ne200100Em
FNA:4,59042,_ZNSt3__19allocatorINS_12basic_stringIcNS_11char_traitsIcEENS0_IcEEEEE8allocateB8ne200100Em
FNA:4,106,_ZNSt3__19allocatorINS_20__shared_ptr_emplaceIN4inja11LiteralNodeENS0_IS3_EEEEE8allocateB8ne200100Em
FNA:4,742,_ZNSt3__19allocatorINS_20__shared_ptr_emplaceIN4inja12FunctionNodeENS0_IS3_EEEEE8allocateB8ne200100Em
FNA:4,636,_ZNSt3__19allocatorINS_20__shared_ptr_emplaceIN4inja15IfStatementNodeENS0_IS3_EEEEE8allocateB8ne200100Em
FNA:4,0,_ZNSt3__19allocatorINS_20__shared_ptr_emplaceIN4inja16SetStatementNodeENS0_IS3_EEEEE8allocateB8ne200100Em
FNA:4,0,_ZNSt3__19allocatorINS_20__shared_ptr_emplaceIN4inja18BlockStatementNodeENS0_IS3_EEEEE8allocateB8ne200100Em
FNA:4,848,_ZNSt3__19allocatorINS_20__shared_ptr_emplaceIN4inja18ExpressionListNodeENS0_IS3_EEEEE8allocateB8ne200100Em
FNA:4,0,_ZNSt3__19allocatorINS_20__shared_ptr_emplaceIN4inja20ExtendsStatementNodeENS0_IS3_EEEEE8allocateB8ne200100Em
FNA:4,0,_ZNSt3__19allocatorINS_20__shared_ptr_emplaceIN4inja20IncludeStatementNodeENS0_IS3_EEEEE8allocateB8ne200100Em
FNA:4,212,_ZNSt3__19allocatorINS_20__shared_ptr_emplaceIN4inja21ForArrayStatementNodeENS0_IS3_EEEEE8allocateB8ne200100Em
FNA:4,0,_ZNSt3__19allocatorINS_20__shared_ptr_emplaceIN4inja22ForObjectStatementNodeENS0_IS3_EEEEE8allocateB8ne200100Em
FNA:4,1908,_ZNSt3__19allocatorINS_20__shared_ptr_emplaceIN4inja8DataNodeENS0_IS3_EEEEE8allocateB8ne200100Em
FNA:4,1908,_ZNSt3__19allocatorINS_20__shared_ptr_emplaceIN4inja8TextNodeENS0_IS3_EEEEE8allocateB8ne200100Em
FNA:4,9858,_ZNSt3__19allocatorINS_20__shared_ptr_emplaceIN8nlohmann16json_abi_v3_11_310basic_jsonINS_3mapENS_6vectorENS_12basic_stringIcNS_11char_traitsIcEENS0_IcEEEEbxydS0_NS3_14adl_serializerENS6_IhNS0_IhEEEEvEENS0_ISF_EEEEE8allocateB8ne200100Em
FNA:4,0,_ZNSt3__19allocatorINS_20__shared_ptr_emplaceIN8nlohmann16json_abi_v3_11_36detail21output_string_adapterIcNS_12basic_stringIcNS_11char_traitsIcEENS0_IcEEEEEENS0_ISB_EEEEE8allocateB8ne200100Em
FNA:4,16101,_ZNSt3__19allocatorINS_3mapINS_12basic_stringIcNS_11char_traitsIcEENS0_IcEEEEN8nlohmann16json_abi_v3_11_310basic_jsonIS1_NS_6vectorES6_bxydS0_NS8_14adl_serializerENSA_IhNS0_IhEEEEvEENS_4lessIvEENS0_INS_4pairIKS6_SE_EEEEEEE8allocateB8ne200100Em
FNA:4,0,_ZNSt3__19allocatorINS_4pairINS_12basic_stringIcNS_11char_traitsIcEENS0_IcEEEES6_EEE8allocateB8ne200100Em
FNA:4,0,_ZNSt3__19allocatorINS_4pairIccEEE8allocateB8ne200100Em
FNA:4,0,_ZNSt3__19allocatorINS_4pairImPKcEEE8allocateB8ne200100Em
FNA:4,4,_ZNSt3__19allocatorINS_6threadEE8allocateB8ne200100Em
FNA:4,3271,_ZNSt3__19allocatorINS_6vectorIN8nlohmann16json_abi_v3_11_310basic_jsonINS_3mapES1_NS_12basic_stringIcNS_11char_traitsIcEENS0_IcEEEEbxydS0_NS3_14adl_serializerENS1_IhNS0_IhEEEEvEENS0_ISE_EEEEE8allocateB8ne200100Em
FNA:4,0,_ZNSt3__19allocatorINS_7__stateIcEEE8allocateB8ne200100Em
FNA:4,0,_ZNSt3__19allocatorINS_9sub_matchINS_11__wrap_iterIPKcEEEEE8allocateB8ne200100Em
FNA:4,0,_ZNSt3__19allocatorINS_9sub_matchIPKcEEE8allocateB8ne200100Em
FNA:4,0,_ZNSt3__19allocatorIPKN4inja18BlockStatementNodeEE8allocateB8ne200100Em
FNA:4,0,_ZNSt3__19allocatorIPKN4inja8DataNodeEE8allocateB8ne200100Em
FNA:4,212,_ZNSt3__19allocatorIPKN4inja8TemplateEE8allocateB8ne200100Em
FNA:4,212,_ZNSt3__19allocatorIPKN8nlohmann16json_abi_v3_11_310basic_jsonINS_3mapENS_6vectorENS_12basic_stringIcNS_11char_traitsIcEENS0_IcEEEEbxydS0_NS2_14adl_serializerENS5_IhNS0_IhEEEEvEEE8allocateB8ne200100Em
FNA:4,337,_ZNSt3__19allocatorIPKcE8allocateB8ne200100Em
FNA:4,212,_ZNSt3__19allocatorIPN4inja15IfStatementNodeEE8allocateB8ne200100Em
FNA:4,212,_ZNSt3__19allocatorIPN4inja16ForStatementNodeEE8allocateB8ne200100Em
FNA:4,0,_ZNSt3__19allocatorIPN4inja18BlockStatementNodeEE8allocateB8ne200100Em
FNA:4,491,_ZNSt3__19allocatorIPN8nlohmann16json_abi_v3_11_310basic_jsonINS_3mapENS_6vectorENS_12basic_stringIcNS_11char_traitsIcEENS0_IcEEEEbxydS0_NS2_14adl_serializerENS5_IhNS0_IhEEEEvEEE8allocateB8ne200100Em
FNA:4,424,_ZNSt3__19allocatorIPNS_10shared_ptrIN4inja12FunctionNodeEEEE8allocateB8ne200100Em
FNA:4,0,_ZNSt3__19allocatorIPNS_10unique_ptrIN4dbal8adapters3sql13SqlConnectionENS_14default_deleteIS5_EEEEE8allocateB8ne200100Em
FNA:4,105,_ZNSt3__19allocatorIPNS_16__hash_node_baseIPNS_11__hash_nodeINS_12basic_stringIcNS_11char_traitsIcEENS0_IcEEEEPvEEEEE8allocateB8ne200100Em
FNA:4,49,_ZNSt3__19allocatorIPNS_16__hash_node_baseIPNS_11__hash_nodeINS_17__hash_value_typeINS_12basic_stringIcNS_11char_traitsIcEENS0_IcEEEEN4dbal4core12EntitySchemaEEEPvEEEEE8allocateB8ne200100Em
FNA:4,57,_ZNSt3__19allocatorIPNS_16__hash_node_baseIPNS_11__hash_nodeINS_17__hash_value_typeINS_12basic_stringIcNS_11char_traitsIcEENS0_IcEEEEN4dbal8adapters12EntitySchemaEEEPvEEEEE8allocateB8ne200100Em
FNA:4,0,_ZNSt3__19allocatorIPNS_7__stateIcEEE8allocateB8ne200100Em
FNA:4,0,_ZNSt3__19allocatorIPPKN4inja8DataNodeEE8allocateB8ne200100Em
FNA:4,212,_ZNSt3__19allocatorIPPKN8nlohmann16json_abi_v3_11_310basic_jsonINS_3mapENS_6vectorENS_12basic_stringIcNS_11char_traitsIcEENS0_IcEEEEbxydS0_NS2_14adl_serializerENS5_IhNS0_IhEEEEvEEE8allocateB8ne200100Em
FNA:4,212,_ZNSt3__19allocatorIPPN4inja15IfStatementNodeEE8allocateB8ne200100Em
FNA:4,212,_ZNSt3__19allocatorIPPN4inja16ForStatementNodeEE8allocateB8ne200100Em
FNA:4,0,_ZNSt3__19allocatorIPPN4inja18BlockStatementNodeEE8allocateB8ne200100Em
FNA:4,1729,_ZNSt3__19allocatorIcE8allocateB8ne200100Em
FNA:4,0,_ZNSt3__19allocatorIhE8allocateB8ne200100Em
FNA:4,22,_ZNSt3__19allocatorIiE8allocateB8ne200100Em
FNA:4,165,_ZNSt3__19allocatorImE8allocateB8ne200100Em
FNF:5
FNH:5
DA:71,355497
DA:93,645462
DA:96,65532
DA:98,217470
DA:100,217470
DA:101,0
DA:105,217470
DA:116,217431
DA:120,217431
DA:122,217431
LF:10
LH:9
end_of_record
TN:
SF:/Library/Developer/CommandLineTools/SDKs/MacOSX.sdk/usr/include/c++/v1/__memory/allocator_destructor.h
FNL:0,34,34
FNA:0,424,_ZNSt3__122__allocator_destructorINS_9allocatorINS_10shared_ptrIN4inja12FunctionNodeEEEEEEC1B8ne200100ERS6_m
FNA:0,424,_ZNSt3__122__allocator_destructorINS_9allocatorINS_10shared_ptrIN4inja12FunctionNodeEEEEEEC2B8ne200100ERS6_m
FNA:0,0,_ZNSt3__122__allocator_destructorINS_9allocatorINS_10unique_ptrIN4dbal8adapters3sql13SqlConnectionENS_14default_deleteIS6_EEEEEEEC1B8ne200100ERSA_m
FNA:0,0,_ZNSt3__122__allocator_destructorINS_9allocatorINS_10unique_ptrIN4dbal8adapters3sql13SqlConnectionENS_14default_deleteIS6_EEEEEEEC2B8ne200100ERSA_m
FNA:0,0,_ZNSt3__122__allocator_destructorINS_9allocatorINS_7__stateIcEEEEEC1B8ne200100ERS4_m
FNA:0,0,_ZNSt3__122__allocator_destructorINS_9allocatorINS_7__stateIcEEEEEC2B8ne200100ERS4_m
FNA:0,0,_ZNSt3__122__allocator_destructorINS_9allocatorIPKN4inja8DataNodeEEEEC1B8ne200100ERS6_m
FNA:0,0,_ZNSt3__122__allocator_destructorINS_9allocatorIPKN4inja8DataNodeEEEEC2B8ne200100ERS6_m
FNA:0,212,_ZNSt3__122__allocator_destructorINS_9allocatorIPKN8nlohmann16json_abi_v3_11_310basic_jsonINS_3mapENS_6vectorENS_12basic_stringIcNS_11char_traitsIcEENS1_IcEEEEbxydS1_NS3_14adl_serializerENS6_IhNS1_IhEEEEvEEEEEC1B8ne200100ERSI_m
FNA:0,212,_ZNSt3__122__allocator_destructorINS_9allocatorIPKN8nlohmann16json_abi_v3_11_310basic_jsonINS_3mapENS_6vectorENS_12basic_stringIcNS_11char_traitsIcEENS1_IcEEEEbxydS1_NS3_14adl_serializerENS6_IhNS1_IhEEEEvEEEEEC2B8ne200100ERSI_m
FNA:0,212,_ZNSt3__122__allocator_destructorINS_9allocatorIPN4inja15IfStatementNodeEEEEC1B8ne200100ERS5_m
FNA:0,212,_ZNSt3__122__allocator_destructorINS_9allocatorIPN4inja15IfStatementNodeEEEEC2B8ne200100ERS5_m
FNA:0,212,_ZNSt3__122__allocator_destructorINS_9allocatorIPN4inja16ForStatementNodeEEEEC1B8ne200100ERS5_m
FNA:0,212,_ZNSt3__122__allocator_destructorINS_9allocatorIPN4inja16ForStatementNodeEEEEC2B8ne200100ERS5_m
FNA:0,0,_ZNSt3__122__allocator_destructorINS_9allocatorIPN4inja18BlockStatementNodeEEEEC1B8ne200100ERS5_m
FNA:0,0,_ZNSt3__122__allocator_destructorINS_9allocatorIPN4inja18BlockStatementNodeEEEEC2B8ne200100ERS5_m
FNL:1,35,35
FNA:1,0,_ZNSt3__122__allocator_destructorINS_9allocatorINS_10shared_ptrIN4inja12FunctionNodeEEEEEEclB8ne200100EPS5_
FNA:1,0,_ZNSt3__122__allocator_destructorINS_9allocatorINS_10unique_ptrIN4dbal8adapters3sql13SqlConnectionENS_14default_deleteIS6_EEEEEEEclB8ne200100EPS9_
FNA:1,0,_ZNSt3__122__allocator_destructorINS_9allocatorINS_7__stateIcEEEEEclB8ne200100EPS3_
FNA:1,0,_ZNSt3__122__allocator_destructorINS_9allocatorIPKN4inja8DataNodeEEEEclB8ne200100EPS5_
FNA:1,0,_ZNSt3__122__allocator_destructorINS_9allocatorIPKN8nlohmann16json_abi_v3_11_310basic_jsonINS_3mapENS_6vectorENS_12basic_stringIcNS_11char_traitsIcEENS1_IcEEEEbxydS1_NS3_14adl_serializerENS6_IhNS1_IhEEEEvEEEEEclB8ne200100EPSH_
FNA:1,0,_ZNSt3__122__allocator_destructorINS_9allocatorIPN4inja15IfStatementNodeEEEEclB8ne200100EPS4_
FNA:1,0,_ZNSt3__122__allocator_destructorINS_9allocatorIPN4inja16ForStatementNodeEEEEclB8ne200100EPS4_
FNA:1,0,_ZNSt3__122__allocator_destructorINS_9allocatorIPN4inja18BlockStatementNodeEEEEclB8ne200100EPS4_
FNF:2
FNH:1
DA:34,2120
DA:35,0
LF:2
LH:1
end_of_record
TN:
SF:/Library/Developer/CommandLineTools/SDKs/MacOSX.sdk/usr/include/c++/v1/__memory/allocator_traits.h
FNL:0,269,270
FNA:0,0,_ZNSt3__116allocator_traitsINS_9allocatorIN8nlohmann16json_abi_v3_11_327byte_container_with_subtypeINS_6vectorIhNS1_IhEEEEEEEEE8allocateB8ne200100ERS9_m
FNA:0,424,_ZNSt3__116allocator_traitsINS_9allocatorINS_10shared_ptrIN4inja12FunctionNodeEEEEEE8allocateB8ne200100ERS6_m
FNA:0,0,_ZNSt3__116allocator_traitsINS_9allocatorINS_10unique_ptrIN4dbal8adapters3sql13SqlConnectionENS_14default_deleteIS6_EEEEEEE8allocateB8ne200100ERSA_m
FNA:0,245,_ZNSt3__116allocator_traitsINS_9allocatorINS_11__hash_nodeINS_12basic_stringIcNS_11char_traitsIcEENS1_IcEEEEPvEEEEE8allocateB8ne200100ERSA_m
FNA:0,49,_ZNSt3__116allocator_traitsINS_9allocatorINS_11__hash_nodeINS_17__hash_value_typeINS_12basic_stringIcNS_11char_traitsIcEENS1_IcEEEEN4dbal4core12EntitySchemaEEEPvEEEEE8allocateB8ne200100ERSF_m
FNA:0,114,_ZNSt3__116allocator_traitsINS_9allocatorINS_11__hash_nodeINS_17__hash_value_typeINS_12basic_stringIcNS_11char_traitsIcEENS1_IcEEEEN4dbal8adapters12EntitySchemaEEEPvEEEEE8allocateB8ne200100ERSF_m
FNA:0,0,_ZNSt3__116allocator_traitsINS_9allocatorINS_11__tree_nodeINS_12__value_typeINS_12basic_stringIcNS_11char_traitsIcEENS1_IcEEEEN4dbal4core10CacheEntryIN8nlohmann16json_abi_v3_11_310basic_jsonINS_3mapENS_6vectorES8_bxydS1_NSD_14adl_serializerENSG_IhNS1_IhEEEEvEEEEEEPvEEEEE8allocateB8ne200100ERSP_m
FNA:0,0,_ZNSt3__116allocator_traitsINS_9allocatorINS_11__tree_nodeINS_12__value_typeINS_12basic_stringIcNS_11char_traitsIcEENS1_IcEEEEN4dbal4core12EntitySchemaEEEPvEEEEE8allocateB8ne200100ERSF_m
FNA:0,0,_ZNSt3__116allocator_traitsINS_9allocatorINS_11__tree_nodeINS_12__value_typeINS_12basic_stringIcNS_11char_traitsIcEENS1_IcEEEEN4inja8TemplateEEEPvEEEEE8allocateB8ne200100ERSE_m
FNA:0,80660,_ZNSt3__116allocator_traitsINS_9allocatorINS_11__tree_nodeINS_12__value_typeINS_12basic_stringIcNS_11char_traitsIcEENS1_IcEEEEN8nlohmann16json_abi_v3_11_310basic_jsonINS_3mapENS_6vectorES8_bxydS1_NSA_14adl_serializerENSD_IhNS1_IhEEEEvEEEEPvEEEEE8allocateB8ne200100ERSL_m
FNA:0,0,_ZNSt3__116allocator_traitsINS_9allocatorINS_11__tree_nodeINS_12__value_typeINS_12basic_stringIcNS_11char_traitsIcEENS1_IcEEEENS_10shared_ptrIN4inja18BlockStatementNodeEEEEEPvEEEEE8allocateB8ne200100ERSG_m
FNA:0,4739,_ZNSt3__116allocator_traitsINS_9allocatorINS_11__tree_nodeINS_12__value_typeINS_12basic_stringIcNS_11char_traitsIcEENS1_IcEEEES8_EEPvEEEEE8allocateB8ne200100ERSC_m
FNA:0,0,_ZNSt3__116allocator_traitsINS_9allocatorINS_11__tree_nodeINS_12__value_typeINS_12basic_stringIcNS_11char_traitsIcEENS1_IcEEEEbEEPvEEEEE8allocateB8ne200100ERSC_m
FNA:0,3286,_ZNSt3__116allocator_traitsINS_9allocatorINS_11__tree_nodeINS_12__value_typeINS_4pairINS_12basic_stringIcNS_11char_traitsIcEENS1_IcEEEEiEEN4inja15FunctionStorage12FunctionDataEEEPvEEEEE8allocateB8ne200100ERSH_m
FNA:0,742,_ZNSt3__116allocator_traitsINS_9allocatorINS_11__tree_nodeINS_12basic_stringIcNS_11char_traitsIcEENS1_IcEEEEPvEEEEE8allocateB8ne200100ERSA_m
FNA:0,41930,_ZNSt3__116allocator_traitsINS_9allocatorINS_12basic_stringIcNS_11char_traitsIcEENS1_IcEEEEEEE8allocateB8ne200100ERS7_m
FNA:0,106,_ZNSt3__116allocator_traitsINS_9allocatorINS_20__shared_ptr_emplaceIN4inja11LiteralNodeENS1_IS4_EEEEEEE8allocateB8ne200100ERS7_m
FNA:0,742,_ZNSt3__116allocator_traitsINS_9allocatorINS_20__shared_ptr_emplaceIN4inja12FunctionNodeENS1_IS4_EEEEEEE8allocateB8ne200100ERS7_m
FNA:0,636,_ZNSt3__116allocator_traitsINS_9allocatorINS_20__shared_ptr_emplaceIN4inja15IfStatementNodeENS1_IS4_EEEEEEE8allocateB8ne200100ERS7_m
FNA:0,0,_ZNSt3__116allocator_traitsINS_9allocatorINS_20__shared_ptr_emplaceIN4inja16SetStatementNodeENS1_IS4_EEEEEEE8allocateB8ne200100ERS7_m
FNA:0,0,_ZNSt3__116allocator_traitsINS_9allocatorINS_20__shared_ptr_emplaceIN4inja18BlockStatementNodeENS1_IS4_EEEEEEE8allocateB8ne200100ERS7_m
FNA:0,848,_ZNSt3__116allocator_traitsINS_9allocatorINS_20__shared_ptr_emplaceIN4inja18ExpressionListNodeENS1_IS4_EEEEEEE8allocateB8ne200100ERS7_m
FNA:0,0,_ZNSt3__116allocator_traitsINS_9allocatorINS_20__shared_ptr_emplaceIN4inja20ExtendsStatementNodeENS1_IS4_EEEEEEE8allocateB8ne200100ERS7_m
FNA:0,0,_ZNSt3__116allocator_traitsINS_9allocatorINS_20__shared_ptr_emplaceIN4inja20IncludeStatementNodeENS1_IS4_EEEEEEE8allocateB8ne200100ERS7_m
FNA:0,212,_ZNSt3__116allocator_traitsINS_9allocatorINS_20__shared_ptr_emplaceIN4inja21ForArrayStatementNodeENS1_IS4_EEEEEEE8allocateB8ne200100ERS7_m
FNA:0,0,_ZNSt3__116allocator_traitsINS_9allocatorINS_20__shared_ptr_emplaceIN4inja22ForObjectStatementNodeENS1_IS4_EEEEEEE8allocateB8ne200100ERS7_m
FNA:0,1908,_ZNSt3__116allocator_traitsINS_9allocatorINS_20__shared_ptr_emplaceIN4inja8DataNodeENS1_IS4_EEEEEEE8allocateB8ne200100ERS7_m
FNA:0,1908,_ZNSt3__116allocator_traitsINS_9allocatorINS_20__shared_ptr_emplaceIN4inja8TextNodeENS1_IS4_EEEEEEE8allocateB8ne200100ERS7_m
FNA:0,9858,_ZNSt3__116allocator_traitsINS_9allocatorINS_20__shared_ptr_emplaceIN8nlohmann16json_abi_v3_11_310basic_jsonINS_3mapENS_6vectorENS_12basic_stringIcNS_11char_traitsIcEENS1_IcEEEEbxydS1_NS4_14adl_serializerENS7_IhNS1_IhEEEEvEENS1_ISG_EEEEEEE8allocateB8ne200100ERSJ_m
FNA:0,0,_ZNSt3__116allocator_traitsINS_9allocatorINS_20__shared_ptr_emplaceIN8nlohmann16json_abi_v3_11_36detail21output_string_adapterIcNS_12basic_stringIcNS_11char_traitsIcEENS1_IcEEEEEENS1_ISC_EEEEEEE8allocateB8ne200100ERSF_m
FNA:0,16101,_ZNSt3__116allocator_traitsINS_9allocatorINS_3mapINS_12basic_stringIcNS_11char_traitsIcEENS1_IcEEEEN8nlohmann16json_abi_v3_11_310basic_jsonIS2_NS_6vectorES7_bxydS1_NS9_14adl_serializerENSB_IhNS1_IhEEEEvEENS_4lessIvEENS1_INS_4pairIKS7_SF_EEEEEEEEE8allocateB8ne200100ERSN_m
FNA:0,3271,_ZNSt3__116allocator_traitsINS_9allocatorINS_6vectorIN8nlohmann16json_abi_v3_11_310basic_jsonINS_3mapES2_NS_12basic_stringIcNS_11char_traitsIcEENS1_IcEEEEbxydS1_NS4_14adl_serializerENS2_IhNS1_IhEEEEvEENS1_ISF_EEEEEEE8allocateB8ne200100ERSI_m
FNA:0,0,_ZNSt3__116allocator_traitsINS_9allocatorINS_7__stateIcEEEEE8allocateB8ne200100ERS4_m
FNA:0,0,_ZNSt3__116allocator_traitsINS_9allocatorIPKN4inja8DataNodeEEEE8allocateB8ne200100ERS6_m
FNA:0,212,_ZNSt3__116allocator_traitsINS_9allocatorIPKN8nlohmann16json_abi_v3_11_310basic_jsonINS_3mapENS_6vectorENS_12basic_stringIcNS_11char_traitsIcEENS1_IcEEEEbxydS1_NS3_14adl_serializerENS6_IhNS1_IhEEEEvEEEEE8allocateB8ne200100ERSI_m
FNA:0,212,_ZNSt3__116allocator_traitsINS_9allocatorIPN4inja15IfStatementNodeEEEE8allocateB8ne200100ERS5_m
FNA:0,212,_ZNSt3__116allocator_traitsINS_9allocatorIPN4inja16ForStatementNodeEEEE8allocateB8ne200100ERS5_m
FNA:0,0,_ZNSt3__116allocator_traitsINS_9allocatorIPN4inja18BlockStatementNodeEEEE8allocateB8ne200100ERS5_m
FNA:0,105,_ZNSt3__116allocator_traitsINS_9allocatorIPNS_16__hash_node_baseIPNS_11__hash_nodeINS_12basic_stringIcNS_11char_traitsIcEENS1_IcEEEEPvEEEEEEE8allocateB8ne200100ERSE_m
FNA:0,49,_ZNSt3__116allocator_traitsINS_9allocatorIPNS_16__hash_node_baseIPNS_11__hash_nodeINS_17__hash_value_typeINS_12basic_stringIcNS_11char_traitsIcEENS1_IcEEEEN4dbal4core12EntitySchemaEEEPvEEEEEEE8allocateB8ne200100ERSJ_m
FNA:0,57,_ZNSt3__116allocator_traitsINS_9allocatorIPNS_16__hash_node_baseIPNS_11__hash_nodeINS_17__hash_value_typeINS_12basic_stringIcNS_11char_traitsIcEENS1_IcEEEEN4dbal8adapters12EntitySchemaEEEPvEEEEEEE8allocateB8ne200100ERSJ_m
FNA:0,140,_ZNSt3__116allocator_traitsINS_9allocatorIcEEE8allocateB8ne200100ERS2_m
FNL:1,301,303
FNA:1,4,_ZNSt3__116allocator_traitsINS_9allocatorIN4dbal11FilterGroupEEEE10deallocateB8ne200100ERS4_PS3_m
FNA:1,4,_ZNSt3__116allocator_traitsINS_9allocatorIN4dbal13AggregateSpecEEEE10deallocateB8ne200100ERS4_PS3_m
FNA:1,46,_ZNSt3__116allocator_traitsINS_9allocatorIN4dbal15FilterConditionEEEE10deallocateB8ne200100ERS4_PS3_m
FNA:1,690,_ZNSt3__116allocator_traitsINS_9allocatorIN4dbal4core11EntityFieldEEEE10deallocateB8ne200100ERS5_PS4_m
FNA:1,543,_ZNSt3__116allocator_traitsINS_9allocatorIN4dbal4core11EntityIndexEEEE10deallocateB8ne200100ERS5_PS4_m
FNA:1,0,_ZNSt3__116allocator_traitsINS_9allocatorIN4dbal4core11RelationDefEEEE10deallocateB8ne200100ERS5_PS4_m
FNA:1,0,_ZNSt3__116allocator_traitsINS_9allocatorIN4dbal4core23CompensatingTransaction6UndoOpEEEE10deallocateB8ne200100ERS6_PS5_m
FNA:1,930,_ZNSt3__116allocator_traitsINS_9allocatorIN4dbal8adapters11EntityFieldEEEE10deallocateB8ne200100ERS5_PS4_m
FNA:1,0,_ZNSt3__116allocator_traitsINS_9allocatorIN4dbal8adapters11RelationDefEEEE10deallocateB8ne200100ERS5_PS4_m
FNA:1,815,_ZNSt3__116allocator_traitsINS_9allocatorIN4dbal8adapters15FieldDefinitionEEEE10deallocateB8ne200100ERS5_PS4_m
FNA:1,326,_ZNSt3__116allocator_traitsINS_9allocatorIN4dbal8adapters15IndexDefinitionEEEE10deallocateB8ne200100ERS5_PS4_m
FNA:1,163,_ZNSt3__116allocator_traitsINS_9allocatorIN4dbal8adapters16EntityDefinitionEEEE10deallocateB8ne200100ERS5_PS4_m
FNA:1,0,_ZNSt3__116allocator_traitsINS_9allocatorIN4dbal8adapters18RelationDefinitionEEEE10deallocateB8ne200100ERS5_PS4_m
FNA:1,706,_ZNSt3__116allocator_traitsINS_9allocatorIN4dbal8adapters3sql6SqlRowEEEE10deallocateB8ne200100ERS6_PS5_m
FNA:1,2257,_ZNSt3__116allocator_traitsINS_9allocatorIN4dbal8adapters3sql8SqlParamEEEE10deallocateB8ne200100ERS6_PS5_m
FNA:1,14428,_ZNSt3__116allocator_traitsINS_9allocatorIN8nlohmann16json_abi_v3_11_310basic_jsonINS_3mapENS_6vectorENS_12basic_stringIcNS_11char_traitsIcEENS1_IcEEEEbxydS1_NS3_14adl_serializerENS6_IhNS1_IhEEEEvEEEEE10deallocateB8ne200100ERSG_PSF_m
FNA:1,0,_ZNSt3__116allocator_traitsINS_9allocatorIN8nlohmann16json_abi_v3_11_327byte_container_with_subtypeINS_6vectorIhNS1_IhEEEEEEEEE10deallocateB8ne200100ERS9_PS8_m
FNA:1,424,_ZNSt3__116allocator_traitsINS_9allocatorINS_10shared_ptrIN4inja12FunctionNodeEEEEEE10deallocateB8ne200100ERS6_PS5_m
FNA:1,3180,_ZNSt3__116allocator_traitsINS_9allocatorINS_10shared_ptrIN4inja14ExpressionNodeEEEEEE10deallocateB8ne200100ERS6_PS5_m
FNA:1,2544,_ZNSt3__116allocator_traitsINS_9allocatorINS_10shared_ptrIN4inja7AstNodeEEEEEE10deallocateB8ne200100ERS6_PS5_m
FNA:1,848,_ZNSt3__116allocator_traitsINS_9allocatorINS_10shared_ptrIN8nlohmann16json_abi_v3_11_310basic_jsonINS_3mapENS_6vectorENS_12basic_stringIcNS_11char_traitsIcEENS1_IcEEEEbxydS1_NS4_14adl_serializerENS7_IhNS1_IhEEEEvEEEEEEE10deallocateB8ne200100ERSI_PSH_m
FNA:1,228,_ZNSt3__116allocator_traitsINS_9allocatorINS_10unique_ptrIN4dbal8adapters3sql13SqlConnectionENS_14default_deleteIS6_EEEEEEE10deallocateB8ne200100ERSA_PS9_m
FNA:1,245,_ZNSt3__116allocator_traitsINS_9allocatorINS_11__hash_nodeINS_12basic_stringIcNS_11char_traitsIcEENS1_IcEEEEPvEEEEE10deallocateB8ne200100ERSA_PS9_m
FNA:1,49,_ZNSt3__116allocator_traitsINS_9allocatorINS_11__hash_nodeINS_17__hash_value_typeINS_12basic_stringIcNS_11char_traitsIcEENS1_IcEEEEN4dbal4core12EntitySchemaEEEPvEEEEE10deallocateB8ne200100ERSF_PSE_m
FNA:1,114,_ZNSt3__116allocator_traitsINS_9allocatorINS_11__hash_nodeINS_17__hash_value_typeINS_12basic_stringIcNS_11char_traitsIcEENS1_IcEEEEN4dbal8adapters12EntitySchemaEEEPvEEEEE10deallocateB8ne200100ERSF_PSE_m
FNA:1,0,_ZNSt3__116allocator_traitsINS_9allocatorINS_11__tree_nodeINS_12__value_typeINS_12basic_stringIcNS_11char_traitsIcEENS1_IcEEEEN4dbal4core10CacheEntryIN8nlohmann16json_abi_v3_11_310basic_jsonINS_3mapENS_6vectorES8_bxydS1_NSD_14adl_serializerENSG_IhNS1_IhEEEEvEEEEEEPvEEEEE10deallocateB8ne200100ERSP_PSO_m
FNA:1,0,_ZNSt3__116allocator_traitsINS_9allocatorINS_11__tree_nodeINS_12__value_typeINS_12basic_stringIcNS_11char_traitsIcEENS1_IcEEEEN4dbal4core12EntitySchemaEEEPvEEEEE10deallocateB8ne200100ERSF_PSE_m
FNA:1,0,_ZNSt3__116allocator_traitsINS_9allocatorINS_11__tree_nodeINS_12__value_typeINS_12basic_stringIcNS_11char_traitsIcEENS1_IcEEEEN4inja8TemplateEEEPvEEEEE10deallocateB8ne200100ERSE_PSD_m
FNA:1,80660,_ZNSt3__116allocator_traitsINS_9allocatorINS_11__tree_nodeINS_12__value_typeINS_12basic_stringIcNS_11char_traitsIcEENS1_IcEEEEN8nlohmann16json_abi_v3_11_310basic_jsonINS_3mapENS_6vectorES8_bxydS1_NSA_14adl_serializerENSD_IhNS1_IhEEEEvEEEEPvEEEEE10deallocateB8ne200100ERSL_PSK_m
FNA:1,0,_ZNSt3__116allocator_traitsINS_9allocatorINS_11__tree_nodeINS_12__value_typeINS_12basic_stringIcNS_11char_traitsIcEENS1_IcEEEENS_10shared_ptrIN4inja18BlockStatementNodeEEEEEPvEEEEE10deallocateB8ne200100ERSG_PSF_m
FNA:1,4739,_ZNSt3__116allocator_traitsINS_9allocatorINS_11__tree_nodeINS_12__value_typeINS_12basic_stringIcNS_11char_traitsIcEENS1_IcEEEES8_EEPvEEEEE10deallocateB8ne200100ERSC_PSB_m
FNA:1,0,_ZNSt3__116allocator_traitsINS_9allocatorINS_11__tree_nodeINS_12__value_typeINS_12basic_stringIcNS_11char_traitsIcEENS1_IcEEEEbEEPvEEEEE10deallocateB8ne200100ERSC_PSB_m
FNA:1,3286,_ZNSt3__116allocator_traitsINS_9allocatorINS_11__tree_nodeINS_12__value_typeINS_4pairINS_12basic_stringIcNS_11char_traitsIcEENS1_IcEEEEiEEN4inja15FunctionStorage12FunctionDataEEEPvEEEEE10deallocateB8ne200100ERSH_PSG_m
FNA:1,742,_ZNSt3__116allocator_traitsINS_9allocatorINS_11__tree_nodeINS_12basic_stringIcNS_11char_traitsIcEENS1_IcEEEEPvEEEEE10deallocateB8ne200100ERSA_PS9_m
FNA:1,59041,_ZNSt3__116allocator_traitsINS_9allocatorINS_12basic_stringIcNS_11char_traitsIcEENS1_IcEEEEEEE10deallocateB8ne200100ERS7_PS6_m
FNA:1,106,_ZNSt3__116allocator_traitsINS_9allocatorINS_20__shared_ptr_emplaceIN4inja11LiteralNodeENS1_IS4_EEEEEEE10deallocateB8ne200100ERS7_PS6_m
FNA:1,742,_ZNSt3__116allocator_traitsINS_9allocatorINS_20__shared_ptr_emplaceIN4inja12FunctionNodeENS1_IS4_EEEEEEE10deallocateB8ne200100ERS7_PS6_m
FNA:1,636,_ZNSt3__116allocator_traitsINS_9allocatorINS_20__shared_ptr_emplaceIN4inja15IfStatementNodeENS1_IS4_EEEEEEE10deallocateB8ne200100ERS7_PS6_m
FNA:1,0,_ZNSt3__116allocator_traitsINS_9allocatorINS_20__shared_ptr_emplaceIN4inja16SetStatementNodeENS1_IS4_EEEEEEE10deallocateB8ne200100ERS7_PS6_m
FNA:1,0,_ZNSt3__116allocator_traitsINS_9allocatorINS_20__shared_ptr_emplaceIN4inja18BlockStatementNodeENS1_IS4_EEEEEEE10deallocateB8ne200100ERS7_PS6_m
FNA:1,848,_ZNSt3__116allocator_traitsINS_9allocatorINS_20__shared_ptr_emplaceIN4inja18ExpressionListNodeENS1_IS4_EEEEEEE10deallocateB8ne200100ERS7_PS6_m
FNA:1,0,_ZNSt3__116allocator_traitsINS_9allocatorINS_20__shared_ptr_emplaceIN4inja20ExtendsStatementNodeENS1_IS4_EEEEEEE10deallocateB8ne200100ERS7_PS6_m
FNA:1,0,_ZNSt3__116allocator_traitsINS_9allocatorINS_20__shared_ptr_emplaceIN4inja20IncludeStatementNodeENS1_IS4_EEEEEEE10deallocateB8ne200100ERS7_PS6_m
FNA:1,212,_ZNSt3__116allocator_traitsINS_9allocatorINS_20__shared_ptr_emplaceIN4inja21ForArrayStatementNodeENS1_IS4_EEEEEEE10deallocateB8ne200100ERS7_PS6_m
FNA:1,0,_ZNSt3__116allocator_traitsINS_9allocatorINS_20__shared_ptr_emplaceIN4inja22ForObjectStatementNodeENS1_IS4_EEEEEEE10deallocateB8ne200100ERS7_PS6_m
FNA:1,1908,_ZNSt3__116allocator_traitsINS_9allocatorINS_20__shared_ptr_emplaceIN4inja8DataNodeENS1_IS4_EEEEEEE10deallocateB8ne200100ERS7_PS6_m
FNA:1,1908,_ZNSt3__116allocator_traitsINS_9allocatorINS_20__shared_ptr_emplaceIN4inja8TextNodeENS1_IS4_EEEEEEE10deallocateB8ne200100ERS7_PS6_m
FNA:1,9858,_ZNSt3__116allocator_traitsINS_9allocatorINS_20__shared_ptr_emplaceIN8nlohmann16json_abi_v3_11_310basic_jsonINS_3mapENS_6vectorENS_12basic_stringIcNS_11char_traitsIcEENS1_IcEEEEbxydS1_NS4_14adl_serializerENS7_IhNS1_IhEEEEvEENS1_ISG_EEEEEEE10deallocateB8ne200100ERSJ_PSI_m
FNA:1,0,_ZNSt3__116allocator_traitsINS_9allocatorINS_20__shared_ptr_emplaceIN8nlohmann16json_abi_v3_11_36detail21output_string_adapterIcNS_12basic_stringIcNS_11char_traitsIcEENS1_IcEEEEEENS1_ISC_EEEEEEE10deallocateB8ne200100ERSF_PSE_m
FNA:1,16101,_ZNSt3__116allocator_traitsINS_9allocatorINS_3mapINS_12basic_stringIcNS_11char_traitsIcEENS1_IcEEEEN8nlohmann16json_abi_v3_11_310basic_jsonIS2_NS_6vectorES7_bxydS1_NS9_14adl_serializerENSB_IhNS1_IhEEEEvEENS_4lessIvEENS1_INS_4pairIKS7_SF_EEEEEEEEE10deallocateB8ne200100ERSN_PSM_m
FNA:1,0,_ZNSt3__116allocator_traitsINS_9allocatorINS_4pairINS_12basic_stringIcNS_11char_traitsIcEENS1_IcEEEES7_EEEEE10deallocateB8ne200100ERS9_PS8_m
FNA:1,0,_ZNSt3__116allocator_traitsINS_9allocatorINS_4pairIccEEEEE10deallocateB8ne200100ERS4_PS3_m
FNA:1,0,_ZNSt3__116allocator_traitsINS_9allocatorINS_4pairImPKcEEEEE10deallocateB8ne200100ERS6_PS5_m
FNA:1,4,_ZNSt3__116allocator_traitsINS_9allocatorINS_6threadEEEE10deallocateB8ne200100ERS3_PS2_m
FNA:1,3271,_ZNSt3__116allocator_traitsINS_9allocatorINS_6vectorIN8nlohmann16json_abi_v3_11_310basic_jsonINS_3mapES2_NS_12basic_stringIcNS_11char_traitsIcEENS1_IcEEEEbxydS1_NS4_14adl_serializerENS2_IhNS1_IhEEEEvEENS1_ISF_EEEEEEE10deallocateB8ne200100ERSI_PSH_m
FNA:1,0,_ZNSt3__116allocator_traitsINS_9allocatorINS_7__stateIcEEEEE10deallocateB8ne200100ERS4_PS3_m
FNA:1,0,_ZNSt3__116allocator_traitsINS_9allocatorINS_9sub_matchINS_11__wrap_iterIPKcEEEEEEE10deallocateB8ne200100ERS8_PS7_m
FNA:1,0,_ZNSt3__116allocator_traitsINS_9allocatorINS_9sub_matchIPKcEEEEE10deallocateB8ne200100ERS6_PS5_m
FNA:1,0,_ZNSt3__116allocator_traitsINS_9allocatorIPKN4inja18BlockStatementNodeEEEE10deallocateB8ne200100ERS6_PS5_m
FNA:1,0,_ZNSt3__116allocator_traitsINS_9allocatorIPKN4inja8DataNodeEEEE10deallocateB8ne200100ERS6_PS5_m
FNA:1,212,_ZNSt3__116allocator_traitsINS_9allocatorIPKN4inja8TemplateEEEE10deallocateB8ne200100ERS6_PS5_m
FNA:1,212,_ZNSt3__116allocator_traitsINS_9allocatorIPKN8nlohmann16json_abi_v3_11_310basic_jsonINS_3mapENS_6vectorENS_12basic_stringIcNS_11char_traitsIcEENS1_IcEEEEbxydS1_NS3_14adl_serializerENS6_IhNS1_IhEEEEvEEEEE10deallocateB8ne200100ERSI_PSH_m
FNA:1,337,_ZNSt3__116allocator_traitsINS_9allocatorIPKcEEE10deallocateB8ne200100ERS4_PS3_m
FNA:1,212,_ZNSt3__116allocator_traitsINS_9allocatorIPN4inja15IfStatementNodeEEEE10deallocateB8ne200100ERS5_PS4_m
FNA:1,212,_ZNSt3__116allocator_traitsINS_9allocatorIPN4inja16ForStatementNodeEEEE10deallocateB8ne200100ERS5_PS4_m
FNA:1,0,_ZNSt3__116allocator_traitsINS_9allocatorIPN4inja18BlockStatementNodeEEEE10deallocateB8ne200100ERS5_PS4_m
FNA:1,491,_ZNSt3__116allocator_traitsINS_9allocatorIPN8nlohmann16json_abi_v3_11_310basic_jsonINS_3mapENS_6vectorENS_12basic_stringIcNS_11char_traitsIcEENS1_IcEEEEbxydS1_NS3_14adl_serializerENS6_IhNS1_IhEEEEvEEEEE10deallocateB8ne200100ERSH_PSG_m
FNA:1,424,_ZNSt3__116allocator_traitsINS_9allocatorIPNS_10shared_ptrIN4inja12FunctionNodeEEEEEE10deallocateB8ne200100ERS7_PS6_m
FNA:1,0,_ZNSt3__116allocator_traitsINS_9allocatorIPNS_10unique_ptrIN4dbal8adapters3sql13SqlConnectionENS_14default_deleteIS6_EEEEEEE10deallocateB8ne200100ERSB_PSA_m
FNA:1,105,_ZNSt3__116allocator_traitsINS_9allocatorIPNS_16__hash_node_baseIPNS_11__hash_nodeINS_12basic_stringIcNS_11char_traitsIcEENS1_IcEEEEPvEEEEEEE10deallocateB8ne200100ERSE_PSD_m
FNA:1,49,_ZNSt3__116allocator_traitsINS_9allocatorIPNS_16__hash_node_baseIPNS_11__hash_nodeINS_17__hash_value_typeINS_12basic_stringIcNS_11char_traitsIcEENS1_IcEEEEN4dbal4core12EntitySchemaEEEPvEEEEEEE10deallocateB8ne200100ERSJ_PSI_m
FNA:1,57,_ZNSt3__116allocator_traitsINS_9allocatorIPNS_16__hash_node_baseIPNS_11__hash_nodeINS_17__hash_value_typeINS_12basic_stringIcNS_11char_traitsIcEENS1_IcEEEEN4dbal8adapters12EntitySchemaEEEPvEEEEEEE10deallocateB8ne200100ERSJ_PSI_m
FNA:1,0,_ZNSt3__116allocator_traitsINS_9allocatorIPNS_7__stateIcEEEEE10deallocateB8ne200100ERS5_PS4_m
FNA:1,0,_ZNSt3__116allocator_traitsINS_9allocatorIPPKN4inja8DataNodeEEEE10deallocateB8ne200100ERS7_PS6_m
FNA:1,212,_ZNSt3__116allocator_traitsINS_9allocatorIPPKN8nlohmann16json_abi_v3_11_310basic_jsonINS_3mapENS_6vectorENS_12basic_stringIcNS_11char_traitsIcEENS1_IcEEEEbxydS1_NS3_14adl_serializerENS6_IhNS1_IhEEEEvEEEEE10deallocateB8ne200100ERSJ_PSI_m
FNA:1,212,_ZNSt3__116allocator_traitsINS_9allocatorIPPN4inja15IfStatementNodeEEEE10deallocateB8ne200100ERS6_PS5_m
FNA:1,212,_ZNSt3__116allocator_traitsINS_9allocatorIPPN4inja16ForStatementNodeEEEE10deallocateB8ne200100ERS6_PS5_m
FNA:1,0,_ZNSt3__116allocator_traitsINS_9allocatorIPPN4inja18BlockStatementNodeEEEE10deallocateB8ne200100ERS6_PS5_m
FNA:1,1695,_ZNSt3__116allocator_traitsINS_9allocatorIcEEE10deallocateB8ne200100ERS2_Pcm
FNA:1,0,_ZNSt3__116allocator_traitsINS_9allocatorIhEEE10deallocateB8ne200100ERS2_Phm
FNA:1,18,_ZNSt3__116allocator_traitsINS_9allocatorIiEEE10deallocateB8ne200100ERS2_Pim
FNA:1,165,_ZNSt3__116allocator_traitsINS_9allocatorImEEE10deallocateB8ne200100ERS2_Pmm
FNL:2,317,319
FNA:2,4,_ZNSt3__116allocator_traitsINS_9allocatorIN4dbal11FilterGroupEEEE9constructB8ne200100IS3_JRKS3_EvLi0EEEvRS4_PT_DpOT0_
FNA:2,0,_ZNSt3__116allocator_traitsINS_9allocatorIN4dbal11FilterGroupEEEE9constructB8ne200100IS3_JS3_EvLi0EEEvRS4_PT_DpOT0_
FNA:2,4,_ZNSt3__116allocator_traitsINS_9allocatorIN4dbal13AggregateSpecEEEE9constructB8ne200100IS3_JS3_EvLi0EEEvRS4_PT_DpOT0_
FNA:2,6,_ZNSt3__116allocator_traitsINS_9allocatorIN4dbal15FilterConditionEEEE9constructB8ne200100IS3_JRKS3_EvLi0EEEvRS4_PT_DpOT0_
FNA:2,8,_ZNSt3__116allocator_traitsINS_9allocatorIN4dbal15FilterConditionEEEE9constructB8ne200100IS3_JRS3_EvLi0EEEvRS4_PT_DpOT0_
FNA:2,40,_ZNSt3__116allocator_traitsINS_9allocatorIN4dbal15FilterConditionEEEE9constructB8ne200100IS3_JS3_EvLi0EEEvRS4_PT_DpOT0_
FNA:2,343,_ZNSt3__116allocator_traitsINS_9allocatorIN4dbal4core11EntityFieldEEEE9constructB8ne200100IS4_JRKS4_EvLi0EEEvRS5_PT_DpOT0_
FNA:2,3458,_ZNSt3__116allocator_traitsINS_9allocatorIN4dbal4core11EntityFieldEEEE9constructB8ne200100IS4_JRS4_EvLi0EEEvRS5_PT_DpOT0_
FNA:2,343,_ZNSt3__116allocator_traitsINS_9allocatorIN4dbal4core11EntityFieldEEEE9constructB8ne200100IS4_JS4_EvLi0EEEvRS5_PT_DpOT0_
FNA:2,49,_ZNSt3__116allocator_traitsINS_9allocatorIN4dbal4core11EntityIndexEEEE9constructB8ne200100IS4_JRKS4_EvLi0EEEvRS5_PT_DpOT0_
FNA:2,494,_ZNSt3__116allocator_traitsINS_9allocatorIN4dbal4core11EntityIndexEEEE9constructB8ne200100IS4_JRS4_EvLi0EEEvRS5_PT_DpOT0_
FNA:2,0,_ZNSt3__116allocator_traitsINS_9allocatorIN4dbal4core11EntityIndexEEEE9constructB8ne200100IS4_JS4_EvLi0EEEvRS5_PT_DpOT0_
FNA:2,0,_ZNSt3__116allocator_traitsINS_9allocatorIN4dbal4core11RelationDefEEEE9constructB8ne200100IS4_JRS4_EvLi0EEEvRS5_PT_DpOT0_
FNA:2,0,_ZNSt3__116allocator_traitsINS_9allocatorIN4dbal4core23CompensatingTransaction6UndoOpEEEE9constructB8ne200100IS5_JS5_EvLi0EEEvRS6_PT_DpOT0_
FNA:2,406,_ZNSt3__116allocator_traitsINS_9allocatorIN4dbal8adapters11EntityFieldEEEE9constructB8ne200100IS4_JRKS4_EvLi0EEEvRS5_PT_DpOT0_
FNA:2,4886,_ZNSt3__116allocator_traitsINS_9allocatorIN4dbal8adapters11EntityFieldEEEE9constructB8ne200100IS4_JRS4_EvLi0EEEvRS5_PT_DpOT0_
FNA:2,406,_ZNSt3__116allocator_traitsINS_9allocatorIN4dbal8adapters11EntityFieldEEEE9constructB8ne200100IS4_JS4_EvLi0EEEvRS5_PT_DpOT0_
FNA:2,0,_ZNSt3__116allocator_traitsINS_9allocatorIN4dbal8adapters11RelationDefEEEE9constructB8ne200100IS4_JRKS4_EvLi0EEEvRS5_PT_DpOT0_
FNA:2,0,_ZNSt3__116allocator_traitsINS_9allocatorIN4dbal8adapters11RelationDefEEEE9constructB8ne200100IS4_JRS4_EvLi0EEEvRS5_PT_DpOT0_
FNA:2,0,_ZNSt3__116allocator_traitsINS_9allocatorIN4dbal8adapters11RelationDefEEEE9constructB8ne200100IS4_JS4_EvLi0EEEvRS5_PT_DpOT0_
FNA:2,1141,_ZNSt3__116allocator_traitsINS_9allocatorIN4dbal8adapters15FieldDefinitionEEEE9constructB8ne200100IS4_JRKS4_EvLi0EEEvRS5_PT_DpOT0_
FNA:2,1141,_ZNSt3__116allocator_traitsINS_9allocatorIN4dbal8adapters15FieldDefinitionEEEE9constructB8ne200100IS4_JRS4_EvLi0EEEvRS5_PT_DpOT0_
FNA:2,1141,_ZNSt3__116allocator_traitsINS_9allocatorIN4dbal8adapters15FieldDefinitionEEEE9constructB8ne200100IS4_JS4_EvLi0EEEvRS5_PT_DpOT0_
FNA:2,163,_ZNSt3__116allocator_traitsINS_9allocatorIN4dbal8adapters15IndexDefinitionEEEE9constructB8ne200100IS4_JRKS4_EvLi0EEEvRS5_PT_DpOT0_
FNA:2,163,_ZNSt3__116allocator_traitsINS_9allocatorIN4dbal8adapters15IndexDefinitionEEEE9constructB8ne200100IS4_JRS4_EvLi0EEEvRS5_PT_DpOT0_
FNA:2,0,_ZNSt3__116allocator_traitsINS_9allocatorIN4dbal8adapters15IndexDefinitionEEEE9constructB8ne200100IS4_JS4_EvLi0EEEvRS5_PT_DpOT0_
FNA:2,163,_ZNSt3__116allocator_traitsINS_9allocatorIN4dbal8adapters16EntityDefinitionEEEE9constructB8ne200100IS4_JRKS4_EvLi0EEEvRS5_PT_DpOT0_
FNA:2,0,_ZNSt3__116allocator_traitsINS_9allocatorIN4dbal8adapters16EntityDefinitionEEEE9constructB8ne200100IS4_JS4_EvLi0EEEvRS5_PT_DpOT0_
FNA:2,0,_ZNSt3__116allocator_traitsINS_9allocatorIN4dbal8adapters18RelationDefinitionEEEE9constructB8ne200100IS4_JRKS4_EvLi0EEEvRS5_PT_DpOT0_
FNA:2,0,_ZNSt3__116allocator_traitsINS_9allocatorIN4dbal8adapters18RelationDefinitionEEEE9constructB8ne200100IS4_JRS4_EvLi0EEEvRS5_PT_DpOT0_
FNA:2,0,_ZNSt3__116allocator_traitsINS_9allocatorIN4dbal8adapters18RelationDefinitionEEEE9constructB8ne200100IS4_JS4_EvLi0EEEvRS5_PT_DpOT0_
FNA:2,1283,_ZNSt3__116allocator_traitsINS_9allocatorIN4dbal8adapters3sql6SqlRowEEEE9constructB8ne200100IS5_JS5_EvLi0EEEvRS6_PT_DpOT0_
FNA:2,65,_ZNSt3__116allocator_traitsINS_9allocatorIN4dbal8adapters3sql8SqlParamEEEE9constructB8ne200100IS5_JRKS5_EvLi0EEEvRS6_PT_DpOT0_
FNA:2,56,_ZNSt3__116allocator_traitsINS_9allocatorIN4dbal8adapters3sql8SqlParamEEEE9constructB8ne200100IS5_JRS5_EvLi0EEEvRS6_PT_DpOT0_
FNA:2,6591,_ZNSt3__116allocator_traitsINS_9allocatorIN4dbal8adapters3sql8SqlParamEEEE9constructB8ne200100IS5_JS5_EvLi0EEEvRS6_PT_DpOT0_
FNA:2,106,_ZNSt3__116allocator_traitsINS_9allocatorIN4inja11LiteralNodeEEEE9constructB8ne200100IS3_JRKNS_17basic_string_viewIcNS_11char_traitsIcEEEElEvLi0EEEvRS4_PT_DpOT0_
FNA:2,636,_ZNSt3__116allocator_traitsINS_9allocatorIN4inja12FunctionNodeEEEE9constructB8ne200100IS3_JRNS2_15FunctionStorage9OperationElEvLi0EEEvRS4_PT_DpOT0_
FNA:2,106,_ZNSt3__116allocator_traitsINS_9allocatorIN4inja12FunctionNodeEEEE9constructB8ne200100IS3_JRNS_17basic_string_viewIcNS_11char_traitsIcEEEElEvLi0EEEvRS4_PT_DpOT0_
FNA:2,636,_ZNSt3__116allocator_traitsINS_9allocatorIN4inja15IfStatementNodeEEEE9constructB8ne200100IS3_JRPNS2_9BlockNodeElEvLi0EEEvRS4_PT_DpOT0_
FNA:2,0,_ZNSt3__116allocator_traitsINS_9allocatorIN4inja15IfStatementNodeEEEE9constructB8ne200100IS3_JbRPNS2_9BlockNodeElEvLi0EEEvRS4_PT_DpOT0_
FNA:2,0,_ZNSt3__116allocator_traitsINS_9allocatorIN4inja16SetStatementNodeEEEE9constructB8ne200100IS3_JRKNS_12basic_stringIcNS_11char_traitsIcEENS1_IcEEEElEvLi0EEEvRS4_PT_DpOT0_
FNA:2,0,_ZNSt3__116allocator_traitsINS_9allocatorIN4inja18BlockStatementNodeEEEE9constructB8ne200100IS3_JRPNS2_9BlockNodeERKNS_12basic_stringIcNS_11char_traitsIcEENS1_IcEEEElEvLi0EEEvRS4_PT_DpOT0_
FNA:2,848,_ZNSt3__116allocator_traitsINS_9allocatorIN4inja18ExpressionListNodeEEEE9constructB8ne200100IS3_JlEvLi0EEEvRS4_PT_DpOT0_
FNA:2,0,_ZNSt3__116allocator_traitsINS_9allocatorIN4inja20ExtendsStatementNodeEEEE9constructB8ne200100IS3_JRNS_12basic_stringIcNS_11char_traitsIcEENS1_IcEEEElEvLi0EEEvRS4_PT_DpOT0_
FNA:2,0,_ZNSt3__116allocator_traitsINS_9allocatorIN4inja20IncludeStatementNodeEEEE9constructB8ne200100IS3_JRNS_12basic_stringIcNS_11char_traitsIcEENS1_IcEEEElEvLi0EEEvRS4_PT_DpOT0_
FNA:2,212,_ZNSt3__116allocator_traitsINS_9allocatorIN4inja21ForArrayStatementNodeEEEE9constructB8ne200100IS3_JNS_12basic_stringIcNS_11char_traitsIcEENS1_IcEEEERPNS2_9BlockNodeElEvLi0EEEvRS4_PT_DpOT0_
FNA:2,0,_ZNSt3__116allocator_traitsINS_9allocatorIN4inja22ForObjectStatementNodeEEEE9constructB8ne200100IS3_JNS_12basic_stringIcNS_11char_traitsIcEENS1_IcEEEESB_RPNS2_9BlockNodeElEvLi0EEEvRS4_PT_DpOT0_
FNA:2,1908,_ZNSt3__116allocator_traitsINS_9allocatorIN4inja8DataNodeEEEE9constructB8ne200100IS3_JNS_12basic_stringIcNS_11char_traitsIcEENS1_IcEEEElEvLi0EEEvRS4_PT_DpOT0_
FNA:2,1908,_ZNSt3__116allocator_traitsINS_9allocatorIN4inja8TextNodeEEEE9constructB8ne200100IS3_JlmEvLi0EEEvRS4_PT_DpOT0_
FNA:2,0,_ZNSt3__116allocator_traitsINS_9allocatorIN8nlohmann16json_abi_v3_11_310basic_jsonINS_3mapENS_6vectorENS_12basic_stringIcNS_11char_traitsIcEENS1_IcEEEEbxydS1_NS3_14adl_serializerENS6_IhNS1_IhEEEEvEEEEE9constructB8ne200100ISF_JDnEvLi0EEEvRSG_PT_DpOT0_
FNA:2,0,_ZNSt3__116allocator_traitsINS_9allocatorIN8nlohmann16json_abi_v3_11_310basic_jsonINS_3mapENS_6vectorENS_12basic_stringIcNS_11char_traitsIcEENS1_IcEEEEbxydS1_NS3_14adl_serializerENS6_IhNS1_IhEEEEvEEEEE9constructB8ne200100ISF_JEvLi0EEEvRSG_PT_DpOT0_
FNA:2,163,_ZNSt3__116allocator_traitsINS_9allocatorIN8nlohmann16json_abi_v3_11_310basic_jsonINS_3mapENS_6vectorENS_12basic_stringIcNS_11char_traitsIcEENS1_IcEEEEbxydS1_NS3_14adl_serializerENS6_IhNS1_IhEEEEvEEEEE9constructB8ne200100ISF_JNS3_6detail7value_tEEvLi0EEEvRSG_PT_DpOT0_
FNA:2,0,_ZNSt3__116allocator_traitsINS_9allocatorIN8nlohmann16json_abi_v3_11_310basic_jsonINS_3mapENS_6vectorENS_12basic_stringIcNS_11char_traitsIcEENS1_IcEEEEbxydS1_NS3_14adl_serializerENS6_IhNS1_IhEEEEvEEEEE9constructB8ne200100ISF_JNS6_ISF_SG_EEEvLi0EEEvRSG_PT_DpOT0_
FNA:2,183,_ZNSt3__116allocator_traitsINS_9allocatorIN8nlohmann16json_abi_v3_11_310basic_jsonINS_3mapENS_6vectorENS_12basic_stringIcNS_11char_traitsIcEENS1_IcEEEEbxydS1_NS3_14adl_serializerENS6_IhNS1_IhEEEEvEEEEE9constructB8ne200100ISF_JRKNS3_6detail8json_refISF_EEEvLi0EEEvRSG_PT_DpOT0_
FNA:2,424,_ZNSt3__116allocator_traitsINS_9allocatorIN8nlohmann16json_abi_v3_11_310basic_jsonINS_3mapENS_6vectorENS_12basic_stringIcNS_11char_traitsIcEENS1_IcEEEEbxydS1_NS3_14adl_serializerENS6_IhNS1_IhEEEEvEEEEE9constructB8ne200100ISF_JRKSB_EvLi0EEEvRSG_PT_DpOT0_
FNA:2,11566,_ZNSt3__116allocator_traitsINS_9allocatorIN8nlohmann16json_abi_v3_11_310basic_jsonINS_3mapENS_6vectorENS_12basic_stringIcNS_11char_traitsIcEENS1_IcEEEEbxydS1_NS3_14adl_serializerENS6_IhNS1_IhEEEEvEEEEE9constructB8ne200100ISF_JRKSF_EvLi0EEEvRSG_PT_DpOT0_
FNA:2,0,_ZNSt3__116allocator_traitsINS_9allocatorIN8nlohmann16json_abi_v3_11_310basic_jsonINS_3mapENS_6vectorENS_12basic_stringIcNS_11char_traitsIcEENS1_IcEEEEbxydS1_NS3_14adl_serializerENS6_IhNS1_IhEEEEvEEEEE9constructB8ne200100ISF_JRKiEvLi0EEEvRSG_PT_DpOT0_
FNA:2,326,_ZNSt3__116allocator_traitsINS_9allocatorIN8nlohmann16json_abi_v3_11_310basic_jsonINS_3mapENS_6vectorENS_12basic_stringIcNS_11char_traitsIcEENS1_IcEEEEbxydS1_NS3_14adl_serializerENS6_IhNS1_IhEEEEvEEEEE9constructB8ne200100ISF_JRSB_EvLi0EEEvRSG_PT_DpOT0_
FNA:2,6292,_ZNSt3__116allocator_traitsINS_9allocatorIN8nlohmann16json_abi_v3_11_310basic_jsonINS_3mapENS_6vectorENS_12basic_stringIcNS_11char_traitsIcEENS1_IcEEEEbxydS1_NS3_14adl_serializerENS6_IhNS1_IhEEEEvEEEEE9constructB8ne200100ISF_JRSF_EvLi0EEEvRSG_PT_DpOT0_
FNA:2,0,_ZNSt3__116allocator_traitsINS_9allocatorIN8nlohmann16json_abi_v3_11_310basic_jsonINS_3mapENS_6vectorENS_12basic_stringIcNS_11char_traitsIcEENS1_IcEEEEbxydS1_NS3_14adl_serializerENS6_IhNS1_IhEEEEvEEEEE9constructB8ne200100ISF_JRbEvLi0EEEvRSG_PT_DpOT0_
FNA:2,0,_ZNSt3__116allocator_traitsINS_9allocatorIN8nlohmann16json_abi_v3_11_310basic_jsonINS_3mapENS_6vectorENS_12basic_stringIcNS_11char_traitsIcEENS1_IcEEEEbxydS1_NS3_14adl_serializerENS6_IhNS1_IhEEEEvEEEEE9constructB8ne200100ISF_JRdEvLi0EEEvRSG_PT_DpOT0_
FNA:2,0,_ZNSt3__116allocator_traitsINS_9allocatorIN8nlohmann16json_abi_v3_11_310basic_jsonINS_3mapENS_6vectorENS_12basic_stringIcNS_11char_traitsIcEENS1_IcEEEEbxydS1_NS3_14adl_serializerENS6_IhNS1_IhEEEEvEEEEE9constructB8ne200100ISF_JRxEvLi0EEEvRSG_PT_DpOT0_
FNA:2,0,_ZNSt3__116allocator_traitsINS_9allocatorIN8nlohmann16json_abi_v3_11_310basic_jsonINS_3mapENS_6vectorENS_12basic_stringIcNS_11char_traitsIcEENS1_IcEEEEbxydS1_NS3_14adl_serializerENS6_IhNS1_IhEEEEvEEEEE9constructB8ne200100ISF_JRyEvLi0EEEvRSG_PT_DpOT0_
FNA:2,103991,_ZNSt3__116allocator_traitsINS_9allocatorIN8nlohmann16json_abi_v3_11_310basic_jsonINS_3mapENS_6vectorENS_12basic_stringIcNS_11char_traitsIcEENS1_IcEEEEbxydS1_NS3_14adl_serializerENS6_IhNS1_IhEEEEvEEEEE9constructB8ne200100ISF_JSF_EvLi0EEEvRSG_PT_DpOT0_
FNA:2,0,_ZNSt3__116allocator_traitsINS_9allocatorIN8nlohmann16json_abi_v3_11_327byte_container_with_subtypeINS_6vectorIhNS1_IhEEEEEEEEE9constructB8ne200100IS8_JEvLi0EEEvRS9_PT_DpOT0_
FNA:2,0,_ZNSt3__116allocator_traitsINS_9allocatorIN8nlohmann16json_abi_v3_11_327byte_container_with_subtypeINS_6vectorIhNS1_IhEEEEEEEEE9constructB8ne200100IS8_JRKS8_EvLi0EEEvRS9_PT_DpOT0_
FNA:2,0,_ZNSt3__116allocator_traitsINS_9allocatorIN8nlohmann16json_abi_v3_11_36detail21output_string_adapterIcNS_12basic_stringIcNS_11char_traitsIcEENS1_IcEEEEEEEEE9constructB8ne200100ISB_JRSA_EvLi0EEEvRSC_PT_DpOT0_
FNA:2,636,_ZNSt3__116allocator_traitsINS_9allocatorINS_10shared_ptrIN4inja12FunctionNodeEEEEEE9constructB8ne200100IS5_JRS5_EvLi0EEEvRS6_PT_DpOT0_
FNA:2,106,_ZNSt3__116allocator_traitsINS_9allocatorINS_10shared_ptrIN4inja14ExpressionNodeEEEEEE9constructB8ne200100IS5_JNS2_INS3_11LiteralNodeEEEEvLi0EEEvRS6_PT_DpOT0_
FNA:2,1908,_ZNSt3__116allocator_traitsINS_9allocatorINS_10shared_ptrIN4inja14ExpressionNodeEEEEEE9constructB8ne200100IS5_JNS2_INS3_8DataNodeEEEEvLi0EEEvRS6_PT_DpOT0_
FNA:2,848,_ZNSt3__116allocator_traitsINS_9allocatorINS_10shared_ptrIN4inja14ExpressionNodeEEEEEE9constructB8ne200100IS5_JRKS5_EvLi0EEEvRS6_PT_DpOT0_
FNA:2,742,_ZNSt3__116allocator_traitsINS_9allocatorINS_10shared_ptrIN4inja14ExpressionNodeEEEEEE9constructB8ne200100IS5_JRNS2_INS3_12FunctionNodeEEEEvLi0EEEvRS6_PT_DpOT0_
FNA:2,212,_ZNSt3__116allocator_traitsINS_9allocatorINS_10shared_ptrIN4inja14ExpressionNodeEEEEEE9constructB8ne200100IS5_JRS5_EvLi0EEEvRS6_PT_DpOT0_
FNA:2,0,_ZNSt3__116allocator_traitsINS_9allocatorINS_10shared_ptrIN4inja14ExpressionNodeEEEEEE9constructB8ne200100IS5_JS5_EvLi0EEEvRS6_PT_DpOT0_
FNA:2,0,_ZNSt3__116allocator_traitsINS_9allocatorINS_10shared_ptrIN4inja7AstNodeEEEEEE9constructB8ne200100IS5_JNS2_INS3_20ExtendsStatementNodeEEEEvLi0EEEvRS6_PT_DpOT0_
FNA:2,0,_ZNSt3__116allocator_traitsINS_9allocatorINS_10shared_ptrIN4inja7AstNodeEEEEEE9constructB8ne200100IS5_JNS2_INS3_20IncludeStatementNodeEEEEvLi0EEEvRS6_PT_DpOT0_
FNA:2,1908,_ZNSt3__116allocator_traitsINS_9allocatorINS_10shared_ptrIN4inja7AstNodeEEEEEE9constructB8ne200100IS5_JNS2_INS3_8TextNodeEEEEvLi0EEEvRS6_PT_DpOT0_
FNA:2,636,_ZNSt3__116allocator_traitsINS_9allocatorINS_10shared_ptrIN4inja7AstNodeEEEEEE9constructB8ne200100IS5_JRNS2_INS3_15IfStatementNodeEEEEvLi0EEEvRS6_PT_DpOT0_
FNA:2,212,_ZNSt3__116allocator_traitsINS_9allocatorINS_10shared_ptrIN4inja7AstNodeEEEEEE9constructB8ne200100IS5_JRNS2_INS3_16ForStatementNodeEEEEvLi0EEEvRS6_PT_DpOT0_
FNA:2,0,_ZNSt3__116allocator_traitsINS_9allocatorINS_10shared_ptrIN4inja7AstNodeEEEEEE9constructB8ne200100IS5_JRNS2_INS3_16SetStatementNodeEEEEvLi0EEEvRS6_PT_DpOT0_
FNA:2,0,_ZNSt3__116allocator_traitsINS_9allocatorINS_10shared_ptrIN4inja7AstNodeEEEEEE9constructB8ne200100IS5_JRNS2_INS3_18BlockStatementNodeEEEEvLi0EEEvRS6_PT_DpOT0_
FNA:2,848,_ZNSt3__116allocator_traitsINS_9allocatorINS_10shared_ptrIN4inja7AstNodeEEEEEE9constructB8ne200100IS5_JRNS2_INS3_18ExpressionListNodeEEEEvLi0EEEvRS6_PT_DpOT0_
FNA:2,0,_ZNSt3__116allocator_traitsINS_9allocatorINS_10shared_ptrIN4inja7AstNodeEEEEEE9constructB8ne200100IS5_JRS5_EvLi0EEEvRS6_PT_DpOT0_
FNA:2,3392,_ZNSt3__116allocator_traitsINS_9allocatorINS_10shared_ptrIN8nlohmann16json_abi_v3_11_310basic_jsonINS_3mapENS_6vectorENS_12basic_stringIcNS_11char_traitsIcEENS1_IcEEEEbxydS1_NS4_14adl_serializerENS7_IhNS1_IhEEEEvEEEEEEE9constructB8ne200100ISH_JRKSH_EvLi0EEEvRSI_PT_DpOT0_
FNA:2,285,_ZNSt3__116allocator_traitsINS_9allocatorINS_10unique_ptrIN4dbal8adapters3sql13SqlConnectionENS_14default_deleteIS6_EEEEEEE9constructB8ne200100IS9_JS9_EvLi0EEEvRSA_PT_DpOT0_
FNA:2,245,_ZNSt3__116allocator_traitsINS_9allocatorINS_11__hash_nodeINS_12basic_stringIcNS_11char_traitsIcEENS1_IcEEEEPvEEEEE9constructB8ne200100IS7_JRKS7_EvLi0EEEvRSA_PT_DpOT0_
FNA:2,49,_ZNSt3__116allocator_traitsINS_9allocatorINS_11__hash_nodeINS_17__hash_value_typeINS_12basic_stringIcNS_11char_traitsIcEENS1_IcEEEEN4dbal4core12EntitySchemaEEEPvEEEEE9constructB8ne200100INS_4pairIKS8_SB_EEJRKNS_21piecewise_construct_tENS_5tupleIJRSJ_EEENSO_IJEEEEvLi0EEEvRSF_PT_DpOT0_
FNA:2,114,_ZNSt3__116allocator_traitsINS_9allocatorINS_11__hash_nodeINS_17__hash_value_typeINS_12basic_stringIcNS_11char_traitsIcEENS1_IcEEEEN4dbal8adapters12EntitySchemaEEEPvEEEEE9constructB8ne200100INS_4pairIKS8_SB_EEJRKNS_21piecewise_construct_tENS_5tupleIJRSJ_EEENSO_IJEEEEvLi0EEEvRSF_PT_DpOT0_
FNA:2,0,_ZNSt3__116allocator_traitsINS_9allocatorINS_11__tree_nodeINS_12__value_typeINS_12basic_stringIcNS_11char_traitsIcEENS1_IcEEEEN4dbal4core10CacheEntryIN8nlohmann16json_abi_v3_11_310basic_jsonINS_3mapENS_6vectorES8_bxydS1_NSD_14adl_serializerENSG_IhNS1_IhEEEEvEEEEEEPvEEEEE9constructB8ne200100INS_4pairIKS8_SL_EEJRKNS_21piecewise_construct_tENS_5tupleIJRST_EEENSY_IJEEEEvLi0EEEvRSP_PT_DpOT0_
FNA:2,0,_ZNSt3__116allocator_traitsINS_9allocatorINS_11__tree_nodeINS_12__value_typeINS_12basic_stringIcNS_11char_traitsIcEENS1_IcEEEEN4dbal4core12EntitySchemaEEEPvEEEEE9constructB8ne200100INS_4pairIKS8_SB_EEJRKNS_21piecewise_construct_tENS_5tupleIJRSJ_EEENSO_IJEEEEvLi0EEEvRSF_PT_DpOT0_
FNA:2,0,_ZNSt3__116allocator_traitsINS_9allocatorINS_11__tree_nodeINS_12__value_typeINS_12basic_stringIcNS_11char_traitsIcEENS1_IcEEEEN4dbal4core12EntitySchemaEEEPvEEEEE9constructB8ne200100INS_4pairIKS8_SB_EEJRKSK_EvLi0EEEvRSF_PT_DpOT0_
FNA:2,0,_ZNSt3__116allocator_traitsINS_9allocatorINS_11__tree_nodeINS_12__value_typeINS_12basic_stringIcNS_11char_traitsIcEENS1_IcEEEEN4inja8TemplateEEEPvEEEEE9constructB8ne200100INS_4pairIKS8_SA_EEJRKNS_21piecewise_construct_tENS_5tupleIJRSI_EEENSN_IJEEEEvLi0EEEvRSE_PT_DpOT0_
FNA:2,0,_ZNSt3__116allocator_traitsINS_9allocatorINS_11__tree_nodeINS_12__value_typeINS_12basic_stringIcNS_11char_traitsIcEENS1_IcEEEEN4inja8TemplateEEEPvEEEEE9constructB8ne200100INS_4pairIKS8_SA_EEJRS8_RSA_EvLi0EEEvRSE_PT_DpOT0_
FNA:2,0,_ZNSt3__116allocator_traitsINS_9allocatorINS_11__tree_nodeINS_12__value_typeINS_12basic_stringIcNS_11char_traitsIcEENS1_IcEEEEN8nlohmann16json_abi_v3_11_310basic_jsonINS_3mapENS_6vectorES8_bxydS1_NSA_14adl_serializerENSD_IhNS1_IhEEEEvEEEEPvEEEEE9constructB8ne200100INS_4pairIKS8_SH_EEJRKNSO_ISP_S8_EEEvLi0EEEvRSL_PT_DpOT0_
FNA:2,4244,_ZNSt3__116allocator_traitsINS_9allocatorINS_11__tree_nodeINS_12__value_typeINS_12basic_stringIcNS_11char_traitsIcEENS1_IcEEEEN8nlohmann16json_abi_v3_11_310basic_jsonINS_3mapENS_6vectorES8_bxydS1_NSA_14adl_serializerENSD_IhNS1_IhEEEEvEEEEPvEEEEE9constructB8ne200100INS_4pairIKS8_SH_EEJRKNS_21piecewise_construct_tENS_5tupleIJRSP_EEENSU_IJEEEEvLi0EEEvRSL_PT_DpOT0_
FNA:2,49823,_ZNSt3__116allocator_traitsINS_9allocatorINS_11__tree_nodeINS_12__value_typeINS_12basic_stringIcNS_11char_traitsIcEENS1_IcEEEEN8nlohmann16json_abi_v3_11_310basic_jsonINS_3mapENS_6vectorES8_bxydS1_NSA_14adl_serializerENSD_IhNS1_IhEEEEvEEEEPvEEEEE9constructB8ne200100INS_4pairIKS8_SH_EEJRKSQ_EvLi0EEEvRSL_PT_DpOT0_
FNA:2,26583,_ZNSt3__116allocator_traitsINS_9allocatorINS_11__tree_nodeINS_12__value_typeINS_12basic_stringIcNS_11char_traitsIcEENS1_IcEEEEN8nlohmann16json_abi_v3_11_310basic_jsonINS_3mapENS_6vectorES8_bxydS1_NSA_14adl_serializerENSD_IhNS1_IhEEEEvEEEEPvEEEEE9constructB8ne200100INS_4pairIKS8_SH_EEJS8_DnEvLi0EEEvRSL_PT_DpOT0_
FNA:2,10,_ZNSt3__116allocator_traitsINS_9allocatorINS_11__tree_nodeINS_12__value_typeINS_12basic_stringIcNS_11char_traitsIcEENS1_IcEEEEN8nlohmann16json_abi_v3_11_310basic_jsonINS_3mapENS_6vectorES8_bxydS1_NSA_14adl_serializerENSD_IhNS1_IhEEEEvEEEEPvEEEEE9constructB8ne200100INS_4pairIKS8_SH_EEJS8_SH_EvLi0EEEvRSL_PT_DpOT0_
FNA:2,0,_ZNSt3__116allocator_traitsINS_9allocatorINS_11__tree_nodeINS_12__value_typeINS_12basic_stringIcNS_11char_traitsIcEENS1_IcEEEENS_10shared_ptrIN4inja18BlockStatementNodeEEEEEPvEEEEE9constructB8ne200100INS_4pairIKS8_SC_EEJRKSL_EvLi0EEEvRSG_PT_DpOT0_
FNA:2,0,_ZNSt3__116allocator_traitsINS_9allocatorINS_11__tree_nodeINS_12__value_typeINS_12basic_stringIcNS_11char_traitsIcEENS1_IcEEEENS_10shared_ptrIN4inja18BlockStatementNodeEEEEEPvEEEEE9constructB8ne200100INS_4pairIKS8_SC_EEJRSK_RSC_EvLi0EEEvRSG_PT_DpOT0_
FNA:2,4739,_ZNSt3__116allocator_traitsINS_9allocatorINS_11__tree_nodeINS_12__value_typeINS_12basic_stringIcNS_11char_traitsIcEENS1_IcEEEES8_EEPvEEEEE9constructB8ne200100INS_4pairIKS8_S8_EEJRKNS_21piecewise_construct_tENS_5tupleIJOS8_EEENSL_IJEEEEvLi0EEEvRSC_PT_DpOT0_
FNA:2,0,_ZNSt3__116allocator_traitsINS_9allocatorINS_11__tree_nodeINS_12__value_typeINS_12basic_stringIcNS_11char_traitsIcEENS1_IcEEEES8_EEPvEEEEE9constructB8ne200100INS_4pairIKS8_S8_EEJRKNS_21piecewise_construct_tENS_5tupleIJRSG_EEENSL_IJEEEEvLi0EEEvRSC_PT_DpOT0_
FNA:2,0,_ZNSt3__116allocator_traitsINS_9allocatorINS_11__tree_nodeINS_12__value_typeINS_12basic_stringIcNS_11char_traitsIcEENS1_IcEEEES8_EEPvEEEEE9constructB8ne200100INS_4pairIKS8_S8_EEJRKSH_EvLi0EEEvRSC_PT_DpOT0_
FNA:2,0,_ZNSt3__116allocator_traitsINS_9allocatorINS_11__tree_nodeINS_12__value_typeINS_12basic_stringIcNS_11char_traitsIcEENS1_IcEEEEbEEPvEEEEE9constructB8ne200100INS_4pairIKS8_bEEJRKNS_21piecewise_construct_tENS_5tupleIJRSG_EEENSL_IJEEEEvLi0EEEvRSC_PT_DpOT0_
FNA:2,0,_ZNSt3__116allocator_traitsINS_9allocatorINS_11__tree_nodeINS_12__value_typeINS_12basic_stringIcNS_11char_traitsIcEENS1_IcEEEEbEEPvEEEEE9constructB8ne200100INS_4pairIKS8_bEEJRKSH_EvLi0EEEvRSC_PT_DpOT0_
FNA:2,3286,_ZNSt3__116allocator_traitsINS_9allocatorINS_11__tree_nodeINS_12__value_typeINS_4pairINS_12basic_stringIcNS_11char_traitsIcEENS1_IcEEEEiEEN4inja15FunctionStorage12FunctionDataEEEPvEEEEE9constructB8ne200100INS4_IKSA_SD_EEJRKSL_EvLi0EEEvRSH_PT_DpOT0_
FNA:2,399,_ZNSt3__116allocator_traitsINS_9allocatorINS_11__tree_nodeINS_12basic_stringIcNS_11char_traitsIcEENS1_IcEEEEPvEEEEE9constructB8ne200100IS7_JRKS7_EvLi0EEEvRSA_PT_DpOT0_
FNA:2,343,_ZNSt3__116allocator_traitsINS_9allocatorINS_11__tree_nodeINS_12basic_stringIcNS_11char_traitsIcEENS1_IcEEEEPvEEEEE9constructB8ne200100IS7_JS7_EvLi0EEEvRSA_PT_DpOT0_
FNA:2,849,_ZNSt3__116allocator_traitsINS_9allocatorINS_12basic_stringIcNS_11char_traitsIcEENS1_IcEEEEEEE9constructB8ne200100IS6_JRA10_KcEvLi0EEEvRS7_PT_DpOT0_
FNA:2,15,_ZNSt3__116allocator_traitsINS_9allocatorINS_12basic_stringIcNS_11char_traitsIcEENS1_IcEEEEEEE9constructB8ne200100IS6_JRA11_KcEvLi0EEEvRS7_PT_DpOT0_
FNA:2,2,_ZNSt3__116allocator_traitsINS_9allocatorINS_12basic_stringIcNS_11char_traitsIcEENS1_IcEEEEEEE9constructB8ne200100IS6_JRA12_KcEvLi0EEEvRS7_PT_DpOT0_
FNA:2,9,_ZNSt3__116allocator_traitsINS_9allocatorINS_12basic_stringIcNS_11char_traitsIcEENS1_IcEEEEEEE9constructB8ne200100IS6_JRA13_KcEvLi0EEEvRS7_PT_DpOT0_
FNA:2,6,_ZNSt3__116allocator_traitsINS_9allocatorINS_12basic_stringIcNS_11char_traitsIcEENS1_IcEEEEEEE9constructB8ne200100IS6_JRA14_KcEvLi0EEEvRS7_PT_DpOT0_
FNA:2,1,_ZNSt3__116allocator_traitsINS_9allocatorINS_12basic_stringIcNS_11char_traitsIcEENS1_IcEEEEEEE9constructB8ne200100IS6_JRA15_KcEvLi0EEEvRS7_PT_DpOT0_
FNA:2,1,_ZNSt3__116allocator_traitsINS_9allocatorINS_12basic_stringIcNS_11char_traitsIcEENS1_IcEEEEEEE9constructB8ne200100IS6_JRA16_KcEvLi0EEEvRS7_PT_DpOT0_
FNA:2,64,_ZNSt3__116allocator_traitsINS_9allocatorINS_12basic_stringIcNS_11char_traitsIcEENS1_IcEEEEEEE9constructB8ne200100IS6_JRA18_KcEvLi0EEEvRS7_PT_DpOT0_
FNA:2,52,_ZNSt3__116allocator_traitsINS_9allocatorINS_12basic_stringIcNS_11char_traitsIcEENS1_IcEEEEEEE9constructB8ne200100IS6_JRA19_KcEvLi0EEEvRS7_PT_DpOT0_
FNA:2,0,_ZNSt3__116allocator_traitsINS_9allocatorINS_12basic_stringIcNS_11char_traitsIcEENS1_IcEEEEEEE9constructB8ne200100IS6_JRA1_KcEvLi0EEEvRS7_PT_DpOT0_
FNA:2,1,_ZNSt3__116allocator_traitsINS_9allocatorINS_12basic_stringIcNS_11char_traitsIcEENS1_IcEEEEEEE9constructB8ne200100IS6_JRA21_KcEvLi0EEEvRS7_PT_DpOT0_
FNA:2,98,_ZNSt3__116allocator_traitsINS_9allocatorINS_12basic_stringIcNS_11char_traitsIcEENS1_IcEEEEEEE9constructB8ne200100IS6_JRA236_KcEvLi0EEEvRS7_PT_DpOT0_
FNA:2,98,_ZNSt3__116allocator_traitsINS_9allocatorINS_12basic_stringIcNS_11char_traitsIcEENS1_IcEEEEEEE9constructB8ne200100IS6_JRA24_KcEvLi0EEEvRS7_PT_DpOT0_
FNA:2,0,_ZNSt3__116allocator_traitsINS_9allocatorINS_12basic_stringIcNS_11char_traitsIcEENS1_IcEEEEEEE9constructB8ne200100IS6_JRA29_KcEvLi0EEEvRS7_PT_DpOT0_
FNA:2,0,_ZNSt3__116allocator_traitsINS_9allocatorINS_12basic_stringIcNS_11char_traitsIcEENS1_IcEEEEEEE9constructB8ne200100IS6_JRA2_KcEvLi0EEEvRS7_PT_DpOT0_
FNA:2,62,_ZNSt3__116allocator_traitsINS_9allocatorINS_12basic_stringIcNS_11char_traitsIcEENS1_IcEEEEEEE9constructB8ne200100IS6_JRA34_KcEvLi0EEEvRS7_PT_DpOT0_
FNA:2,15,_ZNSt3__116allocator_traitsINS_9allocatorINS_12basic_stringIcNS_11char_traitsIcEENS1_IcEEEEEEE9constructB8ne200100IS6_JRA37_KcEvLi0EEEvRS7_PT_DpOT0_
FNA:2,16,_ZNSt3__116allocator_traitsINS_9allocatorINS_12basic_stringIcNS_11char_traitsIcEENS1_IcEEEEEEE9constructB8ne200100IS6_JRA3_KcEvLi0EEEvRS7_PT_DpOT0_
FNA:2,1,_ZNSt3__116allocator_traitsINS_9allocatorINS_12basic_stringIcNS_11char_traitsIcEENS1_IcEEEEEEE9constructB8ne200100IS6_JRA4_KcEvLi0EEEvRS7_PT_DpOT0_
FNA:2,1,_ZNSt3__116allocator_traitsINS_9allocatorINS_12basic_stringIcNS_11char_traitsIcEENS1_IcEEEEEEE9constructB8ne200100IS6_JRA5_KcEvLi0EEEvRS7_PT_DpOT0_
FNA:2,5,_ZNSt3__116allocator_traitsINS_9allocatorINS_12basic_stringIcNS_11char_traitsIcEENS1_IcEEEEEEE9constructB8ne200100IS6_JRA6_KcEvLi0EEEvRS7_PT_DpOT0_
FNA:2,12,_ZNSt3__116allocator_traitsINS_9allocatorINS_12basic_stringIcNS_11char_traitsIcEENS1_IcEEEEEEE9constructB8ne200100IS6_JRA7_KcEvLi0EEEvRS7_PT_DpOT0_
FNA:2,7,_ZNSt3__116allocator_traitsINS_9allocatorINS_12basic_stringIcNS_11char_traitsIcEENS1_IcEEEEEEE9constructB8ne200100IS6_JRA8_KcEvLi0EEEvRS7_PT_DpOT0_
FNA:2,56,_ZNSt3__116allocator_traitsINS_9allocatorINS_12basic_stringIcNS_11char_traitsIcEENS1_IcEEEEEEE9constructB8ne200100IS6_JRA9_KcEvLi0EEEvRS7_PT_DpOT0_
FNA:2,12120,_ZNSt3__116allocator_traitsINS_9allocatorINS_12basic_stringIcNS_11char_traitsIcEENS1_IcEEEEEEE9constructB8ne200100IS6_JRKPKcEvLi0EEEvRS7_PT_DpOT0_
FNA:2,35923,_ZNSt3__116allocator_traitsINS_9allocatorINS_12basic_stringIcNS_11char_traitsIcEENS1_IcEEEEEEE9constructB8ne200100IS6_JRKS6_EvLi0EEEvRS7_PT_DpOT0_
FNA:2,1856,_ZNSt3__116allocator_traitsINS_9allocatorINS_12basic_stringIcNS_11char_traitsIcEENS1_IcEEEEEEE9constructB8ne200100IS6_JRS6_EvLi0EEEvRS7_PT_DpOT0_
FNA:2,24680,_ZNSt3__116allocator_traitsINS_9allocatorINS_12basic_stringIcNS_11char_traitsIcEENS1_IcEEEEEEE9constructB8ne200100IS6_JS6_EvLi0EEEvRS7_PT_DpOT0_
FNA:2,6051,_ZNSt3__116allocator_traitsINS_9allocatorINS_3mapINS_12basic_stringIcNS_11char_traitsIcEENS1_IcEEEEN8nlohmann16json_abi_v3_11_310basic_jsonIS2_NS_6vectorES7_bxydS1_NS9_14adl_serializerENSB_IhNS1_IhEEEEvEENS_4lessIvEENS1_INS_4pairIKS7_SF_EEEEEEEEE9constructB8ne200100ISM_JEvLi0EEEvRSN_PT_DpOT0_
FNA:2,0,_ZNSt3__116allocator_traitsINS_9allocatorINS_3mapINS_12basic_stringIcNS_11char_traitsIcEENS1_IcEEEEN8nlohmann16json_abi_v3_11_310basic_jsonIS2_NS_6vectorES7_bxydS1_NS9_14adl_serializerENSB_IhNS1_IhEEEEvEENS_4lessIvEENS1_INS_4pairIKS7_SF_EEEEEEEEE9constructB8ne200100ISM_JNS_20__map_const_iteratorINS_21__tree_const_iteratorINS_12__value_typeIS7_S7_EEPNS_11__tree_nodeIST_PvEElEEEESZ_EvLi0EEEvRSN_PT_DpOT0_
FNA:2,10050,_ZNSt3__116allocator_traitsINS_9allocatorINS_3mapINS_12basic_stringIcNS_11char_traitsIcEENS1_IcEEEEN8nlohmann16json_abi_v3_11_310basic_jsonIS2_NS_6vectorES7_bxydS1_NS9_14adl_serializerENSB_IhNS1_IhEEEEvEENS_4lessIvEENS1_INS_4pairIKS7_SF_EEEEEEEEE9constructB8ne200100ISM_JRKSM_EvLi0EEEvRSN_PT_DpOT0_
FNA:2,0,_ZNSt3__116allocator_traitsINS_9allocatorINS_4pairINS_12basic_stringIcNS_11char_traitsIcEENS1_IcEEEES7_EEEEE9constructB8ne200100IS8_JRA3_KcRKS7_EvLi0EEEvRS9_PT_DpOT0_
FNA:2,0,_ZNSt3__116allocator_traitsINS_9allocatorINS_4pairINS_12basic_stringIcNS_11char_traitsIcEENS1_IcEEEES7_EEEEE9constructB8ne200100IS8_JRKS7_S7_EvLi0EEEvRS9_PT_DpOT0_
FNA:2,0,_ZNSt3__116allocator_traitsINS_9allocatorINS_4pairINS_12basic_stringIcNS_11char_traitsIcEENS1_IcEEEES7_EEEEE9constructB8ne200100IS8_JS8_EvLi0EEEvRS9_PT_DpOT0_
FNA:2,0,_ZNSt3__116allocator_traitsINS_9allocatorINS_4pairIccEEEEE9constructB8ne200100IS3_JS3_EvLi0EEEvRS4_PT_DpOT0_
FNA:2,0,_ZNSt3__116allocator_traitsINS_9allocatorINS_4pairImPKcEEEEE9constructB8ne200100IS5_JEvLi0EEEvRS6_PT_DpOT0_
FNA:2,0,_ZNSt3__116allocator_traitsINS_9allocatorINS_4pairImPKcEEEEE9constructB8ne200100IS5_JRS5_EvLi0EEEvRS6_PT_DpOT0_
FNA:2,7,_ZNSt3__116allocator_traitsINS_9allocatorINS_6threadEEEE9constructB8ne200100IS2_JS2_EvLi0EEEvRS3_PT_DpOT0_
FNA:2,5,_ZNSt3__116allocator_traitsINS_9allocatorINS_6threadEEEE9constructB8ne200100IS2_JZN55PostgresIntegrationTest_ConcurrentReads_NoDataRace_Test8TestBodyEvE3$_0EvLi0EEEvRS3_PT_DpOT0_
FNA:2,326,_ZNSt3__116allocator_traitsINS_9allocatorINS_6vectorIN8nlohmann16json_abi_v3_11_310basic_jsonINS_3mapES2_NS_12basic_stringIcNS_11char_traitsIcEENS1_IcEEEEbxydS1_NS4_14adl_serializerENS2_IhNS1_IhEEEEvEENS1_ISF_EEEEEEE9constructB8ne200100ISH_JEvLi0EEEvRSI_PT_DpOT0_
FNA:2,212,_ZNSt3__116allocator_traitsINS_9allocatorINS_6vectorIN8nlohmann16json_abi_v3_11_310basic_jsonINS_3mapES2_NS_12basic_stringIcNS_11char_traitsIcEENS1_IcEEEEbxydS1_NS4_14adl_serializerENS2_IhNS1_IhEEEEvEENS1_ISF_EEEEEEE9constructB8ne200100ISH_JNS_11__wrap_iterIPKSB_EESO_EvLi0EEEvRSI_PT_DpOT0_
FNA:2,0,_ZNSt3__116allocator_traitsINS_9allocatorINS_6vectorIN8nlohmann16json_abi_v3_11_310basic_jsonINS_3mapES2_NS_12basic_stringIcNS_11char_traitsIcEENS1_IcEEEEbxydS1_NS4_14adl_serializerENS2_IhNS1_IhEEEEvEENS1_ISF_EEEEEEE9constructB8ne200100ISH_JNS_11__wrap_iterIPKiEESO_EvLi0EEEvRSI_PT_DpOT0_
FNA:2,597,_ZNSt3__116allocator_traitsINS_9allocatorINS_6vectorIN8nlohmann16json_abi_v3_11_310basic_jsonINS_3mapES2_NS_12basic_stringIcNS_11char_traitsIcEENS1_IcEEEEbxydS1_NS4_14adl_serializerENS2_IhNS1_IhEEEEvEENS1_ISF_EEEEEEE9constructB8ne200100ISH_JPKNS4_6detail8json_refISF_EESP_EvLi0EEEvRSI_PT_DpOT0_
FNA:2,2136,_ZNSt3__116allocator_traitsINS_9allocatorINS_6vectorIN8nlohmann16json_abi_v3_11_310basic_jsonINS_3mapES2_NS_12basic_stringIcNS_11char_traitsIcEENS1_IcEEEEbxydS1_NS4_14adl_serializerENS2_IhNS1_IhEEEEvEENS1_ISF_EEEEEEE9constructB8ne200100ISH_JRKSH_EvLi0EEEvRSI_PT_DpOT0_
FNA:2,0,_ZNSt3__116allocator_traitsINS_9allocatorINS_6vectorIN8nlohmann16json_abi_v3_11_310basic_jsonINS_3mapES2_NS_12basic_stringIcNS_11char_traitsIcEENS1_IcEEEEbxydS1_NS4_14adl_serializerENS2_IhNS1_IhEEEEvEENS1_ISF_EEEEEEE9constructB8ne200100ISH_JSH_EvLi0EEEvRSI_PT_DpOT0_
FNA:2,0,_ZNSt3__116allocator_traitsINS_9allocatorINS_7__stateIcEEEEE9constructB8ne200100IS3_JS3_EvLi0EEEvRS4_PT_DpOT0_
FNA:2,0,_ZNSt3__116allocator_traitsINS_9allocatorINS_9sub_matchINS_11__wrap_iterIPKcEEEEEEE9constructB8ne200100IS7_JEvLi0EEEvRS8_PT_DpOT0_
FNA:2,0,_ZNSt3__116allocator_traitsINS_9allocatorINS_9sub_matchINS_11__wrap_iterIPKcEEEEEEE9constructB8ne200100IS7_JS7_EvLi0EEEvRS8_PT_DpOT0_
FNA:2,0,_ZNSt3__116allocator_traitsINS_9allocatorINS_9sub_matchIPKcEEEEE9constructB8ne200100IS5_JRKS5_EvLi0EEEvRS6_PT_DpOT0_
FNA:2,0,_ZNSt3__116allocator_traitsINS_9allocatorINS_9sub_matchIPKcEEEEE9constructB8ne200100IS5_JRS5_EvLi0EEEvRS6_PT_DpOT0_
FNA:2,0,_ZNSt3__116allocator_traitsINS_9allocatorINS_9sub_matchIPKcEEEEE9constructB8ne200100IS5_JS5_EvLi0EEEvRS6_PT_DpOT0_
FNA:2,0,_ZNSt3__116allocator_traitsINS_9allocatorIPKN4inja18BlockStatementNodeEEEE9constructB8ne200100IS5_JS5_EvLi0EEEvRS6_PT_DpOT0_
FNA:2,0,_ZNSt3__116allocator_traitsINS_9allocatorIPKN4inja8DataNodeEEEE9constructB8ne200100IS5_JS5_EvLi0EEEvRS6_PT_DpOT0_
FNA:2,212,_ZNSt3__116allocator_traitsINS_9allocatorIPKN4inja8TemplateEEEE9constructB8ne200100IS5_JRS5_EvLi0EEEvRS6_PT_DpOT0_
FNA:2,0,_ZNSt3__116allocator_traitsINS_9allocatorIPKN8nlohmann16json_abi_v3_11_310basic_jsonINS_3mapENS_6vectorENS_12basic_stringIcNS_11char_traitsIcEENS1_IcEEEEbxydS1_NS3_14adl_serializerENS6_IhNS1_IhEEEEvEEEEE9constructB8ne200100ISH_JEvLi0EEEvRSI_PT_DpOT0_
FNA:2,0,_ZNSt3__116allocator_traitsINS_9allocatorIPKN8nlohmann16json_abi_v3_11_310basic_jsonINS_3mapENS_6vectorENS_12basic_stringIcNS_11char_traitsIcEENS1_IcEEEEbxydS1_NS3_14adl_serializerENS6_IhNS1_IhEEEEvEEEEE9constructB8ne200100ISH_JRKSH_EvLi0EEEvRSI_PT_DpOT0_
FNA:2,10812,_ZNSt3__116allocator_traitsINS_9allocatorIPKN8nlohmann16json_abi_v3_11_310basic_jsonINS_3mapENS_6vectorENS_12basic_stringIcNS_11char_traitsIcEENS1_IcEEEEbxydS1_NS3_14adl_serializerENS6_IhNS1_IhEEEEvEEEEE9constructB8ne200100ISH_JSH_EvLi0EEEvRSI_PT_DpOT0_
FNA:2,1660,_ZNSt3__116allocator_traitsINS_9allocatorIPKcEEE9constructB8ne200100IS3_JS3_EvLi0EEEvRS4_PT_DpOT0_
FNA:2,636,_ZNSt3__116allocator_traitsINS_9allocatorIPN4inja15IfStatementNodeEEEE9constructB8ne200100IS4_JS4_EvLi0EEEvRS5_PT_DpOT0_
FNA:2,212,_ZNSt3__116allocator_traitsINS_9allocatorIPN4inja16ForStatementNodeEEEE9constructB8ne200100IS4_JS4_EvLi0EEEvRS5_PT_DpOT0_
FNA:2,0,_ZNSt3__116allocator_traitsINS_9allocatorIPN4inja18BlockStatementNodeEEEE9constructB8ne200100IS4_JS4_EvLi0EEEvRS5_PT_DpOT0_
FNA:2,0,_ZNSt3__116allocator_traitsINS_9allocatorIPN8nlohmann16json_abi_v3_11_310basic_jsonINS_3mapENS_6vectorENS_12basic_stringIcNS_11char_traitsIcEENS1_IcEEEEbxydS1_NS3_14adl_serializerENS6_IhNS1_IhEEEEvEEEEE9constructB8ne200100ISG_JRKSG_EvLi0EEEvRSH_PT_DpOT0_
FNA:2,1958,_ZNSt3__116allocator_traitsINS_9allocatorIPN8nlohmann16json_abi_v3_11_310basic_jsonINS_3mapENS_6vectorENS_12basic_stringIcNS_11char_traitsIcEENS1_IcEEEEbxydS1_NS3_14adl_serializerENS6_IhNS1_IhEEEEvEEEEE9constructB8ne200100ISG_JSG_EvLi0EEEvRSH_PT_DpOT0_
FNA:2,0,_ZNSt3__116allocator_traitsINS_9allocatorIPNS_10shared_ptrIN4inja12FunctionNodeEEEEEE9constructB8ne200100IS6_JRS6_EvLi0EEEvRS7_PT_DpOT0_
FNA:2,424,_ZNSt3__116allocator_traitsINS_9allocatorIPNS_10shared_ptrIN4inja12FunctionNodeEEEEEE9constructB8ne200100IS6_JS6_EvLi0EEEvRS7_PT_DpOT0_
FNA:2,0,_ZNSt3__116allocator_traitsINS_9allocatorIPNS_10unique_ptrIN4dbal8adapters3sql13SqlConnectionENS_14default_deleteIS6_EEEEEEE9constructB8ne200100ISA_JRSA_EvLi0EEEvRSB_PT_DpOT0_
FNA:2,0,_ZNSt3__116allocator_traitsINS_9allocatorIPNS_10unique_ptrIN4dbal8adapters3sql13SqlConnectionENS_14default_deleteIS6_EEEEEEE9constructB8ne200100ISA_JSA_EvLi0EEEvRSB_PT_DpOT0_
FNA:2,0,_ZNSt3__116allocator_traitsINS_9allocatorIPNS_7__stateIcEEEEE9constructB8ne200100IS4_JRS4_EvLi0EEEvRS5_PT_DpOT0_
FNA:2,0,_ZNSt3__116allocator_traitsINS_9allocatorIPNS_7__stateIcEEEEE9constructB8ne200100IS4_JS4_EvLi0EEEvRS5_PT_DpOT0_
FNA:2,0,_ZNSt3__116allocator_traitsINS_9allocatorIPPKN4inja8DataNodeEEEE9constructB8ne200100IS6_JRS6_EvLi0EEEvRS7_PT_DpOT0_
FNA:2,0,_ZNSt3__116allocator_traitsINS_9allocatorIPPKN4inja8DataNodeEEEE9constructB8ne200100IS6_JS6_EvLi0EEEvRS7_PT_DpOT0_
FNA:2,0,_ZNSt3__116allocator_traitsINS_9allocatorIPPKN8nlohmann16json_abi_v3_11_310basic_jsonINS_3mapENS_6vectorENS_12basic_stringIcNS_11char_traitsIcEENS1_IcEEEEbxydS1_NS3_14adl_serializerENS6_IhNS1_IhEEEEvEEEEE9constructB8ne200100ISI_JRSI_EvLi0EEEvRSJ_PT_DpOT0_
FNA:2,212,_ZNSt3__116allocator_traitsINS_9allocatorIPPKN8nlohmann16json_abi_v3_11_310basic_jsonINS_3mapENS_6vectorENS_12basic_stringIcNS_11char_traitsIcEENS1_IcEEEEbxydS1_NS3_14adl_serializerENS6_IhNS1_IhEEEEvEEEEE9constructB8ne200100ISI_JSI_EvLi0EEEvRSJ_PT_DpOT0_
FNA:2,0,_ZNSt3__116allocator_traitsINS_9allocatorIPPN4inja15IfStatementNodeEEEE9constructB8ne200100IS5_JRS5_EvLi0EEEvRS6_PT_DpOT0_
FNA:2,212,_ZNSt3__116allocator_traitsINS_9allocatorIPPN4inja15IfStatementNodeEEEE9constructB8ne200100IS5_JS5_EvLi0EEEvRS6_PT_DpOT0_
FNA:2,0,_ZNSt3__116allocator_traitsINS_9allocatorIPPN4inja16ForStatementNodeEEEE9constructB8ne200100IS5_JRS5_EvLi0EEEvRS6_PT_DpOT0_
FNA:2,212,_ZNSt3__116allocator_traitsINS_9allocatorIPPN4inja16ForStatementNodeEEEE9constructB8ne200100IS5_JS5_EvLi0EEEvRS6_PT_DpOT0_
FNA:2,0,_ZNSt3__116allocator_traitsINS_9allocatorIPPN4inja18BlockStatementNodeEEEE9constructB8ne200100IS5_JRS5_EvLi0EEEvRS6_PT_DpOT0_
FNA:2,0,_ZNSt3__116allocator_traitsINS_9allocatorIPPN4inja18BlockStatementNodeEEEE9constructB8ne200100IS5_JS5_EvLi0EEEvRS6_PT_DpOT0_
FNA:2,0,_ZNSt3__116allocator_traitsINS_9allocatorIcEEE9constructB8ne200100IcJRKcEvLi0EEEvRS2_PT_DpOT0_
FNA:2,90253,_ZNSt3__116allocator_traitsINS_9allocatorIcEEE9constructB8ne200100IcJcEvLi0EEEvRS2_PT_DpOT0_
FNA:2,0,_ZNSt3__116allocator_traitsINS_9allocatorIiEEE9constructB8ne200100IiJEvLi0EEEvRS2_PT_DpOT0_
FNL:3,328,330
FNA:3,4,_ZNSt3__116allocator_traitsINS_9allocatorIN4dbal11FilterGroupEEEE7destroyB8ne200100IS3_vLi0EEEvRS4_PT_
FNA:3,4,_ZNSt3__116allocator_traitsINS_9allocatorIN4dbal13AggregateSpecEEEE7destroyB8ne200100IS3_vLi0EEEvRS4_PT_
FNA:3,54,_ZNSt3__116allocator_traitsINS_9allocatorIN4dbal15FilterConditionEEEE7destroyB8ne200100IS3_vLi0EEEvRS4_PT_
FNA:3,4144,_ZNSt3__116allocator_traitsINS_9allocatorIN4dbal4core11EntityFieldEEEE7destroyB8ne200100IS4_vLi0EEEvRS5_PT_
FNA:3,543,_ZNSt3__116allocator_traitsINS_9allocatorIN4dbal4core11EntityIndexEEEE7destroyB8ne200100IS4_vLi0EEEvRS5_PT_
FNA:3,0,_ZNSt3__116allocator_traitsINS_9allocatorIN4dbal4core11RelationDefEEEE7destroyB8ne200100IS4_vLi0EEEvRS5_PT_
FNA:3,0,_ZNSt3__116allocator_traitsINS_9allocatorIN4dbal4core23CompensatingTransaction6UndoOpEEEE7destroyB8ne200100IS5_vLi0EEEvRS6_PT_
FNA:3,5698,_ZNSt3__116allocator_traitsINS_9allocatorIN4dbal8adapters11EntityFieldEEEE7destroyB8ne200100IS4_vLi0EEEvRS5_PT_
FNA:3,0,_ZNSt3__116allocator_traitsINS_9allocatorIN4dbal8adapters11RelationDefEEEE7destroyB8ne200100IS4_vLi0EEEvRS5_PT_
FNA:3,3423,_ZNSt3__116allocator_traitsINS_9allocatorIN4dbal8adapters15FieldDefinitionEEEE7destroyB8ne200100IS4_vLi0EEEvRS5_PT_
FNA:3,326,_ZNSt3__116allocator_traitsINS_9allocatorIN4dbal8adapters15IndexDefinitionEEEE7destroyB8ne200100IS4_vLi0EEEvRS5_PT_
FNA:3,163,_ZNSt3__116allocator_traitsINS_9allocatorIN4dbal8adapters16EntityDefinitionEEEE7destroyB8ne200100IS4_vLi0EEEvRS5_PT_
FNA:3,0,_ZNSt3__116allocator_traitsINS_9allocatorIN4dbal8adapters18RelationDefinitionEEEE7destroyB8ne200100IS4_vLi0EEEvRS5_PT_
FNA:3,1283,_ZNSt3__116allocator_traitsINS_9allocatorIN4dbal8adapters3sql6SqlRowEEEE7destroyB8ne200100IS5_vLi0EEEvRS6_PT_
FNA:3,6712,_ZNSt3__116allocator_traitsINS_9allocatorIN4dbal8adapters3sql8SqlParamEEEE7destroyB8ne200100IS5_vLi0EEEvRS6_PT_
FNA:3,106,_ZNSt3__116allocator_traitsINS_9allocatorIN4inja11LiteralNodeEEEE7destroyB8ne200100IS3_vLi0EEEvRS4_PT_
FNA:3,742,_ZNSt3__116allocator_traitsINS_9allocatorIN4inja12FunctionNodeEEEE7destroyB8ne200100IS3_vLi0EEEvRS4_PT_
FNA:3,636,_ZNSt3__116allocator_traitsINS_9allocatorIN4inja15IfStatementNodeEEEE7destroyB8ne200100IS3_vLi0EEEvRS4_PT_
FNA:3,0,_ZNSt3__116allocator_traitsINS_9allocatorIN4inja16SetStatementNodeEEEE7destroyB8ne200100IS3_vLi0EEEvRS4_PT_
FNA:3,0,_ZNSt3__116allocator_traitsINS_9allocatorIN4inja18BlockStatementNodeEEEE7destroyB8ne200100IS3_vLi0EEEvRS4_PT_
FNA:3,848,_ZNSt3__116allocator_traitsINS_9allocatorIN4inja18ExpressionListNodeEEEE7destroyB8ne200100IS3_vLi0EEEvRS4_PT_
FNA:3,0,_ZNSt3__116allocator_traitsINS_9allocatorIN4inja20ExtendsStatementNodeEEEE7destroyB8ne200100IS3_vLi0EEEvRS4_PT_
FNA:3,0,_ZNSt3__116allocator_traitsINS_9allocatorIN4inja20IncludeStatementNodeEEEE7destroyB8ne200100IS3_vLi0EEEvRS4_PT_
FNA:3,212,_ZNSt3__116allocator_traitsINS_9allocatorIN4inja21ForArrayStatementNodeEEEE7destroyB8ne200100IS3_vLi0EEEvRS4_PT_
FNA:3,0,_ZNSt3__116allocator_traitsINS_9allocatorIN4inja22ForObjectStatementNodeEEEE7destroyB8ne200100IS3_vLi0EEEvRS4_PT_
FNA:3,1908,_ZNSt3__116allocator_traitsINS_9allocatorIN4inja8DataNodeEEEE7destroyB8ne200100IS3_vLi0EEEvRS4_PT_
FNA:3,1908,_ZNSt3__116allocator_traitsINS_9allocatorIN4inja8TextNodeEEEE7destroyB8ne200100IS3_vLi0EEEvRS4_PT_
FNA:3,122945,_ZNSt3__116allocator_traitsINS_9allocatorIN8nlohmann16json_abi_v3_11_310basic_jsonINS_3mapENS_6vectorENS_12basic_stringIcNS_11char_traitsIcEENS1_IcEEEEbxydS1_NS3_14adl_serializerENS6_IhNS1_IhEEEEvEEEEE7destroyB8ne200100ISF_vLi0EEEvRSG_PT_
FNA:3,0,_ZNSt3__116allocator_traitsINS_9allocatorIN8nlohmann16json_abi_v3_11_327byte_container_with_subtypeINS_6vectorIhNS1_IhEEEEEEEEE7destroyB8ne200100IS8_vLi0EEEvRS9_PT_
FNA:3,0,_ZNSt3__116allocator_traitsINS_9allocatorIN8nlohmann16json_abi_v3_11_36detail21output_string_adapterIcNS_12basic_stringIcNS_11char_traitsIcEENS1_IcEEEEEEEEE7destroyB8ne200100ISB_vLi0EEEvRSC_PT_
FNA:3,636,_ZNSt3__116allocator_traitsINS_9allocatorINS_10shared_ptrIN4inja12FunctionNodeEEEEEE7destroyB8ne200100IS5_vLi0EEEvRS6_PT_
FNA:3,3816,_ZNSt3__116allocator_traitsINS_9allocatorINS_10shared_ptrIN4inja14ExpressionNodeEEEEEE7destroyB8ne200100IS5_vLi0EEEvRS6_PT_
FNA:3,3604,_ZNSt3__116allocator_traitsINS_9allocatorINS_10shared_ptrIN4inja7AstNodeEEEEEE7destroyB8ne200100IS5_vLi0EEEvRS6_PT_
FNA:3,3392,_ZNSt3__116allocator_traitsINS_9allocatorINS_10shared_ptrIN8nlohmann16json_abi_v3_11_310basic_jsonINS_3mapENS_6vectorENS_12basic_stringIcNS_11char_traitsIcEENS1_IcEEEEbxydS1_NS4_14adl_serializerENS7_IhNS1_IhEEEEvEEEEEEE7destroyB8ne200100ISH_vLi0EEEvRSI_PT_
FNA:3,285,_ZNSt3__116allocator_traitsINS_9allocatorINS_10unique_ptrIN4dbal8adapters3sql13SqlConnectionENS_14default_deleteIS6_EEEEEEE7destroyB8ne200100IS9_vLi0EEEvRSA_PT_
FNA:3,245,_ZNSt3__116allocator_traitsINS_9allocatorINS_11__hash_nodeINS_12basic_stringIcNS_11char_traitsIcEENS1_IcEEEEPvEEEEE7destroyB8ne200100IS7_vLi0EEEvRSA_PT_
FNA:3,49,_ZNSt3__116allocator_traitsINS_9allocatorINS_11__hash_nodeINS_17__hash_value_typeINS_12basic_stringIcNS_11char_traitsIcEENS1_IcEEEEN4dbal4core12EntitySchemaEEEPvEEEEE7destroyB8ne200100INS_4pairIKS8_SB_EEvLi0EEEvRSF_PT_
FNA:3,114,_ZNSt3__116allocator_traitsINS_9allocatorINS_11__hash_nodeINS_17__hash_value_typeINS_12basic_stringIcNS_11char_traitsIcEENS1_IcEEEEN4dbal8adapters12EntitySchemaEEEPvEEEEE7destroyB8ne200100INS_4pairIKS8_SB_EEvLi0EEEvRSF_PT_
FNA:3,0,_ZNSt3__116allocator_traitsINS_9allocatorINS_11__tree_nodeINS_12__value_typeINS_12basic_stringIcNS_11char_traitsIcEENS1_IcEEEEN4dbal4core10CacheEntryIN8nlohmann16json_abi_v3_11_310basic_jsonINS_3mapENS_6vectorES8_bxydS1_NSD_14adl_serializerENSG_IhNS1_IhEEEEvEEEEEEPvEEEEE7destroyB8ne200100INS_4pairIKS8_SL_EEvLi0EEEvRSP_PT_
FNA:3,0,_ZNSt3__116allocator_traitsINS_9allocatorINS_11__tree_nodeINS_12__value_typeINS_12basic_stringIcNS_11char_traitsIcEENS1_IcEEEEN4dbal4core12EntitySchemaEEEPvEEEEE7destroyB8ne200100INS_4pairIKS8_SB_EEvLi0EEEvRSF_PT_
FNA:3,0,_ZNSt3__116allocator_traitsINS_9allocatorINS_11__tree_nodeINS_12__value_typeINS_12basic_stringIcNS_11char_traitsIcEENS1_IcEEEEN4inja8TemplateEEEPvEEEEE7destroyB8ne200100INS_4pairIKS8_SA_EEvLi0EEEvRSE_PT_
FNA:3,80660,_ZNSt3__116allocator_traitsINS_9allocatorINS_11__tree_nodeINS_12__value_typeINS_12basic_stringIcNS_11char_traitsIcEENS1_IcEEEEN8nlohmann16json_abi_v3_11_310basic_jsonINS_3mapENS_6vectorES8_bxydS1_NSA_14adl_serializerENSD_IhNS1_IhEEEEvEEEEPvEEEEE7destroyB8ne200100INS_4pairIKS8_SH_EEvLi0EEEvRSL_PT_
FNA:3,0,_ZNSt3__116allocator_traitsINS_9allocatorINS_11__tree_nodeINS_12__value_typeINS_12basic_stringIcNS_11char_traitsIcEENS1_IcEEEENS_10shared_ptrIN4inja18BlockStatementNodeEEEEEPvEEEEE7destroyB8ne200100INS_4pairIKS8_SC_EEvLi0EEEvRSG_PT_
FNA:3,4739,_ZNSt3__116allocator_traitsINS_9allocatorINS_11__tree_nodeINS_12__value_typeINS_12basic_stringIcNS_11char_traitsIcEENS1_IcEEEES8_EEPvEEEEE7destroyB8ne200100INS_4pairIKS8_S8_EEvLi0EEEvRSC_PT_
FNA:3,0,_ZNSt3__116allocator_traitsINS_9allocatorINS_11__tree_nodeINS_12__value_typeINS_12basic_stringIcNS_11char_traitsIcEENS1_IcEEEEbEEPvEEEEE7destroyB8ne200100INS_4pairIKS8_bEEvLi0EEEvRSC_PT_
FNA:3,3286,_ZNSt3__116allocator_traitsINS_9allocatorINS_11__tree_nodeINS_12__value_typeINS_4pairINS_12basic_stringIcNS_11char_traitsIcEENS1_IcEEEEiEEN4inja15FunctionStorage12FunctionDataEEEPvEEEEE7destroyB8ne200100INS4_IKSA_SD_EEvLi0EEEvRSH_PT_
FNA:3,742,_ZNSt3__116allocator_traitsINS_9allocatorINS_11__tree_nodeINS_12basic_stringIcNS_11char_traitsIcEENS1_IcEEEEPvEEEEE7destroyB8ne200100IS7_vLi0EEEvRSA_PT_
FNA:3,75951,_ZNSt3__116allocator_traitsINS_9allocatorINS_12basic_stringIcNS_11char_traitsIcEENS1_IcEEEEEEE7destroyB8ne200100IS6_vLi0EEEvRS7_PT_
FNA:3,16101,_ZNSt3__116allocator_traitsINS_9allocatorINS_3mapINS_12basic_stringIcNS_11char_traitsIcEENS1_IcEEEEN8nlohmann16json_abi_v3_11_310basic_jsonIS2_NS_6vectorES7_bxydS1_NS9_14adl_serializerENSB_IhNS1_IhEEEEvEENS_4lessIvEENS1_INS_4pairIKS7_SF_EEEEEEEEE7destroyB8ne200100ISM_vLi0EEEvRSN_PT_
FNA:3,0,_ZNSt3__116allocator_traitsINS_9allocatorINS_4pairINS_12basic_stringIcNS_11char_traitsIcEENS1_IcEEEES7_EEEEE7destroyB8ne200100IS8_vLi0EEEvRS9_PT_
FNA:3,0,_ZNSt3__116allocator_traitsINS_9allocatorINS_4pairIccEEEEE7destroyB8ne200100IS3_vLi0EEEvRS4_PT_
FNA:3,0,_ZNSt3__116allocator_traitsINS_9allocatorINS_4pairImPKcEEEEE7destroyB8ne200100IS5_vLi0EEEvRS6_PT_
FNA:3,12,_ZNSt3__116allocator_traitsINS_9allocatorINS_6threadEEEE7destroyB8ne200100IS2_vLi0EEEvRS3_PT_
FNA:3,3271,_ZNSt3__116allocator_traitsINS_9allocatorINS_6vectorIN8nlohmann16json_abi_v3_11_310basic_jsonINS_3mapES2_NS_12basic_stringIcNS_11char_traitsIcEENS1_IcEEEEbxydS1_NS4_14adl_serializerENS2_IhNS1_IhEEEEvEENS1_ISF_EEEEEEE7destroyB8ne200100ISH_vLi0EEEvRSI_PT_
FNA:3,0,_ZNSt3__116allocator_traitsINS_9allocatorINS_7__stateIcEEEEE7destroyB8ne200100IS3_vLi0EEEvRS4_PT_
FNA:3,0,_ZNSt3__116allocator_traitsINS_9allocatorINS_9sub_matchINS_11__wrap_iterIPKcEEEEEEE7destroyB8ne200100IS7_vLi0EEEvRS8_PT_
FNA:3,0,_ZNSt3__116allocator_traitsINS_9allocatorINS_9sub_matchIPKcEEEEE7destroyB8ne200100IS5_vLi0EEEvRS6_PT_
FNA:3,0,_ZNSt3__116allocator_traitsINS_9allocatorIPKN4inja18BlockStatementNodeEEEE7destroyB8ne200100IS5_vLi0EEEvRS6_PT_
FNA:3,0,_ZNSt3__116allocator_traitsINS_9allocatorIPKN4inja8DataNodeEEEE7destroyB8ne200100IS5_vLi0EEEvRS6_PT_
FNA:3,212,_ZNSt3__116allocator_traitsINS_9allocatorIPKN4inja8TemplateEEEE7destroyB8ne200100IS5_vLi0EEEvRS6_PT_
FNA:3,10812,_ZNSt3__116allocator_traitsINS_9allocatorIPKN8nlohmann16json_abi_v3_11_310basic_jsonINS_3mapENS_6vectorENS_12basic_stringIcNS_11char_traitsIcEENS1_IcEEEEbxydS1_NS3_14adl_serializerENS6_IhNS1_IhEEEEvEEEEE7destroyB8ne200100ISH_vLi0EEEvRSI_PT_
FNA:3,1660,_ZNSt3__116allocator_traitsINS_9allocatorIPKcEEE7destroyB8ne200100IS3_vLi0EEEvRS4_PT_
FNA:3,636,_ZNSt3__116allocator_traitsINS_9allocatorIPN4inja15IfStatementNodeEEEE7destroyB8ne200100IS4_vLi0EEEvRS5_PT_
FNA:3,212,_ZNSt3__116allocator_traitsINS_9allocatorIPN4inja16ForStatementNodeEEEE7destroyB8ne200100IS4_vLi0EEEvRS5_PT_
FNA:3,0,_ZNSt3__116allocator_traitsINS_9allocatorIPN4inja18BlockStatementNodeEEEE7destroyB8ne200100IS4_vLi0EEEvRS5_PT_
FNA:3,1958,_ZNSt3__116allocator_traitsINS_9allocatorIPN8nlohmann16json_abi_v3_11_310basic_jsonINS_3mapENS_6vectorENS_12basic_stringIcNS_11char_traitsIcEENS1_IcEEEEbxydS1_NS3_14adl_serializerENS6_IhNS1_IhEEEEvEEEEE7destroyB8ne200100ISG_vLi0EEEvRSH_PT_
FNA:3,424,_ZNSt3__116allocator_traitsINS_9allocatorIPNS_10shared_ptrIN4inja12FunctionNodeEEEEEE7destroyB8ne200100IS6_vLi0EEEvRS7_PT_
FNA:3,0,_ZNSt3__116allocator_traitsINS_9allocatorIPNS_10unique_ptrIN4dbal8adapters3sql13SqlConnectionENS_14default_deleteIS6_EEEEEEE7destroyB8ne200100ISA_vLi0EEEvRSB_PT_
FNA:3,0,_ZNSt3__116allocator_traitsINS_9allocatorIPNS_7__stateIcEEEEE7destroyB8ne200100IS4_vLi0EEEvRS5_PT_
FNA:3,0,_ZNSt3__116allocator_traitsINS_9allocatorIPPKN4inja8DataNodeEEEE7destroyB8ne200100IS6_vLi0EEEvRS7_PT_
FNA:3,212,_ZNSt3__116allocator_traitsINS_9allocatorIPPKN8nlohmann16json_abi_v3_11_310basic_jsonINS_3mapENS_6vectorENS_12basic_stringIcNS_11char_traitsIcEENS1_IcEEEEbxydS1_NS3_14adl_serializerENS6_IhNS1_IhEEEEvEEEEE7destroyB8ne200100ISI_vLi0EEEvRSJ_PT_
FNA:3,212,_ZNSt3__116allocator_traitsINS_9allocatorIPPN4inja15IfStatementNodeEEEE7destroyB8ne200100IS5_vLi0EEEvRS6_PT_
FNA:3,212,_ZNSt3__116allocator_traitsINS_9allocatorIPPN4inja16ForStatementNodeEEEE7destroyB8ne200100IS5_vLi0EEEvRS6_PT_
FNA:3,0,_ZNSt3__116allocator_traitsINS_9allocatorIPPN4inja18BlockStatementNodeEEEE7destroyB8ne200100IS5_vLi0EEEvRS6_PT_
FNA:3,90253,_ZNSt3__116allocator_traitsINS_9allocatorIcEEE7destroyB8ne200100IcvLi0EEEvRS2_PT_
FNA:3,0,_ZNSt3__116allocator_traitsINS_9allocatorIhEEE7destroyB8ne200100IhvLi0EEEvRS2_PT_
FNA:3,0,_ZNSt3__116allocator_traitsINS_9allocatorIiEEE7destroyB8ne200100IivLi0EEEvRS2_PT_
FNL:4,339,340
FNA:4,0,_ZNSt3__116allocator_traitsIN3fmt3v126detail9allocatorIcEEE8max_sizeB8ne200100IS5_vLi0EEEmRKS5_
FNA:4,8,_ZNSt3__116allocator_traitsINS_9allocatorIN4dbal11FilterGroupEEEE8max_sizeB8ne200100IS4_vLi0EEEmRKS4_
FNA:4,8,_ZNSt3__116allocator_traitsINS_9allocatorIN4dbal13AggregateSpecEEEE8max_sizeB8ne200100IS4_vLi0EEEmRKS4_
FNA:4,92,_ZNSt3__116allocator_traitsINS_9allocatorIN4dbal15FilterConditionEEEE8max_sizeB8ne200100IS4_vLi0EEEmRKS4_
FNA:4,1429,_ZNSt3__116allocator_traitsINS_9allocatorIN4dbal4core11EntityFieldEEEE8max_sizeB8ne200100IS5_vLi0EEEmRKS5_
FNA:4,1135,_ZNSt3__116allocator_traitsINS_9allocatorIN4dbal4core11EntityIndexEEEE8max_sizeB8ne200100IS5_vLi0EEEmRKS5_
FNA:4,0,_ZNSt3__116allocator_traitsINS_9allocatorIN4dbal4core11RelationDefEEEE8max_sizeB8ne200100IS5_vLi0EEEmRKS5_
FNA:4,0,_ZNSt3__116allocator_traitsINS_9allocatorIN4dbal4core23CompensatingTransaction6UndoOpEEEE8max_sizeB8ne200100IS6_vLi0EEEmRKS6_
FNA:4,1974,_ZNSt3__116allocator_traitsINS_9allocatorIN4dbal8adapters11EntityFieldEEEE8max_sizeB8ne200100IS5_vLi0EEEmRKS5_
FNA:4,0,_ZNSt3__116allocator_traitsINS_9allocatorIN4dbal8adapters11RelationDefEEEE8max_sizeB8ne200100IS5_vLi0EEEmRKS5_
FNA:4,1630,_ZNSt3__116allocator_traitsINS_9allocatorIN4dbal8adapters15FieldDefinitionEEEE8max_sizeB8ne200100IS5_vLi0EEEmRKS5_
FNA:4,652,_ZNSt3__116allocator_traitsINS_9allocatorIN4dbal8adapters15IndexDefinitionEEEE8max_sizeB8ne200100IS5_vLi0EEEmRKS5_
FNA:4,326,_ZNSt3__116allocator_traitsINS_9allocatorIN4dbal8adapters16EntityDefinitionEEEE8max_sizeB8ne200100IS5_vLi0EEEmRKS5_
FNA:4,0,_ZNSt3__116allocator_traitsINS_9allocatorIN4dbal8adapters18RelationDefinitionEEEE8max_sizeB8ne200100IS5_vLi0EEEmRKS5_
FNA:4,1412,_ZNSt3__116allocator_traitsINS_9allocatorIN4dbal8adapters3sql6SqlRowEEEE8max_sizeB8ne200100IS6_vLi0EEEmRKS6_
FNA:4,4514,_ZNSt3__116allocator_traitsINS_9allocatorIN4dbal8adapters3sql8SqlParamEEEE8max_sizeB8ne200100IS6_vLi0EEEmRKS6_
FNA:4,28915,_ZNSt3__116allocator_traitsINS_9allocatorIN8nlohmann16json_abi_v3_11_310basic_jsonINS_3mapENS_6vectorENS_12basic_stringIcNS_11char_traitsIcEENS1_IcEEEEbxydS1_NS3_14adl_serializerENS6_IhNS1_IhEEEEvEEEEE8max_sizeB8ne200100ISG_vLi0EEEmRKSG_
FNA:4,0,_ZNSt3__116allocator_traitsINS_9allocatorIN8nlohmann16json_abi_v3_11_327byte_container_with_subtypeINS_6vectorIhNS1_IhEEEEEEEEE8max_sizeB8ne200100IS9_vLi0EEEmRKS9_
FNA:4,424,_ZNSt3__116allocator_traitsINS_9allocatorINS_10shared_ptrIN4inja12FunctionNodeEEEEEE8max_sizeB8ne200100IS6_vLi0EEEmRKS6_
FNA:4,6360,_ZNSt3__116allocator_traitsINS_9allocatorINS_10shared_ptrIN4inja14ExpressionNodeEEEEEE8max_sizeB8ne200100IS6_vLi0EEEmRKS6_
FNA:4,5088,_ZNSt3__116allocator_traitsINS_9allocatorINS_10shared_ptrIN4inja7AstNodeEEEEEE8max_sizeB8ne200100IS6_vLi0EEEmRKS6_
FNA:4,1696,_ZNSt3__116allocator_traitsINS_9allocatorINS_10shared_ptrIN8nlohmann16json_abi_v3_11_310basic_jsonINS_3mapENS_6vectorENS_12basic_stringIcNS_11char_traitsIcEENS1_IcEEEEbxydS1_NS4_14adl_serializerENS7_IhNS1_IhEEEEvEEEEEEE8max_sizeB8ne200100ISI_vLi0EEEmRKSI_
FNA:4,456,_ZNSt3__116allocator_traitsINS_9allocatorINS_10unique_ptrIN4dbal8adapters3sql13SqlConnectionENS_14default_deleteIS6_EEEEEEE8max_sizeB8ne200100ISA_vLi0EEEmRKSA_
FNA:4,245,_ZNSt3__116allocator_traitsINS_9allocatorINS_11__hash_nodeINS_12basic_stringIcNS_11char_traitsIcEENS1_IcEEEEPvEEEEE8max_sizeB8ne200100ISA_vLi0EEEmRKSA_
FNA:4,49,_ZNSt3__116allocator_traitsINS_9allocatorINS_11__hash_nodeINS_17__hash_value_typeINS_12basic_stringIcNS_11char_traitsIcEENS1_IcEEEEN4dbal4core12EntitySchemaEEEPvEEEEE8max_sizeB8ne200100ISF_vLi0EEEmRKSF_
FNA:4,114,_ZNSt3__116allocator_traitsINS_9allocatorINS_11__hash_nodeINS_17__hash_value_typeINS_12basic_stringIcNS_11char_traitsIcEENS1_IcEEEEN4dbal8adapters12EntitySchemaEEEPvEEEEE8max_sizeB8ne200100ISF_vLi0EEEmRKSF_
FNA:4,0,_ZNSt3__116allocator_traitsINS_9allocatorINS_11__tree_nodeINS_12__value_typeINS_12basic_stringIcNS_11char_traitsIcEENS1_IcEEEEN4dbal4core10CacheEntryIN8nlohmann16json_abi_v3_11_310basic_jsonINS_3mapENS_6vectorES8_bxydS1_NSD_14adl_serializerENSG_IhNS1_IhEEEEvEEEEEEPvEEEEE8max_sizeB8ne200100ISP_vLi0EEEmRKSP_
FNA:4,0,_ZNSt3__116allocator_traitsINS_9allocatorINS_11__tree_nodeINS_12__value_typeINS_12basic_stringIcNS_11char_traitsIcEENS1_IcEEEEN4dbal4core12EntitySchemaEEEPvEEEEE8max_sizeB8ne200100ISF_vLi0EEEmRKSF_
FNA:4,0,_ZNSt3__116allocator_traitsINS_9allocatorINS_11__tree_nodeINS_12__value_typeINS_12basic_stringIcNS_11char_traitsIcEENS1_IcEEEEN4inja8TemplateEEEPvEEEEE8max_sizeB8ne200100ISE_vLi0EEEmRKSE_
FNA:4,80660,_ZNSt3__116allocator_traitsINS_9allocatorINS_11__tree_nodeINS_12__value_typeINS_12basic_stringIcNS_11char_traitsIcEENS1_IcEEEEN8nlohmann16json_abi_v3_11_310basic_jsonINS_3mapENS_6vectorES8_bxydS1_NSA_14adl_serializerENSD_IhNS1_IhEEEEvEEEEPvEEEEE8max_sizeB8ne200100ISL_vLi0EEEmRKSL_
FNA:4,0,_ZNSt3__116allocator_traitsINS_9allocatorINS_11__tree_nodeINS_12__value_typeINS_12basic_stringIcNS_11char_traitsIcEENS1_IcEEEENS_10shared_ptrIN4inja18BlockStatementNodeEEEEEPvEEEEE8max_sizeB8ne200100ISG_vLi0EEEmRKSG_
FNA:4,4739,_ZNSt3__116allocator_traitsINS_9allocatorINS_11__tree_nodeINS_12__value_typeINS_12basic_stringIcNS_11char_traitsIcEENS1_IcEEEES8_EEPvEEEEE8max_sizeB8ne200100ISC_vLi0EEEmRKSC_
FNA:4,0,_ZNSt3__116allocator_traitsINS_9allocatorINS_11__tree_nodeINS_12__value_typeINS_12basic_stringIcNS_11char_traitsIcEENS1_IcEEEEbEEPvEEEEE8max_sizeB8ne200100ISC_vLi0EEEmRKSC_
FNA:4,3286,_ZNSt3__116allocator_traitsINS_9allocatorINS_11__tree_nodeINS_12__value_typeINS_4pairINS_12basic_stringIcNS_11char_traitsIcEENS1_IcEEEEiEEN4inja15FunctionStorage12FunctionDataEEEPvEEEEE8max_sizeB8ne200100ISH_vLi0EEEmRKSH_
FNA:4,742,_ZNSt3__116allocator_traitsINS_9allocatorINS_11__tree_nodeINS_12basic_stringIcNS_11char_traitsIcEENS1_IcEEEEPvEEEEE8max_sizeB8ne200100ISA_vLi0EEEmRKSA_
FNA:4,76210,_ZNSt3__116allocator_traitsINS_9allocatorINS_12basic_stringIcNS_11char_traitsIcEENS1_IcEEEEEEE8max_sizeB8ne200100IS7_vLi0EEEmRKS7_
FNA:4,106,_ZNSt3__116allocator_traitsINS_9allocatorINS_20__shared_ptr_emplaceIN4inja11LiteralNodeENS1_IS4_EEEEEEE8max_sizeB8ne200100IS7_vLi0EEEmRKS7_
FNA:4,742,_ZNSt3__116allocator_traitsINS_9allocatorINS_20__shared_ptr_emplaceIN4inja12FunctionNodeENS1_IS4_EEEEEEE8max_sizeB8ne200100IS7_vLi0EEEmRKS7_
FNA:4,636,_ZNSt3__116allocator_traitsINS_9allocatorINS_20__shared_ptr_emplaceIN4inja15IfStatementNodeENS1_IS4_EEEEEEE8max_sizeB8ne200100IS7_vLi0EEEmRKS7_
FNA:4,0,_ZNSt3__116allocator_traitsINS_9allocatorINS_20__shared_ptr_emplaceIN4inja16SetStatementNodeENS1_IS4_EEEEEEE8max_sizeB8ne200100IS7_vLi0EEEmRKS7_
FNA:4,0,_ZNSt3__116allocator_traitsINS_9allocatorINS_20__shared_ptr_emplaceIN4inja18BlockStatementNodeENS1_IS4_EEEEEEE8max_sizeB8ne200100IS7_vLi0EEEmRKS7_
FNA:4,848,_ZNSt3__116allocator_traitsINS_9allocatorINS_20__shared_ptr_emplaceIN4inja18ExpressionListNodeENS1_IS4_EEEEEEE8max_sizeB8ne200100IS7_vLi0EEEmRKS7_
FNA:4,0,_ZNSt3__116allocator_traitsINS_9allocatorINS_20__shared_ptr_emplaceIN4inja20ExtendsStatementNodeENS1_IS4_EEEEEEE8max_sizeB8ne200100IS7_vLi0EEEmRKS7_
FNA:4,0,_ZNSt3__116allocator_traitsINS_9allocatorINS_20__shared_ptr_emplaceIN4inja20IncludeStatementNodeENS1_IS4_EEEEEEE8max_sizeB8ne200100IS7_vLi0EEEmRKS7_
FNA:4,212,_ZNSt3__116allocator_traitsINS_9allocatorINS_20__shared_ptr_emplaceIN4inja21ForArrayStatementNodeENS1_IS4_EEEEEEE8max_sizeB8ne200100IS7_vLi0EEEmRKS7_
FNA:4,0,_ZNSt3__116allocator_traitsINS_9allocatorINS_20__shared_ptr_emplaceIN4inja22ForObjectStatementNodeENS1_IS4_EEEEEEE8max_sizeB8ne200100IS7_vLi0EEEmRKS7_
FNA:4,1908,_ZNSt3__116allocator_traitsINS_9allocatorINS_20__shared_ptr_emplaceIN4inja8DataNodeENS1_IS4_EEEEEEE8max_sizeB8ne200100IS7_vLi0EEEmRKS7_
FNA:4,1908,_ZNSt3__116allocator_traitsINS_9allocatorINS_20__shared_ptr_emplaceIN4inja8TextNodeENS1_IS4_EEEEEEE8max_sizeB8ne200100IS7_vLi0EEEmRKS7_
FNA:4,9858,_ZNSt3__116allocator_traitsINS_9allocatorINS_20__shared_ptr_emplaceIN8nlohmann16json_abi_v3_11_310basic_jsonINS_3mapENS_6vectorENS_12basic_stringIcNS_11char_traitsIcEENS1_IcEEEEbxydS1_NS4_14adl_serializerENS7_IhNS1_IhEEEEvEENS1_ISG_EEEEEEE8max_sizeB8ne200100ISJ_vLi0EEEmRKSJ_
FNA:4,0,_ZNSt3__116allocator_traitsINS_9allocatorINS_20__shared_ptr_emplaceIN8nlohmann16json_abi_v3_11_36detail21output_string_adapterIcNS_12basic_stringIcNS_11char_traitsIcEENS1_IcEEEEEENS1_ISC_EEEEEEE8max_sizeB8ne200100ISF_vLi0EEEmRKSF_
FNA:4,16101,_ZNSt3__116allocator_traitsINS_9allocatorINS_3mapINS_12basic_stringIcNS_11char_traitsIcEENS1_IcEEEEN8nlohmann16json_abi_v3_11_310basic_jsonIS2_NS_6vectorES7_bxydS1_NS9_14adl_serializerENSB_IhNS1_IhEEEEvEENS_4lessIvEENS1_INS_4pairIKS7_SF_EEEEEEEEE8max_sizeB8ne200100ISN_vLi0EEEmRKSN_
FNA:4,0,_ZNSt3__116allocator_traitsINS_9allocatorINS_4pairINS_12basic_stringIcNS_11char_traitsIcEENS1_IcEEEES7_EEEEE8max_sizeB8ne200100IS9_vLi0EEEmRKS9_
FNA:4,0,_ZNSt3__116allocator_traitsINS_9allocatorINS_4pairIccEEEEE8max_sizeB8ne200100IS4_vLi0EEEmRKS4_
FNA:4,0,_ZNSt3__116allocator_traitsINS_9allocatorINS_4pairImPKcEEEEE8max_sizeB8ne200100IS6_vLi0EEEmRKS6_
FNA:4,8,_ZNSt3__116allocator_traitsINS_9allocatorINS_6threadEEEE8max_sizeB8ne200100IS3_vLi0EEEmRKS3_
FNA:4,3271,_ZNSt3__116allocator_traitsINS_9allocatorINS_6vectorIN8nlohmann16json_abi_v3_11_310basic_jsonINS_3mapES2_NS_12basic_stringIcNS_11char_traitsIcEENS1_IcEEEEbxydS1_NS4_14adl_serializerENS2_IhNS1_IhEEEEvEENS1_ISF_EEEEEEE8max_sizeB8ne200100ISI_vLi0EEEmRKSI_
FNA:4,0,_ZNSt3__116allocator_traitsINS_9allocatorINS_7__stateIcEEEEE8max_sizeB8ne200100IS4_vLi0EEEmRKS4_
FNA:4,0,_ZNSt3__116allocator_traitsINS_9allocatorINS_9sub_matchINS_11__wrap_iterIPKcEEEEEEE8max_sizeB8ne200100IS8_vLi0EEEmRKS8_
FNA:4,0,_ZNSt3__116allocator_traitsINS_9allocatorINS_9sub_matchIPKcEEEEE8max_sizeB8ne200100IS6_vLi0EEEmRKS6_
FNA:4,0,_ZNSt3__116allocator_traitsINS_9allocatorIPKN4inja18BlockStatementNodeEEEE8max_sizeB8ne200100IS6_vLi0EEEmRKS6_
FNA:4,0,_ZNSt3__116allocator_traitsINS_9allocatorIPKN4inja8DataNodeEEEE8max_sizeB8ne200100IS6_vLi0EEEmRKS6_
FNA:4,424,_ZNSt3__116allocator_traitsINS_9allocatorIPKN4inja8TemplateEEEE8max_sizeB8ne200100IS6_vLi0EEEmRKS6_
FNA:4,212,_ZNSt3__116allocator_traitsINS_9allocatorIPKN8nlohmann16json_abi_v3_11_310basic_jsonINS_3mapENS_6vectorENS_12basic_stringIcNS_11char_traitsIcEENS1_IcEEEEbxydS1_NS3_14adl_serializerENS6_IhNS1_IhEEEEvEEEEE8max_sizeB8ne200100ISI_vLi0EEEmRKSI_
FNA:4,674,_ZNSt3__116allocator_traitsINS_9allocatorIPKcEEE8max_sizeB8ne200100IS4_vLi0EEEmRKS4_
FNA:4,212,_ZNSt3__116allocator_traitsINS_9allocatorIPN4inja15IfStatementNodeEEEE8max_sizeB8ne200100IS5_vLi0EEEmRKS5_
FNA:4,212,_ZNSt3__116allocator_traitsINS_9allocatorIPN4inja16ForStatementNodeEEEE8max_sizeB8ne200100IS5_vLi0EEEmRKS5_
FNA:4,0,_ZNSt3__116allocator_traitsINS_9allocatorIPN4inja18BlockStatementNodeEEEE8max_sizeB8ne200100IS5_vLi0EEEmRKS5_
FNA:4,982,_ZNSt3__116allocator_traitsINS_9allocatorIPN8nlohmann16json_abi_v3_11_310basic_jsonINS_3mapENS_6vectorENS_12basic_stringIcNS_11char_traitsIcEENS1_IcEEEEbxydS1_NS3_14adl_serializerENS6_IhNS1_IhEEEEvEEEEE8max_sizeB8ne200100ISH_vLi0EEEmRKSH_
FNA:4,424,_ZNSt3__116allocator_traitsINS_9allocatorIPNS_10shared_ptrIN4inja12FunctionNodeEEEEEE8max_sizeB8ne200100IS7_vLi0EEEmRKS7_
FNA:4,0,_ZNSt3__116allocator_traitsINS_9allocatorIPNS_10unique_ptrIN4dbal8adapters3sql13SqlConnectionENS_14default_deleteIS6_EEEEEEE8max_sizeB8ne200100ISB_vLi0EEEmRKSB_
FNA:4,105,_ZNSt3__116allocator_traitsINS_9allocatorIPNS_16__hash_node_baseIPNS_11__hash_nodeINS_12basic_stringIcNS_11char_traitsIcEENS1_IcEEEEPvEEEEEEE8max_sizeB8ne200100ISE_vLi0EEEmRKSE_
FNA:4,49,_ZNSt3__116allocator_traitsINS_9allocatorIPNS_16__hash_node_baseIPNS_11__hash_nodeINS_17__hash_value_typeINS_12basic_stringIcNS_11char_traitsIcEENS1_IcEEEEN4dbal4core12EntitySchemaEEEPvEEEEEEE8max_sizeB8ne200100ISJ_vLi0EEEmRKSJ_
FNA:4,57,_ZNSt3__116allocator_traitsINS_9allocatorIPNS_16__hash_node_baseIPNS_11__hash_nodeINS_17__hash_value_typeINS_12basic_stringIcNS_11char_traitsIcEENS1_IcEEEEN4dbal8adapters12EntitySchemaEEEPvEEEEEEE8max_sizeB8ne200100ISJ_vLi0EEEmRKSJ_
FNA:4,0,_ZNSt3__116allocator_traitsINS_9allocatorIPNS_7__stateIcEEEEE8max_sizeB8ne200100IS5_vLi0EEEmRKS5_
FNA:4,0,_ZNSt3__116allocator_traitsINS_9allocatorIPPKN4inja8DataNodeEEEE8max_sizeB8ne200100IS7_vLi0EEEmRKS7_
FNA:4,212,_ZNSt3__116allocator_traitsINS_9allocatorIPPKN8nlohmann16json_abi_v3_11_310basic_jsonINS_3mapENS_6vectorENS_12basic_stringIcNS_11char_traitsIcEENS1_IcEEEEbxydS1_NS3_14adl_serializerENS6_IhNS1_IhEEEEvEEEEE8max_sizeB8ne200100ISJ_vLi0EEEmRKSJ_
FNA:4,212,_ZNSt3__116allocator_traitsINS_9allocatorIPPN4inja15IfStatementNodeEEEE8max_sizeB8ne200100IS6_vLi0EEEmRKS6_
FNA:4,212,_ZNSt3__116allocator_traitsINS_9allocatorIPPN4inja16ForStatementNodeEEEE8max_sizeB8ne200100IS6_vLi0EEEmRKS6_
FNA:4,0,_ZNSt3__116allocator_traitsINS_9allocatorIPPN4inja18BlockStatementNodeEEEE8max_sizeB8ne200100IS6_vLi0EEEmRKS6_
FNA:4,3649,_ZNSt3__116allocator_traitsINS_9allocatorIcEEE8max_sizeB8ne200100IS2_vLi0EEEmRKS2_
FNA:4,0,_ZNSt3__116allocator_traitsINS_9allocatorIhEEE8max_sizeB8ne200100IS2_vLi0EEEmRKS2_
FNA:4,44,_ZNSt3__116allocator_traitsINS_9allocatorIiEEE8max_sizeB8ne200100IS2_vLi0EEEmRKS2_
FNA:4,660,_ZNSt3__116allocator_traitsINS_9allocatorImEEE8max_sizeB8ne200100IS2_vLi0EEEmRKS2_
FNL:5,352,353
FNA:5,4,_ZNSt3__116allocator_traitsINS_9allocatorIN4dbal15FilterConditionEEEE37select_on_container_copy_constructionB8ne200100IS4_vLi0EEES4_RKS4_
FNA:5,445,_ZNSt3__116allocator_traitsINS_9allocatorIN4dbal4core11EntityFieldEEEE37select_on_container_copy_constructionB8ne200100IS5_vLi0EEES5_RKS5_
FNA:5,445,_ZNSt3__116allocator_traitsINS_9allocatorIN4dbal4core11EntityIndexEEEE37select_on_container_copy_constructionB8ne200100IS5_vLi0EEES5_RKS5_
FNA:5,445,_ZNSt3__116allocator_traitsINS_9allocatorIN4dbal4core11RelationDefEEEE37select_on_container_copy_constructionB8ne200100IS5_vLi0EEES5_RKS5_
FNA:5,584,_ZNSt3__116allocator_traitsINS_9allocatorIN4dbal8adapters11EntityFieldEEEE37select_on_container_copy_constructionB8ne200100IS5_vLi0EEES5_RKS5_
FNA:5,584,_ZNSt3__116allocator_traitsINS_9allocatorIN4dbal8adapters11RelationDefEEEE37select_on_container_copy_constructionB8ne200100IS5_vLi0EEES5_RKS5_
FNA:5,163,_ZNSt3__116allocator_traitsINS_9allocatorIN4dbal8adapters15FieldDefinitionEEEE37select_on_container_copy_constructionB8ne200100IS5_vLi0EEES5_RKS5_
FNA:5,163,_ZNSt3__116allocator_traitsINS_9allocatorIN4dbal8adapters15IndexDefinitionEEEE37select_on_container_copy_constructionB8ne200100IS5_vLi0EEES5_RKS5_
FNA:5,163,_ZNSt3__116allocator_traitsINS_9allocatorIN4dbal8adapters18RelationDefinitionEEEE37select_on_container_copy_constructionB8ne200100IS5_vLi0EEES5_RKS5_
FNA:5,33,_ZNSt3__116allocator_traitsINS_9allocatorIN4dbal8adapters3sql8SqlParamEEEE37select_on_container_copy_constructionB8ne200100IS6_vLi0EEES6_RKS6_
FNA:5,2238,_ZNSt3__116allocator_traitsINS_9allocatorIN8nlohmann16json_abi_v3_11_310basic_jsonINS_3mapENS_6vectorENS_12basic_stringIcNS_11char_traitsIcEENS1_IcEEEEbxydS1_NS3_14adl_serializerENS6_IhNS1_IhEEEEvEEEEE37select_on_container_copy_constructionB8ne200100ISG_vLi0EEESG_RKSG_
FNA:5,0,_ZNSt3__116allocator_traitsINS_9allocatorINS_10shared_ptrIN4inja7AstNodeEEEEEE37select_on_container_copy_constructionB8ne200100IS6_vLi0EEES6_RKS6_
FNA:5,0,_ZNSt3__116allocator_traitsINS_9allocatorINS_11__tree_nodeINS_12__value_typeINS_12basic_stringIcNS_11char_traitsIcEENS1_IcEEEEN4dbal4core12EntitySchemaEEEPvEEEEE37select_on_container_copy_constructionB8ne200100ISF_vLi0EEESF_RKSF_
FNA:5,10050,_ZNSt3__116allocator_traitsINS_9allocatorINS_11__tree_nodeINS_12__value_typeINS_12basic_stringIcNS_11char_traitsIcEENS1_IcEEEEN8nlohmann16json_abi_v3_11_310basic_jsonINS_3mapENS_6vectorES8_bxydS1_NSA_14adl_serializerENSD_IhNS1_IhEEEEvEEEEPvEEEEE37select_on_container_copy_constructionB8ne200100ISL_vLi0EEESL_RKSL_
FNA:5,0,_ZNSt3__116allocator_traitsINS_9allocatorINS_11__tree_nodeINS_12__value_typeINS_12basic_stringIcNS_11char_traitsIcEENS1_IcEEEENS_10shared_ptrIN4inja18BlockStatementNodeEEEEEPvEEEEE37select_on_container_copy_constructionB8ne200100ISG_vLi0EEESG_RKSG_
FNA:5,1029,_ZNSt3__116allocator_traitsINS_9allocatorINS_11__tree_nodeINS_12__value_typeINS_12basic_stringIcNS_11char_traitsIcEENS1_IcEEEES8_EEPvEEEEE37select_on_container_copy_constructionB8ne200100ISC_vLi0EEESC_RKSC_
FNA:5,0,_ZNSt3__116allocator_traitsINS_9allocatorINS_11__tree_nodeINS_12__value_typeINS_12basic_stringIcNS_11char_traitsIcEENS1_IcEEEEbEEPvEEEEE37select_on_container_copy_constructionB8ne200100ISC_vLi0EEESC_RKSC_
FNA:5,11287,_ZNSt3__116allocator_traitsINS_9allocatorINS_12basic_stringIcNS_11char_traitsIcEENS1_IcEEEEEEE37select_on_container_copy_constructionB8ne200100IS7_vLi0EEES7_RKS7_
FNA:5,0,_ZNSt3__116allocator_traitsINS_9allocatorINS_4pairImPKcEEEEE37select_on_container_copy_constructionB8ne200100IS6_vLi0EEES6_RKS6_
FNA:5,0,_ZNSt3__116allocator_traitsINS_9allocatorINS_9sub_matchIPKcEEEEE37select_on_container_copy_constructionB8ne200100IS6_vLi0EEES6_RKS6_
FNA:5,290,_ZNSt3__116allocator_traitsINS_9allocatorIcEEE37select_on_container_copy_constructionB8ne200100IS2_vLi0EEES2_RKS2_
FNA:5,0,_ZNSt3__116allocator_traitsINS_9allocatorIhEEE37select_on_container_copy_constructionB8ne200100IS2_vLi0EEES2_RKS2_
FNF:6
FNH:6
DA:269,168766
DA:270,168766
DA:301,217431
DA:302,217431
DA:303,217431
DA:317,455364
DA:318,455364
DA:319,455364
DA:328,455365
DA:329,455365
DA:330,455365
DA:339,266102
DA:340,266102
DA:352,27923
DA:353,27923
LF:15
LH:15
end_of_record
TN:
SF:/Library/Developer/CommandLineTools/SDKs/MacOSX.sdk/usr/include/c++/v1/__memory/compressed_pair.h
FNL:0,69,70
FNA:0,245,_ZNSt3__125__compressed_pair_paddingINS_22__hash_node_destructorINS_9allocatorINS_11__hash_nodeINS_12basic_stringIcNS_11char_traitsIcEENS2_IcEEEEPvEEEEEELb0EEC1Ev
FNA:0,245,_ZNSt3__125__compressed_pair_paddingINS_22__hash_node_destructorINS_9allocatorINS_11__hash_nodeINS_12basic_stringIcNS_11char_traitsIcEENS2_IcEEEEPvEEEEEELb0EEC2Ev
FNA:0,49,_ZNSt3__125__compressed_pair_paddingINS_22__hash_node_destructorINS_9allocatorINS_11__hash_nodeINS_17__hash_value_typeINS_12basic_stringIcNS_11char_traitsIcEENS2_IcEEEEN4dbal4core12EntitySchemaEEEPvEEEEEELb0EEC1Ev
FNA:0,49,_ZNSt3__125__compressed_pair_paddingINS_22__hash_node_destructorINS_9allocatorINS_11__hash_nodeINS_17__hash_value_typeINS_12basic_stringIcNS_11char_traitsIcEENS2_IcEEEEN4dbal4core12EntitySchemaEEEPvEEEEEELb0EEC2Ev
FNA:0,114,_ZNSt3__125__compressed_pair_paddingINS_22__hash_node_destructorINS_9allocatorINS_11__hash_nodeINS_17__hash_value_typeINS_12basic_stringIcNS_11char_traitsIcEENS2_IcEEEEN4dbal8adapters12EntitySchemaEEEPvEEEEEELb0EEC1Ev
FNA:0,114,_ZNSt3__125__compressed_pair_paddingINS_22__hash_node_destructorINS_9allocatorINS_11__hash_nodeINS_17__hash_value_typeINS_12basic_stringIcNS_11char_traitsIcEENS2_IcEEEEN4dbal8adapters12EntitySchemaEEEPvEEEEEELb0EEC2Ev
FNA:0,0,_ZNSt3__125__compressed_pair_paddingINS_22__tree_node_destructorINS_9allocatorINS_11__tree_nodeINS_12__value_typeINS_12basic_stringIcNS_11char_traitsIcEENS2_IcEEEEN4dbal4core10CacheEntryIN8nlohmann16json_abi_v3_11_310basic_jsonINS_3mapENS_6vectorES9_bxydS2_NSE_14adl_serializerENSH_IhNS2_IhEEEEvEEEEEEPvEEEEEELb0EEC1Ev
FNA:0,0,_ZNSt3__125__compressed_pair_paddingINS_22__tree_node_destructorINS_9allocatorINS_11__tree_nodeINS_12__value_typeINS_12basic_stringIcNS_11char_traitsIcEENS2_IcEEEEN4dbal4core10CacheEntryIN8nlohmann16json_abi_v3_11_310basic_jsonINS_3mapENS_6vectorES9_bxydS2_NSE_14adl_serializerENSH_IhNS2_IhEEEEvEEEEEEPvEEEEEELb0EEC2Ev
FNA:0,0,_ZNSt3__125__compressed_pair_paddingINS_22__tree_node_destructorINS_9allocatorINS_11__tree_nodeINS_12__value_typeINS_12basic_stringIcNS_11char_traitsIcEENS2_IcEEEEN4dbal4core12EntitySchemaEEEPvEEEEEELb0EEC1Ev
FNA:0,0,_ZNSt3__125__compressed_pair_paddingINS_22__tree_node_destructorINS_9allocatorINS_11__tree_nodeINS_12__value_typeINS_12basic_stringIcNS_11char_traitsIcEENS2_IcEEEEN4dbal4core12EntitySchemaEEEPvEEEEEELb0EEC2Ev
FNA:0,0,_ZNSt3__125__compressed_pair_paddingINS_22__tree_node_destructorINS_9allocatorINS_11__tree_nodeINS_12__value_typeINS_12basic_stringIcNS_11char_traitsIcEENS2_IcEEEEN4inja8TemplateEEEPvEEEEEELb0EEC1Ev
FNA:0,0,_ZNSt3__125__compressed_pair_paddingINS_22__tree_node_destructorINS_9allocatorINS_11__tree_nodeINS_12__value_typeINS_12basic_stringIcNS_11char_traitsIcEENS2_IcEEEEN4inja8TemplateEEEPvEEEEEELb0EEC2Ev
FNA:0,80660,_ZNSt3__125__compressed_pair_paddingINS_22__tree_node_destructorINS_9allocatorINS_11__tree_nodeINS_12__value_typeINS_12basic_stringIcNS_11char_traitsIcEENS2_IcEEEEN8nlohmann16json_abi_v3_11_310basic_jsonINS_3mapENS_6vectorES9_bxydS2_NSB_14adl_serializerENSE_IhNS2_IhEEEEvEEEEPvEEEEEELb0EEC1Ev
FNA:0,80660,_ZNSt3__125__compressed_pair_paddingINS_22__tree_node_destructorINS_9allocatorINS_11__tree_nodeINS_12__value_typeINS_12basic_stringIcNS_11char_traitsIcEENS2_IcEEEEN8nlohmann16json_abi_v3_11_310basic_jsonINS_3mapENS_6vectorES9_bxydS2_NSB_14adl_serializerENSE_IhNS2_IhEEEEvEEEEPvEEEEEELb0EEC2Ev
FNA:0,0,_ZNSt3__125__compressed_pair_paddingINS_22__tree_node_destructorINS_9allocatorINS_11__tree_nodeINS_12__value_typeINS_12basic_stringIcNS_11char_traitsIcEENS2_IcEEEENS_10shared_ptrIN4inja18BlockStatementNodeEEEEEPvEEEEEELb0EEC1Ev
FNA:0,0,_ZNSt3__125__compressed_pair_paddingINS_22__tree_node_destructorINS_9allocatorINS_11__tree_nodeINS_12__value_typeINS_12basic_stringIcNS_11char_traitsIcEENS2_IcEEEENS_10shared_ptrIN4inja18BlockStatementNodeEEEEEPvEEEEEELb0EEC2Ev
FNA:0,4739,_ZNSt3__125__compressed_pair_paddingINS_22__tree_node_destructorINS_9allocatorINS_11__tree_nodeINS_12__value_typeINS_12basic_stringIcNS_11char_traitsIcEENS2_IcEEEES9_EEPvEEEEEELb0EEC1Ev
FNA:0,4739,_ZNSt3__125__compressed_pair_paddingINS_22__tree_node_destructorINS_9allocatorINS_11__tree_nodeINS_12__value_typeINS_12basic_stringIcNS_11char_traitsIcEENS2_IcEEEES9_EEPvEEEEEELb0EEC2Ev
FNA:0,0,_ZNSt3__125__compressed_pair_paddingINS_22__tree_node_destructorINS_9allocatorINS_11__tree_nodeINS_12__value_typeINS_12basic_stringIcNS_11char_traitsIcEENS2_IcEEEEbEEPvEEEEEELb0EEC1Ev
FNA:0,0,_ZNSt3__125__compressed_pair_paddingINS_22__tree_node_destructorINS_9allocatorINS_11__tree_nodeINS_12__value_typeINS_12basic_stringIcNS_11char_traitsIcEENS2_IcEEEEbEEPvEEEEEELb0EEC2Ev
FNA:0,3286,_ZNSt3__125__compressed_pair_paddingINS_22__tree_node_destructorINS_9allocatorINS_11__tree_nodeINS_12__value_typeINS_4pairINS_12basic_stringIcNS_11char_traitsIcEENS2_IcEEEEiEEN4inja15FunctionStorage12FunctionDataEEEPvEEEEEELb0EEC1Ev
FNA:0,3286,_ZNSt3__125__compressed_pair_paddingINS_22__tree_node_destructorINS_9allocatorINS_11__tree_nodeINS_12__value_typeINS_4pairINS_12basic_stringIcNS_11char_traitsIcEENS2_IcEEEEiEEN4inja15FunctionStorage12FunctionDataEEEPvEEEEEELb0EEC2Ev
FNA:0,742,_ZNSt3__125__compressed_pair_paddingINS_22__tree_node_destructorINS_9allocatorINS_11__tree_nodeINS_12basic_stringIcNS_11char_traitsIcEENS2_IcEEEEPvEEEEEELb0EEC1Ev
FNA:0,742,_ZNSt3__125__compressed_pair_paddingINS_22__tree_node_destructorINS_9allocatorINS_11__tree_nodeINS_12basic_stringIcNS_11char_traitsIcEENS2_IcEEEEPvEEEEEELb0EEC2Ev
FNF:1
FNH:1
DA:69,89835
DA:70,89835
LF:2
LH:2
end_of_record
TN:
SF:/Library/Developer/CommandLineTools/SDKs/MacOSX.sdk/usr/include/c++/v1/__memory/construct_at.h
FNL:0,38,40
FNA:0,4,_ZNSt3__112construct_atB8ne200100IN4dbal11FilterGroupEJRKS2_EPS2_EEPT_S7_DpOT0_
FNA:0,0,_ZNSt3__112construct_atB8ne200100IN4dbal11FilterGroupEJS2_EPS2_EEPT_S5_DpOT0_
FNA:0,4,_ZNSt3__112construct_atB8ne200100IN4dbal13AggregateSpecEJS2_EPS2_EEPT_S5_DpOT0_
FNA:0,6,_ZNSt3__112construct_atB8ne200100IN4dbal15FilterConditionEJRKS2_EPS2_EEPT_S7_DpOT0_
FNA:0,8,_ZNSt3__112construct_atB8ne200100IN4dbal15FilterConditionEJRS2_EPS2_EEPT_S6_DpOT0_
FNA:0,40,_ZNSt3__112construct_atB8ne200100IN4dbal15FilterConditionEJS2_EPS2_EEPT_S5_DpOT0_
FNA:0,343,_ZNSt3__112construct_atB8ne200100IN4dbal4core11EntityFieldEJRKS3_EPS3_EEPT_S8_DpOT0_
FNA:0,3458,_ZNSt3__112construct_atB8ne200100IN4dbal4core11EntityFieldEJRS3_EPS3_EEPT_S7_DpOT0_
FNA:0,343,_ZNSt3__112construct_atB8ne200100IN4dbal4core11EntityFieldEJS3_EPS3_EEPT_S6_DpOT0_
FNA:0,49,_ZNSt3__112construct_atB8ne200100IN4dbal4core11EntityIndexEJRKS3_EPS3_EEPT_S8_DpOT0_
FNA:0,494,_ZNSt3__112construct_atB8ne200100IN4dbal4core11EntityIndexEJRS3_EPS3_EEPT_S7_DpOT0_
FNA:0,0,_ZNSt3__112construct_atB8ne200100IN4dbal4core11EntityIndexEJS3_EPS3_EEPT_S6_DpOT0_
FNA:0,0,_ZNSt3__112construct_atB8ne200100IN4dbal4core11RelationDefEJRS3_EPS3_EEPT_S7_DpOT0_
FNA:0,0,_ZNSt3__112construct_atB8ne200100IN4dbal4core12EntitySchema3ACLEJRKS4_EPS4_EEPT_S9_DpOT0_
FNA:0,0,_ZNSt3__112construct_atB8ne200100IN4dbal4core12EntitySchema3ACLEJS4_EPS4_EEPT_S7_DpOT0_
FNA:0,0,_ZNSt3__112construct_atB8ne200100IN4dbal4core23CompensatingTransaction6UndoOpEJS4_EPS4_EEPT_S7_DpOT0_
FNA:0,406,_ZNSt3__112construct_atB8ne200100IN4dbal8adapters11EntityFieldEJRKS3_EPS3_EEPT_S8_DpOT0_
FNA:0,4886,_ZNSt3__112construct_atB8ne200100IN4dbal8adapters11EntityFieldEJRS3_EPS3_EEPT_S7_DpOT0_
FNA:0,406,_ZNSt3__112construct_atB8ne200100IN4dbal8adapters11EntityFieldEJS3_EPS3_EEPT_S6_DpOT0_
FNA:0,0,_ZNSt3__112construct_atB8ne200100IN4dbal8adapters11RelationDefEJRKS3_EPS3_EEPT_S8_DpOT0_
FNA:0,0,_ZNSt3__112construct_atB8ne200100IN4dbal8adapters11RelationDefEJRS3_EPS3_EEPT_S7_DpOT0_
FNA:0,0,_ZNSt3__112construct_atB8ne200100IN4dbal8adapters11RelationDefEJS3_EPS3_EEPT_S6_DpOT0_
FNA:0,1141,_ZNSt3__112construct_atB8ne200100IN4dbal8adapters15FieldDefinitionEJRKS3_EPS3_EEPT_S8_DpOT0_
FNA:0,1141,_ZNSt3__112construct_atB8ne200100IN4dbal8adapters15FieldDefinitionEJRS3_EPS3_EEPT_S7_DpOT0_
FNA:0,1141,_ZNSt3__112construct_atB8ne200100IN4dbal8adapters15FieldDefinitionEJS3_EPS3_EEPT_S6_DpOT0_
FNA:0,163,_ZNSt3__112construct_atB8ne200100IN4dbal8adapters15IndexDefinitionEJRKS3_EPS3_EEPT_S8_DpOT0_
FNA:0,163,_ZNSt3__112construct_atB8ne200100IN4dbal8adapters15IndexDefinitionEJRS3_EPS3_EEPT_S7_DpOT0_
FNA:0,0,_ZNSt3__112construct_atB8ne200100IN4dbal8adapters15IndexDefinitionEJS3_EPS3_EEPT_S6_DpOT0_
FNA:0,163,_ZNSt3__112construct_atB8ne200100IN4dbal8adapters16EntityDefinitionEJRKS3_EPS3_EEPT_S8_DpOT0_
FNA:0,0,_ZNSt3__112construct_atB8ne200100IN4dbal8adapters16EntityDefinitionEJS3_EPS3_EEPT_S6_DpOT0_
FNA:0,0,_ZNSt3__112construct_atB8ne200100IN4dbal8adapters18RelationDefinitionEJRKS3_EPS3_EEPT_S8_DpOT0_
FNA:0,0,_ZNSt3__112construct_atB8ne200100IN4dbal8adapters18RelationDefinitionEJRS3_EPS3_EEPT_S7_DpOT0_
FNA:0,0,_ZNSt3__112construct_atB8ne200100IN4dbal8adapters18RelationDefinitionEJS3_EPS3_EEPT_S6_DpOT0_
FNA:0,1283,_ZNSt3__112construct_atB8ne200100IN4dbal8adapters3sql6SqlRowEJS4_EPS4_EEPT_S7_DpOT0_
FNA:0,65,_ZNSt3__112construct_atB8ne200100IN4dbal8adapters3sql8SqlParamEJRKS4_EPS4_EEPT_S9_DpOT0_
FNA:0,56,_ZNSt3__112construct_atB8ne200100IN4dbal8adapters3sql8SqlParamEJRS4_EPS4_EEPT_S8_DpOT0_
FNA:0,6591,_ZNSt3__112construct_atB8ne200100IN4dbal8adapters3sql8SqlParamEJS4_EPS4_EEPT_S7_DpOT0_
FNA:0,106,_ZNSt3__112construct_atB8ne200100IN4inja11LiteralNodeEJRKNS_17basic_string_viewIcNS_11char_traitsIcEEEElEPS2_EEPT_SB_DpOT0_
FNA:0,636,_ZNSt3__112construct_atB8ne200100IN4inja12FunctionNodeEJRNS1_15FunctionStorage9OperationElEPS2_EEPT_S8_DpOT0_
FNA:0,106,_ZNSt3__112construct_atB8ne200100IN4inja12FunctionNodeEJRNS_17basic_string_viewIcNS_11char_traitsIcEEEElEPS2_EEPT_SA_DpOT0_
FNA:0,636,_ZNSt3__112construct_atB8ne200100IN4inja15IfStatementNodeEJRPNS1_9BlockNodeElEPS2_EEPT_S8_DpOT0_
FNA:0,0,_ZNSt3__112construct_atB8ne200100IN4inja15IfStatementNodeEJbRPNS1_9BlockNodeElEPS2_EEPT_S8_DpOT0_
FNA:0,0,_ZNSt3__112construct_atB8ne200100IN4inja16SetStatementNodeEJRKNS_12basic_stringIcNS_11char_traitsIcEENS_9allocatorIcEEEElEPS2_EEPT_SD_DpOT0_
FNA:0,0,_ZNSt3__112construct_atB8ne200100IN4inja18BlockStatementNodeEJRPNS1_9BlockNodeERKNS_12basic_stringIcNS_11char_traitsIcEENS_9allocatorIcEEEElEPS2_EEPT_SG_DpOT0_
FNA:0,848,_ZNSt3__112construct_atB8ne200100IN4inja18ExpressionListNodeEJlEPS2_EEPT_S5_DpOT0_
FNA:0,0,_ZNSt3__112construct_atB8ne200100IN4inja20ExtendsStatementNodeEJRNS_12basic_stringIcNS_11char_traitsIcEENS_9allocatorIcEEEElEPS2_EEPT_SC_DpOT0_
FNA:0,0,_ZNSt3__112construct_atB8ne200100IN4inja20IncludeStatementNodeEJRNS_12basic_stringIcNS_11char_traitsIcEENS_9allocatorIcEEEElEPS2_EEPT_SC_DpOT0_
FNA:0,212,_ZNSt3__112construct_atB8ne200100IN4inja21ForArrayStatementNodeEJNS_12basic_stringIcNS_11char_traitsIcEENS_9allocatorIcEEEERPNS1_9BlockNodeElEPS2_EEPT_SE_DpOT0_
FNA:0,0,_ZNSt3__112construct_atB8ne200100IN4inja22ForObjectStatementNodeEJNS_12basic_stringIcNS_11char_traitsIcEENS_9allocatorIcEEEES8_RPNS1_9BlockNodeElEPS2_EEPT_SE_DpOT0_
FNA:0,1908,_ZNSt3__112construct_atB8ne200100IN4inja8DataNodeEJNS_12basic_stringIcNS_11char_traitsIcEENS_9allocatorIcEEEElEPS2_EEPT_SB_DpOT0_
FNA:0,1908,_ZNSt3__112construct_atB8ne200100IN4inja8TextNodeEJlmEPS2_EEPT_S5_DpOT0_
FNA:0,0,_ZNSt3__112construct_atB8ne200100IN8nlohmann16json_abi_v3_11_310basic_jsonINS_3mapENS_6vectorENS_12basic_stringIcNS_11char_traitsIcEENS_9allocatorIcEEEEbxydS9_NS2_14adl_serializerENS5_IhNS9_IhEEEEvEEJDnEPSF_EEPT_SI_DpOT0_
FNA:0,0,_ZNSt3__112construct_atB8ne200100IN8nlohmann16json_abi_v3_11_310basic_jsonINS_3mapENS_6vectorENS_12basic_stringIcNS_11char_traitsIcEENS_9allocatorIcEEEEbxydS9_NS2_14adl_serializerENS5_IhNS9_IhEEEEvEEJEPSF_EEPT_SI_DpOT0_
FNA:0,163,_ZNSt3__112construct_atB8ne200100IN8nlohmann16json_abi_v3_11_310basic_jsonINS_3mapENS_6vectorENS_12basic_stringIcNS_11char_traitsIcEENS_9allocatorIcEEEEbxydS9_NS2_14adl_serializerENS5_IhNS9_IhEEEEvEEJNS2_6detail7value_tEEPSF_EEPT_SK_DpOT0_
FNA:0,0,_ZNSt3__112construct_atB8ne200100IN8nlohmann16json_abi_v3_11_310basic_jsonINS_3mapENS_6vectorENS_12basic_stringIcNS_11char_traitsIcEENS_9allocatorIcEEEEbxydS9_NS2_14adl_serializerENS5_IhNS9_IhEEEEvEEJNS5_ISF_NS9_ISF_EEEEEPSF_EEPT_SK_DpOT0_
FNA:0,183,_ZNSt3__112construct_atB8ne200100IN8nlohmann16json_abi_v3_11_310basic_jsonINS_3mapENS_6vectorENS_12basic_stringIcNS_11char_traitsIcEENS_9allocatorIcEEEEbxydS9_NS2_14adl_serializerENS5_IhNS9_IhEEEEvEEJRKNS2_6detail8json_refISF_EEEPSF_EEPT_SN_DpOT0_
FNA:0,424,_ZNSt3__112construct_atB8ne200100IN8nlohmann16json_abi_v3_11_310basic_jsonINS_3mapENS_6vectorENS_12basic_stringIcNS_11char_traitsIcEENS_9allocatorIcEEEEbxydS9_NS2_14adl_serializerENS5_IhNS9_IhEEEEvEEJRKSB_EPSF_EEPT_SK_DpOT0_
FNA:0,11566,_ZNSt3__112construct_atB8ne200100IN8nlohmann16json_abi_v3_11_310basic_jsonINS_3mapENS_6vectorENS_12basic_stringIcNS_11char_traitsIcEENS_9allocatorIcEEEEbxydS9_NS2_14adl_serializerENS5_IhNS9_IhEEEEvEEJRKSF_EPSF_EEPT_SK_DpOT0_
FNA:0,0,_ZNSt3__112construct_atB8ne200100IN8nlohmann16json_abi_v3_11_310basic_jsonINS_3mapENS_6vectorENS_12basic_stringIcNS_11char_traitsIcEENS_9allocatorIcEEEEbxydS9_NS2_14adl_serializerENS5_IhNS9_IhEEEEvEEJRKiEPSF_EEPT_SK_DpOT0_
FNA:0,326,_ZNSt3__112construct_atB8ne200100IN8nlohmann16json_abi_v3_11_310basic_jsonINS_3mapENS_6vectorENS_12basic_stringIcNS_11char_traitsIcEENS_9allocatorIcEEEEbxydS9_NS2_14adl_serializerENS5_IhNS9_IhEEEEvEEJRSB_EPSF_EEPT_SJ_DpOT0_
FNA:0,6292,_ZNSt3__112construct_atB8ne200100IN8nlohmann16json_abi_v3_11_310basic_jsonINS_3mapENS_6vectorENS_12basic_stringIcNS_11char_traitsIcEENS_9allocatorIcEEEEbxydS9_NS2_14adl_serializerENS5_IhNS9_IhEEEEvEEJRSF_EPSF_EEPT_SJ_DpOT0_
FNA:0,0,_ZNSt3__112construct_atB8ne200100IN8nlohmann16json_abi_v3_11_310basic_jsonINS_3mapENS_6vectorENS_12basic_stringIcNS_11char_traitsIcEENS_9allocatorIcEEEEbxydS9_NS2_14adl_serializerENS5_IhNS9_IhEEEEvEEJRbEPSF_EEPT_SJ_DpOT0_
FNA:0,0,_ZNSt3__112construct_atB8ne200100IN8nlohmann16json_abi_v3_11_310basic_jsonINS_3mapENS_6vectorENS_12basic_stringIcNS_11char_traitsIcEENS_9allocatorIcEEEEbxydS9_NS2_14adl_serializerENS5_IhNS9_IhEEEEvEEJRdEPSF_EEPT_SJ_DpOT0_
FNA:0,0,_ZNSt3__112construct_atB8ne200100IN8nlohmann16json_abi_v3_11_310basic_jsonINS_3mapENS_6vectorENS_12basic_stringIcNS_11char_traitsIcEENS_9allocatorIcEEEEbxydS9_NS2_14adl_serializerENS5_IhNS9_IhEEEEvEEJRxEPSF_EEPT_SJ_DpOT0_
FNA:0,0,_ZNSt3__112construct_atB8ne200100IN8nlohmann16json_abi_v3_11_310basic_jsonINS_3mapENS_6vectorENS_12basic_stringIcNS_11char_traitsIcEENS_9allocatorIcEEEEbxydS9_NS2_14adl_serializerENS5_IhNS9_IhEEEEvEEJRyEPSF_EEPT_SJ_DpOT0_
FNA:0,103991,_ZNSt3__112construct_atB8ne200100IN8nlohmann16json_abi_v3_11_310basic_jsonINS_3mapENS_6vectorENS_12basic_stringIcNS_11char_traitsIcEENS_9allocatorIcEEEEbxydS9_NS2_14adl_serializerENS5_IhNS9_IhEEEEvEEJSF_EPSF_EEPT_SI_DpOT0_
FNA:0,0,_ZNSt3__112construct_atB8ne200100IN8nlohmann16json_abi_v3_11_327byte_container_with_subtypeINS_6vectorIhNS_9allocatorIhEEEEEEJEPS8_EEPT_SB_DpOT0_
FNA:0,0,_ZNSt3__112construct_atB8ne200100IN8nlohmann16json_abi_v3_11_327byte_container_with_subtypeINS_6vectorIhNS_9allocatorIhEEEEEEJRKS8_EPS8_EEPT_SD_DpOT0_
FNA:0,0,_ZNSt3__112construct_atB8ne200100IN8nlohmann16json_abi_v3_11_36detail21output_string_adapterIcNS_12basic_stringIcNS_11char_traitsIcEENS_9allocatorIcEEEEEEJRSA_EPSB_EEPT_SF_DpOT0_
FNA:0,636,_ZNSt3__112construct_atB8ne200100INS_10shared_ptrIN4inja12FunctionNodeEEEJRS4_EPS4_EEPT_S8_DpOT0_
FNA:0,106,_ZNSt3__112construct_atB8ne200100INS_10shared_ptrIN4inja14ExpressionNodeEEEJNS1_INS2_11LiteralNodeEEEEPS4_EEPT_S9_DpOT0_
FNA:0,1908,_ZNSt3__112construct_atB8ne200100INS_10shared_ptrIN4inja14ExpressionNodeEEEJNS1_INS2_8DataNodeEEEEPS4_EEPT_S9_DpOT0_
FNA:0,848,_ZNSt3__112construct_atB8ne200100INS_10shared_ptrIN4inja14ExpressionNodeEEEJRKS4_EPS4_EEPT_S9_DpOT0_
FNA:0,742,_ZNSt3__112construct_atB8ne200100INS_10shared_ptrIN4inja14ExpressionNodeEEEJRNS1_INS2_12FunctionNodeEEEEPS4_EEPT_SA_DpOT0_
FNA:0,212,_ZNSt3__112construct_atB8ne200100INS_10shared_ptrIN4inja14ExpressionNodeEEEJRS4_EPS4_EEPT_S8_DpOT0_
FNA:0,0,_ZNSt3__112construct_atB8ne200100INS_10shared_ptrIN4inja14ExpressionNodeEEEJS4_EPS4_EEPT_S7_DpOT0_
FNA:0,0,_ZNSt3__112construct_atB8ne200100INS_10shared_ptrIN4inja7AstNodeEEEJNS1_INS2_20ExtendsStatementNodeEEEEPS4_EEPT_S9_DpOT0_
FNA:0,0,_ZNSt3__112construct_atB8ne200100INS_10shared_ptrIN4inja7AstNodeEEEJNS1_INS2_20IncludeStatementNodeEEEEPS4_EEPT_S9_DpOT0_
FNA:0,1908,_ZNSt3__112construct_atB8ne200100INS_10shared_ptrIN4inja7AstNodeEEEJNS1_INS2_8TextNodeEEEEPS4_EEPT_S9_DpOT0_
FNA:0,636,_ZNSt3__112construct_atB8ne200100INS_10shared_ptrIN4inja7AstNodeEEEJRNS1_INS2_15IfStatementNodeEEEEPS4_EEPT_SA_DpOT0_
FNA:0,212,_ZNSt3__112construct_atB8ne200100INS_10shared_ptrIN4inja7AstNodeEEEJRNS1_INS2_16ForStatementNodeEEEEPS4_EEPT_SA_DpOT0_
FNA:0,0,_ZNSt3__112construct_atB8ne200100INS_10shared_ptrIN4inja7AstNodeEEEJRNS1_INS2_16SetStatementNodeEEEEPS4_EEPT_SA_DpOT0_
FNA:0,0,_ZNSt3__112construct_atB8ne200100INS_10shared_ptrIN4inja7AstNodeEEEJRNS1_INS2_18BlockStatementNodeEEEEPS4_EEPT_SA_DpOT0_
FNA:0,848,_ZNSt3__112construct_atB8ne200100INS_10shared_ptrIN4inja7AstNodeEEEJRNS1_INS2_18ExpressionListNodeEEEEPS4_EEPT_SA_DpOT0_
FNA:0,0,_ZNSt3__112construct_atB8ne200100INS_10shared_ptrIN4inja7AstNodeEEEJRS4_EPS4_EEPT_S8_DpOT0_
FNA:0,3392,_ZNSt3__112construct_atB8ne200100INS_10shared_ptrIN8nlohmann16json_abi_v3_11_310basic_jsonINS_3mapENS_6vectorENS_12basic_stringIcNS_11char_traitsIcEENS_9allocatorIcEEEEbxydSA_NS3_14adl_serializerENS6_IhNSA_IhEEEEvEEEEJRKSH_EPSH_EEPT_SM_DpOT0_
FNA:0,285,_ZNSt3__112construct_atB8ne200100INS_10unique_ptrIN4dbal8adapters3sql13SqlConnectionENS_14default_deleteIS5_EEEEJS8_EPS8_EEPT_SB_DpOT0_
FNA:0,245,_ZNSt3__112construct_atB8ne200100INS_11__hash_nodeINS_12basic_stringIcNS_11char_traitsIcEENS_9allocatorIcEEEEPvEEJDnRmEPS9_EEPT_SD_DpOT0_
FNA:0,49,_ZNSt3__112construct_atB8ne200100INS_11__hash_nodeINS_17__hash_value_typeINS_12basic_stringIcNS_11char_traitsIcEENS_9allocatorIcEEEEN4dbal4core12EntitySchemaEEEPvEEJDnRmEPSE_EEPT_SI_DpOT0_
FNA:0,114,_ZNSt3__112construct_atB8ne200100INS_11__hash_nodeINS_17__hash_value_typeINS_12basic_stringIcNS_11char_traitsIcEENS_9allocatorIcEEEEN4dbal8adapters12EntitySchemaEEEPvEEJDnRmEPSE_EEPT_SI_DpOT0_
FNA:0,849,_ZNSt3__112construct_atB8ne200100INS_12basic_stringIcNS_11char_traitsIcEENS_9allocatorIcEEEEJRA10_KcEPS6_EEPT_SC_DpOT0_
FNA:0,15,_ZNSt3__112construct_atB8ne200100INS_12basic_stringIcNS_11char_traitsIcEENS_9allocatorIcEEEEJRA11_KcEPS6_EEPT_SC_DpOT0_
FNA:0,2,_ZNSt3__112construct_atB8ne200100INS_12basic_stringIcNS_11char_traitsIcEENS_9allocatorIcEEEEJRA12_KcEPS6_EEPT_SC_DpOT0_
FNA:0,9,_ZNSt3__112construct_atB8ne200100INS_12basic_stringIcNS_11char_traitsIcEENS_9allocatorIcEEEEJRA13_KcEPS6_EEPT_SC_DpOT0_
FNA:0,6,_ZNSt3__112construct_atB8ne200100INS_12basic_stringIcNS_11char_traitsIcEENS_9allocatorIcEEEEJRA14_KcEPS6_EEPT_SC_DpOT0_
FNA:0,1,_ZNSt3__112construct_atB8ne200100INS_12basic_stringIcNS_11char_traitsIcEENS_9allocatorIcEEEEJRA15_KcEPS6_EEPT_SC_DpOT0_
FNA:0,1,_ZNSt3__112construct_atB8ne200100INS_12basic_stringIcNS_11char_traitsIcEENS_9allocatorIcEEEEJRA16_KcEPS6_EEPT_SC_DpOT0_
FNA:0,64,_ZNSt3__112construct_atB8ne200100INS_12basic_stringIcNS_11char_traitsIcEENS_9allocatorIcEEEEJRA18_KcEPS6_EEPT_SC_DpOT0_
FNA:0,52,_ZNSt3__112construct_atB8ne200100INS_12basic_stringIcNS_11char_traitsIcEENS_9allocatorIcEEEEJRA19_KcEPS6_EEPT_SC_DpOT0_
FNA:0,0,_ZNSt3__112construct_atB8ne200100INS_12basic_stringIcNS_11char_traitsIcEENS_9allocatorIcEEEEJRA1_KcEPS6_EEPT_SC_DpOT0_
FNA:0,1,_ZNSt3__112construct_atB8ne200100INS_12basic_stringIcNS_11char_traitsIcEENS_9allocatorIcEEEEJRA21_KcEPS6_EEPT_SC_DpOT0_
FNA:0,98,_ZNSt3__112construct_atB8ne200100INS_12basic_stringIcNS_11char_traitsIcEENS_9allocatorIcEEEEJRA236_KcEPS6_EEPT_SC_DpOT0_
FNA:0,98,_ZNSt3__112construct_atB8ne200100INS_12basic_stringIcNS_11char_traitsIcEENS_9allocatorIcEEEEJRA24_KcEPS6_EEPT_SC_DpOT0_
FNA:0,0,_ZNSt3__112construct_atB8ne200100INS_12basic_stringIcNS_11char_traitsIcEENS_9allocatorIcEEEEJRA29_KcEPS6_EEPT_SC_DpOT0_
FNA:0,0,_ZNSt3__112construct_atB8ne200100INS_12basic_stringIcNS_11char_traitsIcEENS_9allocatorIcEEEEJRA2_KcEPS6_EEPT_SC_DpOT0_
FNA:0,62,_ZNSt3__112construct_atB8ne200100INS_12basic_stringIcNS_11char_traitsIcEENS_9allocatorIcEEEEJRA34_KcEPS6_EEPT_SC_DpOT0_
FNA:0,15,_ZNSt3__112construct_atB8ne200100INS_12basic_stringIcNS_11char_traitsIcEENS_9allocatorIcEEEEJRA37_KcEPS6_EEPT_SC_DpOT0_
FNA:0,16,_ZNSt3__112construct_atB8ne200100INS_12basic_stringIcNS_11char_traitsIcEENS_9allocatorIcEEEEJRA3_KcEPS6_EEPT_SC_DpOT0_
FNA:0,1,_ZNSt3__112construct_atB8ne200100INS_12basic_stringIcNS_11char_traitsIcEENS_9allocatorIcEEEEJRA4_KcEPS6_EEPT_SC_DpOT0_
FNA:0,1,_ZNSt3__112construct_atB8ne200100INS_12basic_stringIcNS_11char_traitsIcEENS_9allocatorIcEEEEJRA5_KcEPS6_EEPT_SC_DpOT0_
FNA:0,5,_ZNSt3__112construct_atB8ne200100INS_12basic_stringIcNS_11char_traitsIcEENS_9allocatorIcEEEEJRA6_KcEPS6_EEPT_SC_DpOT0_
FNA:0,12,_ZNSt3__112construct_atB8ne200100INS_12basic_stringIcNS_11char_traitsIcEENS_9allocatorIcEEEEJRA7_KcEPS6_EEPT_SC_DpOT0_
FNA:0,7,_ZNSt3__112construct_atB8ne200100INS_12basic_stringIcNS_11char_traitsIcEENS_9allocatorIcEEEEJRA8_KcEPS6_EEPT_SC_DpOT0_
FNA:0,56,_ZNSt3__112construct_atB8ne200100INS_12basic_stringIcNS_11char_traitsIcEENS_9allocatorIcEEEEJRA9_KcEPS6_EEPT_SC_DpOT0_
FNA:0,12120,_ZNSt3__112construct_atB8ne200100INS_12basic_stringIcNS_11char_traitsIcEENS_9allocatorIcEEEEJRKPKcEPS6_EEPT_SD_DpOT0_
FNA:0,36567,_ZNSt3__112construct_atB8ne200100INS_12basic_stringIcNS_11char_traitsIcEENS_9allocatorIcEEEEJRKS6_EPS6_EEPT_SB_DpOT0_
FNA:0,1856,_ZNSt3__112construct_atB8ne200100INS_12basic_stringIcNS_11char_traitsIcEENS_9allocatorIcEEEEJRS6_EPS6_EEPT_SA_DpOT0_
FNA:0,25023,_ZNSt3__112construct_atB8ne200100INS_12basic_stringIcNS_11char_traitsIcEENS_9allocatorIcEEEEJS6_EPS6_EEPT_S9_DpOT0_
FNA:0,6051,_ZNSt3__112construct_atB8ne200100INS_3mapINS_12basic_stringIcNS_11char_traitsIcEENS_9allocatorIcEEEEN8nlohmann16json_abi_v3_11_310basic_jsonIS1_NS_6vectorES7_bxydS5_NS9_14adl_serializerENSB_IhNS5_IhEEEEvEENS_4lessIvEENS5_INS_4pairIKS7_SF_EEEEEEJEPSM_EEPT_SP_DpOT0_
FNA:0,0,_ZNSt3__112construct_atB8ne200100INS_3mapINS_12basic_stringIcNS_11char_traitsIcEENS_9allocatorIcEEEEN8nlohmann16json_abi_v3_11_310basic_jsonIS1_NS_6vectorES7_bxydS5_NS9_14adl_serializerENSB_IhNS5_IhEEEEvEENS_4lessIvEENS5_INS_4pairIKS7_SF_EEEEEEJNS_20__map_const_iteratorINS_21__tree_const_iteratorINS_12__value_typeIS7_S7_EEPNS_11__tree_nodeISQ_PvEElEEEESW_EPSM_EEPT_SZ_DpOT0_
FNA:0,10050,_ZNSt3__112construct_atB8ne200100INS_3mapINS_12basic_stringIcNS_11char_traitsIcEENS_9allocatorIcEEEEN8nlohmann16json_abi_v3_11_310basic_jsonIS1_NS_6vectorES7_bxydS5_NS9_14adl_serializerENSB_IhNS5_IhEEEEvEENS_4lessIvEENS5_INS_4pairIKS7_SF_EEEEEEJRKSM_EPSM_EEPT_SR_DpOT0_
FNA:0,3286,_ZNSt3__112construct_atB8ne200100INS_4pairIKNS1_INS_12basic_stringIcNS_11char_traitsIcEENS_9allocatorIcEEEEiEEN4inja15FunctionStorage12FunctionDataEEEJRKSD_EPSD_EEPT_SI_DpOT0_
FNA:0,0,_ZNSt3__112construct_atB8ne200100INS_4pairIKNS_12basic_stringIcNS_11char_traitsIcEENS_9allocatorIcEEEEN4dbal4core10CacheEntryIN8nlohmann16json_abi_v3_11_310basic_jsonINS_3mapENS_6vectorES7_bxydS5_NSD_14adl_serializerENSG_IhNS5_IhEEEEvEEEEEEJRKNS_21piecewise_construct_tENS_5tupleIJRS8_EEENSQ_IJEEEEPSM_EEPT_SW_DpOT0_
FNA:0,49,_ZNSt3__112construct_atB8ne200100INS_4pairIKNS_12basic_stringIcNS_11char_traitsIcEENS_9allocatorIcEEEEN4dbal4core12EntitySchemaEEEJRKNS_21piecewise_construct_tENS_5tupleIJRS8_EEENSG_IJEEEEPSC_EEPT_SM_DpOT0_
FNA:0,0,_ZNSt3__112construct_atB8ne200100INS_4pairIKNS_12basic_stringIcNS_11char_traitsIcEENS_9allocatorIcEEEEN4dbal4core12EntitySchemaEEEJRKSC_EPSC_EEPT_SH_DpOT0_
FNA:0,114,_ZNSt3__112construct_atB8ne200100INS_4pairIKNS_12basic_stringIcNS_11char_traitsIcEENS_9allocatorIcEEEEN4dbal8adapters12EntitySchemaEEEJRKNS_21piecewise_construct_tENS_5tupleIJRS8_EEENSG_IJEEEEPSC_EEPT_SM_DpOT0_
FNA:0,0,_ZNSt3__112construct_atB8ne200100INS_4pairIKNS_12basic_stringIcNS_11char_traitsIcEENS_9allocatorIcEEEEN4inja8TemplateEEEJRKNS_21piecewise_construct_tENS_5tupleIJRS8_EEENSF_IJEEEEPSB_EEPT_SL_DpOT0_
FNA:0,0,_ZNSt3__112construct_atB8ne200100INS_4pairIKNS_12basic_stringIcNS_11char_traitsIcEENS_9allocatorIcEEEEN4inja8TemplateEEEJRS7_RSA_EPSB_EEPT_SG_DpOT0_
FNA:0,0,_ZNSt3__112construct_atB8ne200100INS_4pairIKNS_12basic_stringIcNS_11char_traitsIcEENS_9allocatorIcEEEEN8nlohmann16json_abi_v3_11_310basic_jsonINS_3mapENS_6vectorES7_bxydS5_NSA_14adl_serializerENSD_IhNS5_IhEEEEvEEEEJRKNS1_IS8_S7_EEEPSI_EEPT_SO_DpOT0_
FNA:0,4244,_ZNSt3__112construct_atB8ne200100INS_4pairIKNS_12basic_stringIcNS_11char_traitsIcEENS_9allocatorIcEEEEN8nlohmann16json_abi_v3_11_310basic_jsonINS_3mapENS_6vectorES7_bxydS5_NSA_14adl_serializerENSD_IhNS5_IhEEEEvEEEEJRKNS_21piecewise_construct_tENS_5tupleIJRS8_EEENSM_IJEEEEPSI_EEPT_SS_DpOT0_
FNA:0,49823,_ZNSt3__112construct_atB8ne200100INS_4pairIKNS_12basic_stringIcNS_11char_traitsIcEENS_9allocatorIcEEEEN8nlohmann16json_abi_v3_11_310basic_jsonINS_3mapENS_6vectorES7_bxydS5_NSA_14adl_serializerENSD_IhNS5_IhEEEEvEEEEJRKSI_EPSI_EEPT_SN_DpOT0_
FNA:0,26583,_ZNSt3__112construct_atB8ne200100INS_4pairIKNS_12basic_stringIcNS_11char_traitsIcEENS_9allocatorIcEEEEN8nlohmann16json_abi_v3_11_310basic_jsonINS_3mapENS_6vectorES7_bxydS5_NSA_14adl_serializerENSD_IhNS5_IhEEEEvEEEEJS7_DnEPSI_EEPT_SL_DpOT0_
FNA:0,10,_ZNSt3__112construct_atB8ne200100INS_4pairIKNS_12basic_stringIcNS_11char_traitsIcEENS_9allocatorIcEEEEN8nlohmann16json_abi_v3_11_310basic_jsonINS_3mapENS_6vectorES7_bxydS5_NSA_14adl_serializerENSD_IhNS5_IhEEEEvEEEEJS7_SH_EPSI_EEPT_SL_DpOT0_
FNA:0,0,_ZNSt3__112construct_atB8ne200100INS_4pairIKNS_12basic_stringIcNS_11char_traitsIcEENS_9allocatorIcEEEENS_10shared_ptrIN4inja18BlockStatementNodeEEEEEJRKSD_EPSD_EEPT_SI_DpOT0_
FNA:0,0,_ZNSt3__112construct_atB8ne200100INS_4pairIKNS_12basic_stringIcNS_11char_traitsIcEENS_9allocatorIcEEEENS_10shared_ptrIN4inja18BlockStatementNodeEEEEEJRS8_RSC_EPSD_EEPT_SI_DpOT0_
FNA:0,4739,_ZNSt3__112construct_atB8ne200100INS_4pairIKNS_12basic_stringIcNS_11char_traitsIcEENS_9allocatorIcEEEES7_EEJRKNS_21piecewise_construct_tENS_5tupleIJOS7_EEENSD_IJEEEEPS9_EEPT_SJ_DpOT0_
FNA:0,0,_ZNSt3__112construct_atB8ne200100INS_4pairIKNS_12basic_stringIcNS_11char_traitsIcEENS_9allocatorIcEEEES7_EEJRKNS_21piecewise_construct_tENS_5tupleIJRS8_EEENSD_IJEEEEPS9_EEPT_SJ_DpOT0_
FNA:0,0,_ZNSt3__112construct_atB8ne200100INS_4pairIKNS_12basic_stringIcNS_11char_traitsIcEENS_9allocatorIcEEEES7_EEJRKS9_EPS9_EEPT_SE_DpOT0_
FNA:0,0,_ZNSt3__112construct_atB8ne200100INS_4pairIKNS_12basic_stringIcNS_11char_traitsIcEENS_9allocatorIcEEEEbEEJRKNS_21piecewise_construct_tENS_5tupleIJRS8_EEENSD_IJEEEEPS9_EEPT_SJ_DpOT0_
FNA:0,0,_ZNSt3__112construct_atB8ne200100INS_4pairIKNS_12basic_stringIcNS_11char_traitsIcEENS_9allocatorIcEEEEbEEJRKS9_EPS9_EEPT_SE_DpOT0_
FNA:0,0,_ZNSt3__112construct_atB8ne200100INS_4pairINS_12basic_stringIcNS_11char_traitsIcEENS_9allocatorIcEEEES7_EEJRA3_KcRKS7_EPS8_EEPT_SG_DpOT0_
FNA:0,0,_ZNSt3__112construct_atB8ne200100INS_4pairINS_12basic_stringIcNS_11char_traitsIcEENS_9allocatorIcEEEES7_EEJRKS7_S7_EPS8_EEPT_SD_DpOT0_
FNA:0,0,_ZNSt3__112construct_atB8ne200100INS_4pairINS_12basic_stringIcNS_11char_traitsIcEENS_9allocatorIcEEEES7_EEJS8_EPS8_EEPT_SB_DpOT0_
FNA:0,0,_ZNSt3__112construct_atB8ne200100INS_4pairIccEEJS2_EPS2_EEPT_S5_DpOT0_
FNA:0,0,_ZNSt3__112construct_atB8ne200100INS_4pairImPKcEEJEPS4_EEPT_S7_DpOT0_
FNA:0,0,_ZNSt3__112construct_atB8ne200100INS_4pairImPKcEEJRS4_EPS4_EEPT_S8_DpOT0_
FNA:0,7,_ZNSt3__112construct_atB8ne200100INS_6threadEJS1_EPS1_EEPT_S4_DpOT0_
FNA:0,5,_ZNSt3__112construct_atB8ne200100INS_6threadEJZN55PostgresIntegrationTest_ConcurrentReads_NoDataRace_Test8TestBodyEvE3$_0EPS1_EEPT_S6_DpOT0_
FNA:0,326,_ZNSt3__112construct_atB8ne200100INS_6vectorIN8nlohmann16json_abi_v3_11_310basic_jsonINS_3mapES1_NS_12basic_stringIcNS_11char_traitsIcEENS_9allocatorIcEEEEbxydS9_NS3_14adl_serializerENS1_IhNS9_IhEEEEvEENS9_ISF_EEEEJEPSH_EEPT_SK_DpOT0_
FNA:0,212,_ZNSt3__112construct_atB8ne200100INS_6vectorIN8nlohmann16json_abi_v3_11_310basic_jsonINS_3mapES1_NS_12basic_stringIcNS_11char_traitsIcEENS_9allocatorIcEEEEbxydS9_NS3_14adl_serializerENS1_IhNS9_IhEEEEvEENS9_ISF_EEEEJNS_11__wrap_iterIPKSB_EESL_EPSH_EEPT_SO_DpOT0_
FNA:0,0,_ZNSt3__112construct_atB8ne200100INS_6vectorIN8nlohmann16json_abi_v3_11_310basic_jsonINS_3mapES1_NS_12basic_stringIcNS_11char_traitsIcEENS_9allocatorIcEEEEbxydS9_NS3_14adl_serializerENS1_IhNS9_IhEEEEvEENS9_ISF_EEEEJNS_11__wrap_iterIPKiEESL_EPSH_EEPT_SO_DpOT0_
FNA:0,597,_ZNSt3__112construct_atB8ne200100INS_6vectorIN8nlohmann16json_abi_v3_11_310basic_jsonINS_3mapES1_NS_12basic_stringIcNS_11char_traitsIcEENS_9allocatorIcEEEEbxydS9_NS3_14adl_serializerENS1_IhNS9_IhEEEEvEENS9_ISF_EEEEJPKNS3_6detail8json_refISF_EESM_EPSH_EEPT_SP_DpOT0_
FNA:0,2136,_ZNSt3__112construct_atB8ne200100INS_6vectorIN8nlohmann16json_abi_v3_11_310basic_jsonINS_3mapES1_NS_12basic_stringIcNS_11char_traitsIcEENS_9allocatorIcEEEEbxydS9_NS3_14adl_serializerENS1_IhNS9_IhEEEEvEENS9_ISF_EEEEJRKSH_EPSH_EEPT_SM_DpOT0_
FNA:0,0,_ZNSt3__112construct_atB8ne200100INS_6vectorIN8nlohmann16json_abi_v3_11_310basic_jsonINS_3mapES1_NS_12basic_stringIcNS_11char_traitsIcEENS_9allocatorIcEEEEbxydS9_NS3_14adl_serializerENS1_IhNS9_IhEEEEvEENS9_ISF_EEEEJSH_EPSH_EEPT_SK_DpOT0_
FNA:0,0,_ZNSt3__112construct_atB8ne200100INS_6vectorINS_12basic_stringIcNS_11char_traitsIcEENS_9allocatorIcEEEENS5_IS7_EEEEJRKS9_EPS9_EEPT_SE_DpOT0_
FNA:0,0,_ZNSt3__112construct_atB8ne200100INS_6vectorINS_12basic_stringIcNS_11char_traitsIcEENS_9allocatorIcEEEENS5_IS7_EEEEJS9_EPS9_EEPT_SC_DpOT0_
FNA:0,0,_ZNSt3__112construct_atB8ne200100INS_7__stateIcEEJS2_EPS2_EEPT_S5_DpOT0_
FNA:0,0,_ZNSt3__112construct_atB8ne200100INS_9sub_matchINS_11__wrap_iterIPKcEEEEJEPS6_EEPT_S9_DpOT0_
FNA:0,0,_ZNSt3__112construct_atB8ne200100INS_9sub_matchINS_11__wrap_iterIPKcEEEEJS6_EPS6_EEPT_S9_DpOT0_
FNA:0,0,_ZNSt3__112construct_atB8ne200100INS_9sub_matchIPKcEEJRKS4_EPS4_EEPT_S9_DpOT0_
FNA:0,0,_ZNSt3__112construct_atB8ne200100INS_9sub_matchIPKcEEJRS4_EPS4_EEPT_S8_DpOT0_
FNA:0,0,_ZNSt3__112construct_atB8ne200100INS_9sub_matchIPKcEEJS4_EPS4_EEPT_S7_DpOT0_
FNA:0,0,_ZNSt3__112construct_atB8ne200100IPKN4inja18BlockStatementNodeEJS4_EPS4_EEPT_S7_DpOT0_
FNA:0,0,_ZNSt3__112construct_atB8ne200100IPKN4inja8DataNodeEJS4_EPS4_EEPT_S7_DpOT0_
FNA:0,212,_ZNSt3__112construct_atB8ne200100IPKN4inja8TemplateEJRS4_EPS4_EEPT_S8_DpOT0_
FNA:0,0,_ZNSt3__112construct_atB8ne200100IPKN8nlohmann16json_abi_v3_11_310basic_jsonINS_3mapENS_6vectorENS_12basic_stringIcNS_11char_traitsIcEENS_9allocatorIcEEEEbxydS9_NS2_14adl_serializerENS5_IhNS9_IhEEEEvEEJEPSH_EEPT_SK_DpOT0_
FNA:0,0,_ZNSt3__112construct_atB8ne200100IPKN8nlohmann16json_abi_v3_11_310basic_jsonINS_3mapENS_6vectorENS_12basic_stringIcNS_11char_traitsIcEENS_9allocatorIcEEEEbxydS9_NS2_14adl_serializerENS5_IhNS9_IhEEEEvEEJRKSH_EPSH_EEPT_SM_DpOT0_
FNA:0,10812,_ZNSt3__112construct_atB8ne200100IPKN8nlohmann16json_abi_v3_11_310basic_jsonINS_3mapENS_6vectorENS_12basic_stringIcNS_11char_traitsIcEENS_9allocatorIcEEEEbxydS9_NS2_14adl_serializerENS5_IhNS9_IhEEEEvEEJSH_EPSH_EEPT_SK_DpOT0_
FNA:0,1660,_ZNSt3__112construct_atB8ne200100IPKcJS2_EPS2_EEPT_S5_DpOT0_
FNA:0,636,_ZNSt3__112construct_atB8ne200100IPN4inja15IfStatementNodeEJS3_EPS3_EEPT_S6_DpOT0_
FNA:0,212,_ZNSt3__112construct_atB8ne200100IPN4inja16ForStatementNodeEJS3_EPS3_EEPT_S6_DpOT0_
FNA:0,0,_ZNSt3__112construct_atB8ne200100IPN4inja18BlockStatementNodeEJS3_EPS3_EEPT_S6_DpOT0_
FNA:0,0,_ZNSt3__112construct_atB8ne200100IPN8nlohmann16json_abi_v3_11_310basic_jsonINS_3mapENS_6vectorENS_12basic_stringIcNS_11char_traitsIcEENS_9allocatorIcEEEEbxydS9_NS2_14adl_serializerENS5_IhNS9_IhEEEEvEEJRKSG_EPSG_EEPT_SL_DpOT0_
FNA:0,1958,_ZNSt3__112construct_atB8ne200100IPN8nlohmann16json_abi_v3_11_310basic_jsonINS_3mapENS_6vectorENS_12basic_stringIcNS_11char_traitsIcEENS_9allocatorIcEEEEbxydS9_NS2_14adl_serializerENS5_IhNS9_IhEEEEvEEJSG_EPSG_EEPT_SJ_DpOT0_
FNA:0,0,_ZNSt3__112construct_atB8ne200100IPNS_10shared_ptrIN4inja12FunctionNodeEEEJRS5_EPS5_EEPT_S9_DpOT0_
FNA:0,424,_ZNSt3__112construct_atB8ne200100IPNS_10shared_ptrIN4inja12FunctionNodeEEEJS5_EPS5_EEPT_S8_DpOT0_
FNA:0,0,_ZNSt3__112construct_atB8ne200100IPNS_10unique_ptrIN4dbal8adapters3sql13SqlConnectionENS_14default_deleteIS5_EEEEJRS9_EPS9_EEPT_SD_DpOT0_
FNA:0,0,_ZNSt3__112construct_atB8ne200100IPNS_10unique_ptrIN4dbal8adapters3sql13SqlConnectionENS_14default_deleteIS5_EEEEJS9_EPS9_EEPT_SC_DpOT0_
FNA:0,0,_ZNSt3__112construct_atB8ne200100IPNS_7__stateIcEEJRS3_EPS3_EEPT_S7_DpOT0_
FNA:0,0,_ZNSt3__112construct_atB8ne200100IPNS_7__stateIcEEJS3_EPS3_EEPT_S6_DpOT0_
FNA:0,0,_ZNSt3__112construct_atB8ne200100IPPKN4inja8DataNodeEJRS5_EPS5_EEPT_S9_DpOT0_
FNA:0,0,_ZNSt3__112construct_atB8ne200100IPPKN4inja8DataNodeEJS5_EPS5_EEPT_S8_DpOT0_
FNA:0,0,_ZNSt3__112construct_atB8ne200100IPPKN8nlohmann16json_abi_v3_11_310basic_jsonINS_3mapENS_6vectorENS_12basic_stringIcNS_11char_traitsIcEENS_9allocatorIcEEEEbxydS9_NS2_14adl_serializerENS5_IhNS9_IhEEEEvEEJRSI_EPSI_EEPT_SM_DpOT0_
FNA:0,212,_ZNSt3__112construct_atB8ne200100IPPKN8nlohmann16json_abi_v3_11_310basic_jsonINS_3mapENS_6vectorENS_12basic_stringIcNS_11char_traitsIcEENS_9allocatorIcEEEEbxydS9_NS2_14adl_serializerENS5_IhNS9_IhEEEEvEEJSI_EPSI_EEPT_SL_DpOT0_
FNA:0,0,_ZNSt3__112construct_atB8ne200100IPPN4inja15IfStatementNodeEJRS4_EPS4_EEPT_S8_DpOT0_
FNA:0,212,_ZNSt3__112construct_atB8ne200100IPPN4inja15IfStatementNodeEJS4_EPS4_EEPT_S7_DpOT0_
FNA:0,0,_ZNSt3__112construct_atB8ne200100IPPN4inja16ForStatementNodeEJRS4_EPS4_EEPT_S8_DpOT0_
FNA:0,212,_ZNSt3__112construct_atB8ne200100IPPN4inja16ForStatementNodeEJS4_EPS4_EEPT_S7_DpOT0_
FNA:0,0,_ZNSt3__112construct_atB8ne200100IPPN4inja18BlockStatementNodeEJRS4_EPS4_EEPT_S8_DpOT0_
FNA:0,0,_ZNSt3__112construct_atB8ne200100IPPN4inja18BlockStatementNodeEJS4_EPS4_EEPT_S7_DpOT0_
FNA:0,0,_ZNSt3__112construct_atB8ne200100IcJRKcEPcEEPT_S5_DpOT0_
FNA:0,90253,_ZNSt3__112construct_atB8ne200100IcJcEPcEEPT_S3_DpOT0_
FNA:0,0,_ZNSt3__112construct_atB8ne200100IiJEPiEEPT_S3_DpOT0_
FNL:1,46,48
FNA:1,4,_ZNSt3__114__construct_atB8ne200100IN4dbal11FilterGroupEJRKS2_EPS2_EEPT_S7_DpOT0_
FNA:1,0,_ZNSt3__114__construct_atB8ne200100IN4dbal11FilterGroupEJS2_EPS2_EEPT_S5_DpOT0_
FNA:1,4,_ZNSt3__114__construct_atB8ne200100IN4dbal13AggregateSpecEJS2_EPS2_EEPT_S5_DpOT0_
FNA:1,6,_ZNSt3__114__construct_atB8ne200100IN4dbal15FilterConditionEJRKS2_EPS2_EEPT_S7_DpOT0_
FNA:1,8,_ZNSt3__114__construct_atB8ne200100IN4dbal15FilterConditionEJRS2_EPS2_EEPT_S6_DpOT0_
FNA:1,40,_ZNSt3__114__construct_atB8ne200100IN4dbal15FilterConditionEJS2_EPS2_EEPT_S5_DpOT0_
FNA:1,343,_ZNSt3__114__construct_atB8ne200100IN4dbal4core11EntityFieldEJRKS3_EPS3_EEPT_S8_DpOT0_
FNA:1,3458,_ZNSt3__114__construct_atB8ne200100IN4dbal4core11EntityFieldEJRS3_EPS3_EEPT_S7_DpOT0_
FNA:1,343,_ZNSt3__114__construct_atB8ne200100IN4dbal4core11EntityFieldEJS3_EPS3_EEPT_S6_DpOT0_
FNA:1,49,_ZNSt3__114__construct_atB8ne200100IN4dbal4core11EntityIndexEJRKS3_EPS3_EEPT_S8_DpOT0_
FNA:1,494,_ZNSt3__114__construct_atB8ne200100IN4dbal4core11EntityIndexEJRS3_EPS3_EEPT_S7_DpOT0_
FNA:1,0,_ZNSt3__114__construct_atB8ne200100IN4dbal4core11EntityIndexEJS3_EPS3_EEPT_S6_DpOT0_
FNA:1,0,_ZNSt3__114__construct_atB8ne200100IN4dbal4core11RelationDefEJRS3_EPS3_EEPT_S7_DpOT0_
FNA:1,0,_ZNSt3__114__construct_atB8ne200100IN4dbal4core12EntitySchema3ACLEJRKS4_EPS4_EEPT_S9_DpOT0_
FNA:1,0,_ZNSt3__114__construct_atB8ne200100IN4dbal4core12EntitySchema3ACLEJS4_EPS4_EEPT_S7_DpOT0_
FNA:1,0,_ZNSt3__114__construct_atB8ne200100IN4dbal4core23CompensatingTransaction6UndoOpEJS4_EPS4_EEPT_S7_DpOT0_
FNA:1,406,_ZNSt3__114__construct_atB8ne200100IN4dbal8adapters11EntityFieldEJRKS3_EPS3_EEPT_S8_DpOT0_
FNA:1,4886,_ZNSt3__114__construct_atB8ne200100IN4dbal8adapters11EntityFieldEJRS3_EPS3_EEPT_S7_DpOT0_
FNA:1,406,_ZNSt3__114__construct_atB8ne200100IN4dbal8adapters11EntityFieldEJS3_EPS3_EEPT_S6_DpOT0_
FNA:1,0,_ZNSt3__114__construct_atB8ne200100IN4dbal8adapters11RelationDefEJRKS3_EPS3_EEPT_S8_DpOT0_
FNA:1,0,_ZNSt3__114__construct_atB8ne200100IN4dbal8adapters11RelationDefEJRS3_EPS3_EEPT_S7_DpOT0_
FNA:1,0,_ZNSt3__114__construct_atB8ne200100IN4dbal8adapters11RelationDefEJS3_EPS3_EEPT_S6_DpOT0_
FNA:1,1141,_ZNSt3__114__construct_atB8ne200100IN4dbal8adapters15FieldDefinitionEJRKS3_EPS3_EEPT_S8_DpOT0_
FNA:1,1141,_ZNSt3__114__construct_atB8ne200100IN4dbal8adapters15FieldDefinitionEJRS3_EPS3_EEPT_S7_DpOT0_
FNA:1,1141,_ZNSt3__114__construct_atB8ne200100IN4dbal8adapters15FieldDefinitionEJS3_EPS3_EEPT_S6_DpOT0_
FNA:1,163,_ZNSt3__114__construct_atB8ne200100IN4dbal8adapters15IndexDefinitionEJRKS3_EPS3_EEPT_S8_DpOT0_
FNA:1,163,_ZNSt3__114__construct_atB8ne200100IN4dbal8adapters15IndexDefinitionEJRS3_EPS3_EEPT_S7_DpOT0_
FNA:1,0,_ZNSt3__114__construct_atB8ne200100IN4dbal8adapters15IndexDefinitionEJS3_EPS3_EEPT_S6_DpOT0_
FNA:1,163,_ZNSt3__114__construct_atB8ne200100IN4dbal8adapters16EntityDefinitionEJRKS3_EPS3_EEPT_S8_DpOT0_
FNA:1,0,_ZNSt3__114__construct_atB8ne200100IN4dbal8adapters16EntityDefinitionEJS3_EPS3_EEPT_S6_DpOT0_
FNA:1,0,_ZNSt3__114__construct_atB8ne200100IN4dbal8adapters18RelationDefinitionEJRKS3_EPS3_EEPT_S8_DpOT0_
FNA:1,0,_ZNSt3__114__construct_atB8ne200100IN4dbal8adapters18RelationDefinitionEJRS3_EPS3_EEPT_S7_DpOT0_
FNA:1,0,_ZNSt3__114__construct_atB8ne200100IN4dbal8adapters18RelationDefinitionEJS3_EPS3_EEPT_S6_DpOT0_
FNA:1,1283,_ZNSt3__114__construct_atB8ne200100IN4dbal8adapters3sql6SqlRowEJS4_EPS4_EEPT_S7_DpOT0_
FNA:1,65,_ZNSt3__114__construct_atB8ne200100IN4dbal8adapters3sql8SqlParamEJRKS4_EPS4_EEPT_S9_DpOT0_
FNA:1,56,_ZNSt3__114__construct_atB8ne200100IN4dbal8adapters3sql8SqlParamEJRS4_EPS4_EEPT_S8_DpOT0_
FNA:1,6591,_ZNSt3__114__construct_atB8ne200100IN4dbal8adapters3sql8SqlParamEJS4_EPS4_EEPT_S7_DpOT0_
FNA:1,106,_ZNSt3__114__construct_atB8ne200100IN4inja11LiteralNodeEJRKNS_17basic_string_viewIcNS_11char_traitsIcEEEElEPS2_EEPT_SB_DpOT0_
FNA:1,636,_ZNSt3__114__construct_atB8ne200100IN4inja12FunctionNodeEJRNS1_15FunctionStorage9OperationElEPS2_EEPT_S8_DpOT0_
FNA:1,106,_ZNSt3__114__construct_atB8ne200100IN4inja12FunctionNodeEJRNS_17basic_string_viewIcNS_11char_traitsIcEEEElEPS2_EEPT_SA_DpOT0_
FNA:1,636,_ZNSt3__114__construct_atB8ne200100IN4inja15IfStatementNodeEJRPNS1_9BlockNodeElEPS2_EEPT_S8_DpOT0_
FNA:1,0,_ZNSt3__114__construct_atB8ne200100IN4inja15IfStatementNodeEJbRPNS1_9BlockNodeElEPS2_EEPT_S8_DpOT0_
FNA:1,0,_ZNSt3__114__construct_atB8ne200100IN4inja16SetStatementNodeEJRKNS_12basic_stringIcNS_11char_traitsIcEENS_9allocatorIcEEEElEPS2_EEPT_SD_DpOT0_
FNA:1,0,_ZNSt3__114__construct_atB8ne200100IN4inja18BlockStatementNodeEJRPNS1_9BlockNodeERKNS_12basic_stringIcNS_11char_traitsIcEENS_9allocatorIcEEEElEPS2_EEPT_SG_DpOT0_
FNA:1,848,_ZNSt3__114__construct_atB8ne200100IN4inja18ExpressionListNodeEJlEPS2_EEPT_S5_DpOT0_
FNA:1,0,_ZNSt3__114__construct_atB8ne200100IN4inja20ExtendsStatementNodeEJRNS_12basic_stringIcNS_11char_traitsIcEENS_9allocatorIcEEEElEPS2_EEPT_SC_DpOT0_
FNA:1,0,_ZNSt3__114__construct_atB8ne200100IN4inja20IncludeStatementNodeEJRNS_12basic_stringIcNS_11char_traitsIcEENS_9allocatorIcEEEElEPS2_EEPT_SC_DpOT0_
FNA:1,212,_ZNSt3__114__construct_atB8ne200100IN4inja21ForArrayStatementNodeEJNS_12basic_stringIcNS_11char_traitsIcEENS_9allocatorIcEEEERPNS1_9BlockNodeElEPS2_EEPT_SE_DpOT0_
FNA:1,0,_ZNSt3__114__construct_atB8ne200100IN4inja22ForObjectStatementNodeEJNS_12basic_stringIcNS_11char_traitsIcEENS_9allocatorIcEEEES8_RPNS1_9BlockNodeElEPS2_EEPT_SE_DpOT0_
FNA:1,1908,_ZNSt3__114__construct_atB8ne200100IN4inja8DataNodeEJNS_12basic_stringIcNS_11char_traitsIcEENS_9allocatorIcEEEElEPS2_EEPT_SB_DpOT0_
FNA:1,1908,_ZNSt3__114__construct_atB8ne200100IN4inja8TextNodeEJlmEPS2_EEPT_S5_DpOT0_
FNA:1,0,_ZNSt3__114__construct_atB8ne200100IN8nlohmann16json_abi_v3_11_310basic_jsonINS_3mapENS_6vectorENS_12basic_stringIcNS_11char_traitsIcEENS_9allocatorIcEEEEbxydS9_NS2_14adl_serializerENS5_IhNS9_IhEEEEvEEJDnEPSF_EEPT_SI_DpOT0_
FNA:1,0,_ZNSt3__114__construct_atB8ne200100IN8nlohmann16json_abi_v3_11_310basic_jsonINS_3mapENS_6vectorENS_12basic_stringIcNS_11char_traitsIcEENS_9allocatorIcEEEEbxydS9_NS2_14adl_serializerENS5_IhNS9_IhEEEEvEEJEPSF_EEPT_SI_DpOT0_
FNA:1,163,_ZNSt3__114__construct_atB8ne200100IN8nlohmann16json_abi_v3_11_310basic_jsonINS_3mapENS_6vectorENS_12basic_stringIcNS_11char_traitsIcEENS_9allocatorIcEEEEbxydS9_NS2_14adl_serializerENS5_IhNS9_IhEEEEvEEJNS2_6detail7value_tEEPSF_EEPT_SK_DpOT0_
FNA:1,0,_ZNSt3__114__construct_atB8ne200100IN8nlohmann16json_abi_v3_11_310basic_jsonINS_3mapENS_6vectorENS_12basic_stringIcNS_11char_traitsIcEENS_9allocatorIcEEEEbxydS9_NS2_14adl_serializerENS5_IhNS9_IhEEEEvEEJNS5_ISF_NS9_ISF_EEEEEPSF_EEPT_SK_DpOT0_
FNA:1,183,_ZNSt3__114__construct_atB8ne200100IN8nlohmann16json_abi_v3_11_310basic_jsonINS_3mapENS_6vectorENS_12basic_stringIcNS_11char_traitsIcEENS_9allocatorIcEEEEbxydS9_NS2_14adl_serializerENS5_IhNS9_IhEEEEvEEJRKNS2_6detail8json_refISF_EEEPSF_EEPT_SN_DpOT0_
FNA:1,424,_ZNSt3__114__construct_atB8ne200100IN8nlohmann16json_abi_v3_11_310basic_jsonINS_3mapENS_6vectorENS_12basic_stringIcNS_11char_traitsIcEENS_9allocatorIcEEEEbxydS9_NS2_14adl_serializerENS5_IhNS9_IhEEEEvEEJRKSB_EPSF_EEPT_SK_DpOT0_
FNA:1,11566,_ZNSt3__114__construct_atB8ne200100IN8nlohmann16json_abi_v3_11_310basic_jsonINS_3mapENS_6vectorENS_12basic_stringIcNS_11char_traitsIcEENS_9allocatorIcEEEEbxydS9_NS2_14adl_serializerENS5_IhNS9_IhEEEEvEEJRKSF_EPSF_EEPT_SK_DpOT0_
FNA:1,0,_ZNSt3__114__construct_atB8ne200100IN8nlohmann16json_abi_v3_11_310basic_jsonINS_3mapENS_6vectorENS_12basic_stringIcNS_11char_traitsIcEENS_9allocatorIcEEEEbxydS9_NS2_14adl_serializerENS5_IhNS9_IhEEEEvEEJRKiEPSF_EEPT_SK_DpOT0_
FNA:1,326,_ZNSt3__114__construct_atB8ne200100IN8nlohmann16json_abi_v3_11_310basic_jsonINS_3mapENS_6vectorENS_12basic_stringIcNS_11char_traitsIcEENS_9allocatorIcEEEEbxydS9_NS2_14adl_serializerENS5_IhNS9_IhEEEEvEEJRSB_EPSF_EEPT_SJ_DpOT0_
FNA:1,6292,_ZNSt3__114__construct_atB8ne200100IN8nlohmann16json_abi_v3_11_310basic_jsonINS_3mapENS_6vectorENS_12basic_stringIcNS_11char_traitsIcEENS_9allocatorIcEEEEbxydS9_NS2_14adl_serializerENS5_IhNS9_IhEEEEvEEJRSF_EPSF_EEPT_SJ_DpOT0_
FNA:1,0,_ZNSt3__114__construct_atB8ne200100IN8nlohmann16json_abi_v3_11_310basic_jsonINS_3mapENS_6vectorENS_12basic_stringIcNS_11char_traitsIcEENS_9allocatorIcEEEEbxydS9_NS2_14adl_serializerENS5_IhNS9_IhEEEEvEEJRbEPSF_EEPT_SJ_DpOT0_
FNA:1,0,_ZNSt3__114__construct_atB8ne200100IN8nlohmann16json_abi_v3_11_310basic_jsonINS_3mapENS_6vectorENS_12basic_stringIcNS_11char_traitsIcEENS_9allocatorIcEEEEbxydS9_NS2_14adl_serializerENS5_IhNS9_IhEEEEvEEJRdEPSF_EEPT_SJ_DpOT0_
FNA:1,0,_ZNSt3__114__construct_atB8ne200100IN8nlohmann16json_abi_v3_11_310basic_jsonINS_3mapENS_6vectorENS_12basic_stringIcNS_11char_traitsIcEENS_9allocatorIcEEEEbxydS9_NS2_14adl_serializerENS5_IhNS9_IhEEEEvEEJRxEPSF_EEPT_SJ_DpOT0_
FNA:1,0,_ZNSt3__114__construct_atB8ne200100IN8nlohmann16json_abi_v3_11_310basic_jsonINS_3mapENS_6vectorENS_12basic_stringIcNS_11char_traitsIcEENS_9allocatorIcEEEEbxydS9_NS2_14adl_serializerENS5_IhNS9_IhEEEEvEEJRyEPSF_EEPT_SJ_DpOT0_
FNA:1,103991,_ZNSt3__114__construct_atB8ne200100IN8nlohmann16json_abi_v3_11_310basic_jsonINS_3mapENS_6vectorENS_12basic_stringIcNS_11char_traitsIcEENS_9allocatorIcEEEEbxydS9_NS2_14adl_serializerENS5_IhNS9_IhEEEEvEEJSF_EPSF_EEPT_SI_DpOT0_
FNA:1,0,_ZNSt3__114__construct_atB8ne200100IN8nlohmann16json_abi_v3_11_327byte_container_with_subtypeINS_6vectorIhNS_9allocatorIhEEEEEEJEPS8_EEPT_SB_DpOT0_
FNA:1,0,_ZNSt3__114__construct_atB8ne200100IN8nlohmann16json_abi_v3_11_327byte_container_with_subtypeINS_6vectorIhNS_9allocatorIhEEEEEEJRKS8_EPS8_EEPT_SD_DpOT0_
FNA:1,0,_ZNSt3__114__construct_atB8ne200100IN8nlohmann16json_abi_v3_11_36detail21output_string_adapterIcNS_12basic_stringIcNS_11char_traitsIcEENS_9allocatorIcEEEEEEJRSA_EPSB_EEPT_SF_DpOT0_
FNA:1,636,_ZNSt3__114__construct_atB8ne200100INS_10shared_ptrIN4inja12FunctionNodeEEEJRS4_EPS4_EEPT_S8_DpOT0_
FNA:1,106,_ZNSt3__114__construct_atB8ne200100INS_10shared_ptrIN4inja14ExpressionNodeEEEJNS1_INS2_11LiteralNodeEEEEPS4_EEPT_S9_DpOT0_
FNA:1,1908,_ZNSt3__114__construct_atB8ne200100INS_10shared_ptrIN4inja14ExpressionNodeEEEJNS1_INS2_8DataNodeEEEEPS4_EEPT_S9_DpOT0_
FNA:1,848,_ZNSt3__114__construct_atB8ne200100INS_10shared_ptrIN4inja14ExpressionNodeEEEJRKS4_EPS4_EEPT_S9_DpOT0_
FNA:1,742,_ZNSt3__114__construct_atB8ne200100INS_10shared_ptrIN4inja14ExpressionNodeEEEJRNS1_INS2_12FunctionNodeEEEEPS4_EEPT_SA_DpOT0_
FNA:1,212,_ZNSt3__114__construct_atB8ne200100INS_10shared_ptrIN4inja14ExpressionNodeEEEJRS4_EPS4_EEPT_S8_DpOT0_
FNA:1,0,_ZNSt3__114__construct_atB8ne200100INS_10shared_ptrIN4inja14ExpressionNodeEEEJS4_EPS4_EEPT_S7_DpOT0_
FNA:1,0,_ZNSt3__114__construct_atB8ne200100INS_10shared_ptrIN4inja7AstNodeEEEJNS1_INS2_20ExtendsStatementNodeEEEEPS4_EEPT_S9_DpOT0_
FNA:1,0,_ZNSt3__114__construct_atB8ne200100INS_10shared_ptrIN4inja7AstNodeEEEJNS1_INS2_20IncludeStatementNodeEEEEPS4_EEPT_S9_DpOT0_
FNA:1,1908,_ZNSt3__114__construct_atB8ne200100INS_10shared_ptrIN4inja7AstNodeEEEJNS1_INS2_8TextNodeEEEEPS4_EEPT_S9_DpOT0_
FNA:1,636,_ZNSt3__114__construct_atB8ne200100INS_10shared_ptrIN4inja7AstNodeEEEJRNS1_INS2_15IfStatementNodeEEEEPS4_EEPT_SA_DpOT0_
FNA:1,212,_ZNSt3__114__construct_atB8ne200100INS_10shared_ptrIN4inja7AstNodeEEEJRNS1_INS2_16ForStatementNodeEEEEPS4_EEPT_SA_DpOT0_
FNA:1,0,_ZNSt3__114__construct_atB8ne200100INS_10shared_ptrIN4inja7AstNodeEEEJRNS1_INS2_16SetStatementNodeEEEEPS4_EEPT_SA_DpOT0_
FNA:1,0,_ZNSt3__114__construct_atB8ne200100INS_10shared_ptrIN4inja7AstNodeEEEJRNS1_INS2_18BlockStatementNodeEEEEPS4_EEPT_SA_DpOT0_
FNA:1,848,_ZNSt3__114__construct_atB8ne200100INS_10shared_ptrIN4inja7AstNodeEEEJRNS1_INS2_18ExpressionListNodeEEEEPS4_EEPT_SA_DpOT0_
FNA:1,0,_ZNSt3__114__construct_atB8ne200100INS_10shared_ptrIN4inja7AstNodeEEEJRS4_EPS4_EEPT_S8_DpOT0_
FNA:1,3392,_ZNSt3__114__construct_atB8ne200100INS_10shared_ptrIN8nlohmann16json_abi_v3_11_310basic_jsonINS_3mapENS_6vectorENS_12basic_stringIcNS_11char_traitsIcEENS_9allocatorIcEEEEbxydSA_NS3_14adl_serializerENS6_IhNSA_IhEEEEvEEEEJRKSH_EPSH_EEPT_SM_DpOT0_
FNA:1,285,_ZNSt3__114__construct_atB8ne200100INS_10unique_ptrIN4dbal8adapters3sql13SqlConnectionENS_14default_deleteIS5_EEEEJS8_EPS8_EEPT_SB_DpOT0_
FNA:1,245,_ZNSt3__114__construct_atB8ne200100INS_11__hash_nodeINS_12basic_stringIcNS_11char_traitsIcEENS_9allocatorIcEEEEPvEEJDnRmEPS9_EEPT_SD_DpOT0_
FNA:1,49,_ZNSt3__114__construct_atB8ne200100INS_11__hash_nodeINS_17__hash_value_typeINS_12basic_stringIcNS_11char_traitsIcEENS_9allocatorIcEEEEN4dbal4core12EntitySchemaEEEPvEEJDnRmEPSE_EEPT_SI_DpOT0_
FNA:1,114,_ZNSt3__114__construct_atB8ne200100INS_11__hash_nodeINS_17__hash_value_typeINS_12basic_stringIcNS_11char_traitsIcEENS_9allocatorIcEEEEN4dbal8adapters12EntitySchemaEEEPvEEJDnRmEPSE_EEPT_SI_DpOT0_
FNA:1,849,_ZNSt3__114__construct_atB8ne200100INS_12basic_stringIcNS_11char_traitsIcEENS_9allocatorIcEEEEJRA10_KcEPS6_EEPT_SC_DpOT0_
FNA:1,15,_ZNSt3__114__construct_atB8ne200100INS_12basic_stringIcNS_11char_traitsIcEENS_9allocatorIcEEEEJRA11_KcEPS6_EEPT_SC_DpOT0_
FNA:1,2,_ZNSt3__114__construct_atB8ne200100INS_12basic_stringIcNS_11char_traitsIcEENS_9allocatorIcEEEEJRA12_KcEPS6_EEPT_SC_DpOT0_
FNA:1,9,_ZNSt3__114__construct_atB8ne200100INS_12basic_stringIcNS_11char_traitsIcEENS_9allocatorIcEEEEJRA13_KcEPS6_EEPT_SC_DpOT0_
FNA:1,6,_ZNSt3__114__construct_atB8ne200100INS_12basic_stringIcNS_11char_traitsIcEENS_9allocatorIcEEEEJRA14_KcEPS6_EEPT_SC_DpOT0_
FNA:1,1,_ZNSt3__114__construct_atB8ne200100INS_12basic_stringIcNS_11char_traitsIcEENS_9allocatorIcEEEEJRA15_KcEPS6_EEPT_SC_DpOT0_
FNA:1,1,_ZNSt3__114__construct_atB8ne200100INS_12basic_stringIcNS_11char_traitsIcEENS_9allocatorIcEEEEJRA16_KcEPS6_EEPT_SC_DpOT0_
FNA:1,64,_ZNSt3__114__construct_atB8ne200100INS_12basic_stringIcNS_11char_traitsIcEENS_9allocatorIcEEEEJRA18_KcEPS6_EEPT_SC_DpOT0_
FNA:1,52,_ZNSt3__114__construct_atB8ne200100INS_12basic_stringIcNS_11char_traitsIcEENS_9allocatorIcEEEEJRA19_KcEPS6_EEPT_SC_DpOT0_
FNA:1,0,_ZNSt3__114__construct_atB8ne200100INS_12basic_stringIcNS_11char_traitsIcEENS_9allocatorIcEEEEJRA1_KcEPS6_EEPT_SC_DpOT0_
FNA:1,1,_ZNSt3__114__construct_atB8ne200100INS_12basic_stringIcNS_11char_traitsIcEENS_9allocatorIcEEEEJRA21_KcEPS6_EEPT_SC_DpOT0_
FNA:1,98,_ZNSt3__114__construct_atB8ne200100INS_12basic_stringIcNS_11char_traitsIcEENS_9allocatorIcEEEEJRA236_KcEPS6_EEPT_SC_DpOT0_
FNA:1,98,_ZNSt3__114__construct_atB8ne200100INS_12basic_stringIcNS_11char_traitsIcEENS_9allocatorIcEEEEJRA24_KcEPS6_EEPT_SC_DpOT0_
FNA:1,0,_ZNSt3__114__construct_atB8ne200100INS_12basic_stringIcNS_11char_traitsIcEENS_9allocatorIcEEEEJRA29_KcEPS6_EEPT_SC_DpOT0_
FNA:1,0,_ZNSt3__114__construct_atB8ne200100INS_12basic_stringIcNS_11char_traitsIcEENS_9allocatorIcEEEEJRA2_KcEPS6_EEPT_SC_DpOT0_
FNA:1,62,_ZNSt3__114__construct_atB8ne200100INS_12basic_stringIcNS_11char_traitsIcEENS_9allocatorIcEEEEJRA34_KcEPS6_EEPT_SC_DpOT0_
FNA:1,15,_ZNSt3__114__construct_atB8ne200100INS_12basic_stringIcNS_11char_traitsIcEENS_9allocatorIcEEEEJRA37_KcEPS6_EEPT_SC_DpOT0_
FNA:1,16,_ZNSt3__114__construct_atB8ne200100INS_12basic_stringIcNS_11char_traitsIcEENS_9allocatorIcEEEEJRA3_KcEPS6_EEPT_SC_DpOT0_
FNA:1,1,_ZNSt3__114__construct_atB8ne200100INS_12basic_stringIcNS_11char_traitsIcEENS_9allocatorIcEEEEJRA4_KcEPS6_EEPT_SC_DpOT0_
FNA:1,1,_ZNSt3__114__construct_atB8ne200100INS_12basic_stringIcNS_11char_traitsIcEENS_9allocatorIcEEEEJRA5_KcEPS6_EEPT_SC_DpOT0_
FNA:1,5,_ZNSt3__114__construct_atB8ne200100INS_12basic_stringIcNS_11char_traitsIcEENS_9allocatorIcEEEEJRA6_KcEPS6_EEPT_SC_DpOT0_
FNA:1,12,_ZNSt3__114__construct_atB8ne200100INS_12basic_stringIcNS_11char_traitsIcEENS_9allocatorIcEEEEJRA7_KcEPS6_EEPT_SC_DpOT0_
FNA:1,7,_ZNSt3__114__construct_atB8ne200100INS_12basic_stringIcNS_11char_traitsIcEENS_9allocatorIcEEEEJRA8_KcEPS6_EEPT_SC_DpOT0_
FNA:1,56,_ZNSt3__114__construct_atB8ne200100INS_12basic_stringIcNS_11char_traitsIcEENS_9allocatorIcEEEEJRA9_KcEPS6_EEPT_SC_DpOT0_
FNA:1,12120,_ZNSt3__114__construct_atB8ne200100INS_12basic_stringIcNS_11char_traitsIcEENS_9allocatorIcEEEEJRKPKcEPS6_EEPT_SD_DpOT0_
FNA:1,36567,_ZNSt3__114__construct_atB8ne200100INS_12basic_stringIcNS_11char_traitsIcEENS_9allocatorIcEEEEJRKS6_EPS6_EEPT_SB_DpOT0_
FNA:1,1856,_ZNSt3__114__construct_atB8ne200100INS_12basic_stringIcNS_11char_traitsIcEENS_9allocatorIcEEEEJRS6_EPS6_EEPT_SA_DpOT0_
FNA:1,25023,_ZNSt3__114__construct_atB8ne200100INS_12basic_stringIcNS_11char_traitsIcEENS_9allocatorIcEEEEJS6_EPS6_EEPT_S9_DpOT0_
FNA:1,6051,_ZNSt3__114__construct_atB8ne200100INS_3mapINS_12basic_stringIcNS_11char_traitsIcEENS_9allocatorIcEEEEN8nlohmann16json_abi_v3_11_310basic_jsonIS1_NS_6vectorES7_bxydS5_NS9_14adl_serializerENSB_IhNS5_IhEEEEvEENS_4lessIvEENS5_INS_4pairIKS7_SF_EEEEEEJEPSM_EEPT_SP_DpOT0_
FNA:1,0,_ZNSt3__114__construct_atB8ne200100INS_3mapINS_12basic_stringIcNS_11char_traitsIcEENS_9allocatorIcEEEEN8nlohmann16json_abi_v3_11_310basic_jsonIS1_NS_6vectorES7_bxydS5_NS9_14adl_serializerENSB_IhNS5_IhEEEEvEENS_4lessIvEENS5_INS_4pairIKS7_SF_EEEEEEJNS_20__map_const_iteratorINS_21__tree_const_iteratorINS_12__value_typeIS7_S7_EEPNS_11__tree_nodeISQ_PvEElEEEESW_EPSM_EEPT_SZ_DpOT0_
FNA:1,10050,_ZNSt3__114__construct_atB8ne200100INS_3mapINS_12basic_stringIcNS_11char_traitsIcEENS_9allocatorIcEEEEN8nlohmann16json_abi_v3_11_310basic_jsonIS1_NS_6vectorES7_bxydS5_NS9_14adl_serializerENSB_IhNS5_IhEEEEvEENS_4lessIvEENS5_INS_4pairIKS7_SF_EEEEEEJRKSM_EPSM_EEPT_SR_DpOT0_
FNA:1,3286,_ZNSt3__114__construct_atB8ne200100INS_4pairIKNS1_INS_12basic_stringIcNS_11char_traitsIcEENS_9allocatorIcEEEEiEEN4inja15FunctionStorage12FunctionDataEEEJRKSD_EPSD_EEPT_SI_DpOT0_
FNA:1,0,_ZNSt3__114__construct_atB8ne200100INS_4pairIKNS_12basic_stringIcNS_11char_traitsIcEENS_9allocatorIcEEEEN4dbal4core10CacheEntryIN8nlohmann16json_abi_v3_11_310basic_jsonINS_3mapENS_6vectorES7_bxydS5_NSD_14adl_serializerENSG_IhNS5_IhEEEEvEEEEEEJRKNS_21piecewise_construct_tENS_5tupleIJRS8_EEENSQ_IJEEEEPSM_EEPT_SW_DpOT0_
FNA:1,49,_ZNSt3__114__construct_atB8ne200100INS_4pairIKNS_12basic_stringIcNS_11char_traitsIcEENS_9allocatorIcEEEEN4dbal4core12EntitySchemaEEEJRKNS_21piecewise_construct_tENS_5tupleIJRS8_EEENSG_IJEEEEPSC_EEPT_SM_DpOT0_
FNA:1,0,_ZNSt3__114__construct_atB8ne200100INS_4pairIKNS_12basic_stringIcNS_11char_traitsIcEENS_9allocatorIcEEEEN4dbal4core12EntitySchemaEEEJRKSC_EPSC_EEPT_SH_DpOT0_
FNA:1,114,_ZNSt3__114__construct_atB8ne200100INS_4pairIKNS_12basic_stringIcNS_11char_traitsIcEENS_9allocatorIcEEEEN4dbal8adapters12EntitySchemaEEEJRKNS_21piecewise_construct_tENS_5tupleIJRS8_EEENSG_IJEEEEPSC_EEPT_SM_DpOT0_
FNA:1,0,_ZNSt3__114__construct_atB8ne200100INS_4pairIKNS_12basic_stringIcNS_11char_traitsIcEENS_9allocatorIcEEEEN4inja8TemplateEEEJRKNS_21piecewise_construct_tENS_5tupleIJRS8_EEENSF_IJEEEEPSB_EEPT_SL_DpOT0_
FNA:1,0,_ZNSt3__114__construct_atB8ne200100INS_4pairIKNS_12basic_stringIcNS_11char_traitsIcEENS_9allocatorIcEEEEN4inja8TemplateEEEJRS7_RSA_EPSB_EEPT_SG_DpOT0_
FNA:1,0,_ZNSt3__114__construct_atB8ne200100INS_4pairIKNS_12basic_stringIcNS_11char_traitsIcEENS_9allocatorIcEEEEN8nlohmann16json_abi_v3_11_310basic_jsonINS_3mapENS_6vectorES7_bxydS5_NSA_14adl_serializerENSD_IhNS5_IhEEEEvEEEEJRKNS1_IS8_S7_EEEPSI_EEPT_SO_DpOT0_
FNA:1,4244,_ZNSt3__114__construct_atB8ne200100INS_4pairIKNS_12basic_stringIcNS_11char_traitsIcEENS_9allocatorIcEEEEN8nlohmann16json_abi_v3_11_310basic_jsonINS_3mapENS_6vectorES7_bxydS5_NSA_14adl_serializerENSD_IhNS5_IhEEEEvEEEEJRKNS_21piecewise_construct_tENS_5tupleIJRS8_EEENSM_IJEEEEPSI_EEPT_SS_DpOT0_
FNA:1,49823,_ZNSt3__114__construct_atB8ne200100INS_4pairIKNS_12basic_stringIcNS_11char_traitsIcEENS_9allocatorIcEEEEN8nlohmann16json_abi_v3_11_310basic_jsonINS_3mapENS_6vectorES7_bxydS5_NSA_14adl_serializerENSD_IhNS5_IhEEEEvEEEEJRKSI_EPSI_EEPT_SN_DpOT0_
FNA:1,26583,_ZNSt3__114__construct_atB8ne200100INS_4pairIKNS_12basic_stringIcNS_11char_traitsIcEENS_9allocatorIcEEEEN8nlohmann16json_abi_v3_11_310basic_jsonINS_3mapENS_6vectorES7_bxydS5_NSA_14adl_serializerENSD_IhNS5_IhEEEEvEEEEJS7_DnEPSI_EEPT_SL_DpOT0_
FNA:1,10,_ZNSt3__114__construct_atB8ne200100INS_4pairIKNS_12basic_stringIcNS_11char_traitsIcEENS_9allocatorIcEEEEN8nlohmann16json_abi_v3_11_310basic_jsonINS_3mapENS_6vectorES7_bxydS5_NSA_14adl_serializerENSD_IhNS5_IhEEEEvEEEEJS7_SH_EPSI_EEPT_SL_DpOT0_
FNA:1,0,_ZNSt3__114__construct_atB8ne200100INS_4pairIKNS_12basic_stringIcNS_11char_traitsIcEENS_9allocatorIcEEEENS_10shared_ptrIN4inja18BlockStatementNodeEEEEEJRKSD_EPSD_EEPT_SI_DpOT0_
FNA:1,0,_ZNSt3__114__construct_atB8ne200100INS_4pairIKNS_12basic_stringIcNS_11char_traitsIcEENS_9allocatorIcEEEENS_10shared_ptrIN4inja18BlockStatementNodeEEEEEJRS8_RSC_EPSD_EEPT_SI_DpOT0_
FNA:1,4739,_ZNSt3__114__construct_atB8ne200100INS_4pairIKNS_12basic_stringIcNS_11char_traitsIcEENS_9allocatorIcEEEES7_EEJRKNS_21piecewise_construct_tENS_5tupleIJOS7_EEENSD_IJEEEEPS9_EEPT_SJ_DpOT0_
FNA:1,0,_ZNSt3__114__construct_atB8ne200100INS_4pairIKNS_12basic_stringIcNS_11char_traitsIcEENS_9allocatorIcEEEES7_EEJRKNS_21piecewise_construct_tENS_5tupleIJRS8_EEENSD_IJEEEEPS9_EEPT_SJ_DpOT0_
FNA:1,0,_ZNSt3__114__construct_atB8ne200100INS_4pairIKNS_12basic_stringIcNS_11char_traitsIcEENS_9allocatorIcEEEES7_EEJRKS9_EPS9_EEPT_SE_DpOT0_
FNA:1,0,_ZNSt3__114__construct_atB8ne200100INS_4pairIKNS_12basic_stringIcNS_11char_traitsIcEENS_9allocatorIcEEEEbEEJRKNS_21piecewise_construct_tENS_5tupleIJRS8_EEENSD_IJEEEEPS9_EEPT_SJ_DpOT0_
FNA:1,0,_ZNSt3__114__construct_atB8ne200100INS_4pairIKNS_12basic_stringIcNS_11char_traitsIcEENS_9allocatorIcEEEEbEEJRKS9_EPS9_EEPT_SE_DpOT0_
FNA:1,0,_ZNSt3__114__construct_atB8ne200100INS_4pairINS_12basic_stringIcNS_11char_traitsIcEENS_9allocatorIcEEEES7_EEJRA3_KcRKS7_EPS8_EEPT_SG_DpOT0_
FNA:1,0,_ZNSt3__114__construct_atB8ne200100INS_4pairINS_12basic_stringIcNS_11char_traitsIcEENS_9allocatorIcEEEES7_EEJRKS7_S7_EPS8_EEPT_SD_DpOT0_
FNA:1,0,_ZNSt3__114__construct_atB8ne200100INS_4pairINS_12basic_stringIcNS_11char_traitsIcEENS_9allocatorIcEEEES7_EEJS8_EPS8_EEPT_SB_DpOT0_
FNA:1,0,_ZNSt3__114__construct_atB8ne200100INS_4pairIccEEJS2_EPS2_EEPT_S5_DpOT0_
FNA:1,0,_ZNSt3__114__construct_atB8ne200100INS_4pairImPKcEEJEPS4_EEPT_S7_DpOT0_
FNA:1,0,_ZNSt3__114__construct_atB8ne200100INS_4pairImPKcEEJRS4_EPS4_EEPT_S8_DpOT0_
FNA:1,7,_ZNSt3__114__construct_atB8ne200100INS_6threadEJS1_EPS1_EEPT_S4_DpOT0_
FNA:1,5,_ZNSt3__114__construct_atB8ne200100INS_6threadEJZN55PostgresIntegrationTest_ConcurrentReads_NoDataRace_Test8TestBodyEvE3$_0EPS1_EEPT_S6_DpOT0_
FNA:1,326,_ZNSt3__114__construct_atB8ne200100INS_6vectorIN8nlohmann16json_abi_v3_11_310basic_jsonINS_3mapES1_NS_12basic_stringIcNS_11char_traitsIcEENS_9allocatorIcEEEEbxydS9_NS3_14adl_serializerENS1_IhNS9_IhEEEEvEENS9_ISF_EEEEJEPSH_EEPT_SK_DpOT0_
FNA:1,212,_ZNSt3__114__construct_atB8ne200100INS_6vectorIN8nlohmann16json_abi_v3_11_310basic_jsonINS_3mapES1_NS_12basic_stringIcNS_11char_traitsIcEENS_9allocatorIcEEEEbxydS9_NS3_14adl_serializerENS1_IhNS9_IhEEEEvEENS9_ISF_EEEEJNS_11__wrap_iterIPKSB_EESL_EPSH_EEPT_SO_DpOT0_
FNA:1,0,_ZNSt3__114__construct_atB8ne200100INS_6vectorIN8nlohmann16json_abi_v3_11_310basic_jsonINS_3mapES1_NS_12basic_stringIcNS_11char_traitsIcEENS_9allocatorIcEEEEbxydS9_NS3_14adl_serializerENS1_IhNS9_IhEEEEvEENS9_ISF_EEEEJNS_11__wrap_iterIPKiEESL_EPSH_EEPT_SO_DpOT0_
FNA:1,597,_ZNSt3__114__construct_atB8ne200100INS_6vectorIN8nlohmann16json_abi_v3_11_310basic_jsonINS_3mapES1_NS_12basic_stringIcNS_11char_traitsIcEENS_9allocatorIcEEEEbxydS9_NS3_14adl_serializerENS1_IhNS9_IhEEEEvEENS9_ISF_EEEEJPKNS3_6detail8json_refISF_EESM_EPSH_EEPT_SP_DpOT0_
FNA:1,2136,_ZNSt3__114__construct_atB8ne200100INS_6vectorIN8nlohmann16json_abi_v3_11_310basic_jsonINS_3mapES1_NS_12basic_stringIcNS_11char_traitsIcEENS_9allocatorIcEEEEbxydS9_NS3_14adl_serializerENS1_IhNS9_IhEEEEvEENS9_ISF_EEEEJRKSH_EPSH_EEPT_SM_DpOT0_
FNA:1,0,_ZNSt3__114__construct_atB8ne200100INS_6vectorIN8nlohmann16json_abi_v3_11_310basic_jsonINS_3mapES1_NS_12basic_stringIcNS_11char_traitsIcEENS_9allocatorIcEEEEbxydS9_NS3_14adl_serializerENS1_IhNS9_IhEEEEvEENS9_ISF_EEEEJSH_EPSH_EEPT_SK_DpOT0_
FNA:1,0,_ZNSt3__114__construct_atB8ne200100INS_6vectorINS_12basic_stringIcNS_11char_traitsIcEENS_9allocatorIcEEEENS5_IS7_EEEEJRKS9_EPS9_EEPT_SE_DpOT0_
FNA:1,0,_ZNSt3__114__construct_atB8ne200100INS_6vectorINS_12basic_stringIcNS_11char_traitsIcEENS_9allocatorIcEEEENS5_IS7_EEEEJS9_EPS9_EEPT_SC_DpOT0_
FNA:1,0,_ZNSt3__114__construct_atB8ne200100INS_7__stateIcEEJS2_EPS2_EEPT_S5_DpOT0_
FNA:1,0,_ZNSt3__114__construct_atB8ne200100INS_9sub_matchINS_11__wrap_iterIPKcEEEEJEPS6_EEPT_S9_DpOT0_
FNA:1,0,_ZNSt3__114__construct_atB8ne200100INS_9sub_matchINS_11__wrap_iterIPKcEEEEJS6_EPS6_EEPT_S9_DpOT0_
FNA:1,0,_ZNSt3__114__construct_atB8ne200100INS_9sub_matchIPKcEEJRKS4_EPS4_EEPT_S9_DpOT0_
FNA:1,0,_ZNSt3__114__construct_atB8ne200100INS_9sub_matchIPKcEEJRS4_EPS4_EEPT_S8_DpOT0_
FNA:1,0,_ZNSt3__114__construct_atB8ne200100INS_9sub_matchIPKcEEJS4_EPS4_EEPT_S7_DpOT0_
FNA:1,0,_ZNSt3__114__construct_atB8ne200100IPKN4inja18BlockStatementNodeEJS4_EPS4_EEPT_S7_DpOT0_
FNA:1,0,_ZNSt3__114__construct_atB8ne200100IPKN4inja8DataNodeEJS4_EPS4_EEPT_S7_DpOT0_
FNA:1,212,_ZNSt3__114__construct_atB8ne200100IPKN4inja8TemplateEJRS4_EPS4_EEPT_S8_DpOT0_
FNA:1,0,_ZNSt3__114__construct_atB8ne200100IPKN8nlohmann16json_abi_v3_11_310basic_jsonINS_3mapENS_6vectorENS_12basic_stringIcNS_11char_traitsIcEENS_9allocatorIcEEEEbxydS9_NS2_14adl_serializerENS5_IhNS9_IhEEEEvEEJEPSH_EEPT_SK_DpOT0_
FNA:1,0,_ZNSt3__114__construct_atB8ne200100IPKN8nlohmann16json_abi_v3_11_310basic_jsonINS_3mapENS_6vectorENS_12basic_stringIcNS_11char_traitsIcEENS_9allocatorIcEEEEbxydS9_NS2_14adl_serializerENS5_IhNS9_IhEEEEvEEJRKSH_EPSH_EEPT_SM_DpOT0_
FNA:1,10812,_ZNSt3__114__construct_atB8ne200100IPKN8nlohmann16json_abi_v3_11_310basic_jsonINS_3mapENS_6vectorENS_12basic_stringIcNS_11char_traitsIcEENS_9allocatorIcEEEEbxydS9_NS2_14adl_serializerENS5_IhNS9_IhEEEEvEEJSH_EPSH_EEPT_SK_DpOT0_
FNA:1,1660,_ZNSt3__114__construct_atB8ne200100IPKcJS2_EPS2_EEPT_S5_DpOT0_
FNA:1,636,_ZNSt3__114__construct_atB8ne200100IPN4inja15IfStatementNodeEJS3_EPS3_EEPT_S6_DpOT0_
FNA:1,212,_ZNSt3__114__construct_atB8ne200100IPN4inja16ForStatementNodeEJS3_EPS3_EEPT_S6_DpOT0_
FNA:1,0,_ZNSt3__114__construct_atB8ne200100IPN4inja18BlockStatementNodeEJS3_EPS3_EEPT_S6_DpOT0_
FNA:1,0,_ZNSt3__114__construct_atB8ne200100IPN8nlohmann16json_abi_v3_11_310basic_jsonINS_3mapENS_6vectorENS_12basic_stringIcNS_11char_traitsIcEENS_9allocatorIcEEEEbxydS9_NS2_14adl_serializerENS5_IhNS9_IhEEEEvEEJRKSG_EPSG_EEPT_SL_DpOT0_
FNA:1,1958,_ZNSt3__114__construct_atB8ne200100IPN8nlohmann16json_abi_v3_11_310basic_jsonINS_3mapENS_6vectorENS_12basic_stringIcNS_11char_traitsIcEENS_9allocatorIcEEEEbxydS9_NS2_14adl_serializerENS5_IhNS9_IhEEEEvEEJSG_EPSG_EEPT_SJ_DpOT0_
FNA:1,0,_ZNSt3__114__construct_atB8ne200100IPNS_10shared_ptrIN4inja12FunctionNodeEEEJRS5_EPS5_EEPT_S9_DpOT0_
FNA:1,424,_ZNSt3__114__construct_atB8ne200100IPNS_10shared_ptrIN4inja12FunctionNodeEEEJS5_EPS5_EEPT_S8_DpOT0_
FNA:1,0,_ZNSt3__114__construct_atB8ne200100IPNS_10unique_ptrIN4dbal8adapters3sql13SqlConnectionENS_14default_deleteIS5_EEEEJRS9_EPS9_EEPT_SD_DpOT0_
FNA:1,0,_ZNSt3__114__construct_atB8ne200100IPNS_10unique_ptrIN4dbal8adapters3sql13SqlConnectionENS_14default_deleteIS5_EEEEJS9_EPS9_EEPT_SC_DpOT0_
FNA:1,0,_ZNSt3__114__construct_atB8ne200100IPNS_7__stateIcEEJRS3_EPS3_EEPT_S7_DpOT0_
FNA:1,0,_ZNSt3__114__construct_atB8ne200100IPNS_7__stateIcEEJS3_EPS3_EEPT_S6_DpOT0_
FNA:1,0,_ZNSt3__114__construct_atB8ne200100IPPKN4inja8DataNodeEJRS5_EPS5_EEPT_S9_DpOT0_
FNA:1,0,_ZNSt3__114__construct_atB8ne200100IPPKN4inja8DataNodeEJS5_EPS5_EEPT_S8_DpOT0_
FNA:1,0,_ZNSt3__114__construct_atB8ne200100IPPKN8nlohmann16json_abi_v3_11_310basic_jsonINS_3mapENS_6vectorENS_12basic_stringIcNS_11char_traitsIcEENS_9allocatorIcEEEEbxydS9_NS2_14adl_serializerENS5_IhNS9_IhEEEEvEEJRSI_EPSI_EEPT_SM_DpOT0_
FNA:1,212,_ZNSt3__114__construct_atB8ne200100IPPKN8nlohmann16json_abi_v3_11_310basic_jsonINS_3mapENS_6vectorENS_12basic_stringIcNS_11char_traitsIcEENS_9allocatorIcEEEEbxydS9_NS2_14adl_serializerENS5_IhNS9_IhEEEEvEEJSI_EPSI_EEPT_SL_DpOT0_
FNA:1,0,_ZNSt3__114__construct_atB8ne200100IPPN4inja15IfStatementNodeEJRS4_EPS4_EEPT_S8_DpOT0_
FNA:1,212,_ZNSt3__114__construct_atB8ne200100IPPN4inja15IfStatementNodeEJS4_EPS4_EEPT_S7_DpOT0_
FNA:1,0,_ZNSt3__114__construct_atB8ne200100IPPN4inja16ForStatementNodeEJRS4_EPS4_EEPT_S8_DpOT0_
FNA:1,212,_ZNSt3__114__construct_atB8ne200100IPPN4inja16ForStatementNodeEJS4_EPS4_EEPT_S7_DpOT0_
FNA:1,0,_ZNSt3__114__construct_atB8ne200100IPPN4inja18BlockStatementNodeEJRS4_EPS4_EEPT_S8_DpOT0_
FNA:1,0,_ZNSt3__114__construct_atB8ne200100IPPN4inja18BlockStatementNodeEJS4_EPS4_EEPT_S7_DpOT0_
FNA:1,0,_ZNSt3__114__construct_atB8ne200100IcJRKcEPcEEPT_S5_DpOT0_
FNA:1,90253,_ZNSt3__114__construct_atB8ne200100IcJcEPcEEPT_S3_DpOT0_
FNA:1,0,_ZNSt3__114__construct_atB8ne200100IiJEPiEEPT_S3_DpOT0_
FNL:2,64,67
FNA:2,4,_ZNSt3__112__destroy_atB8ne200100IN4dbal11FilterGroupELi0EEEvPT_
FNA:2,4,_ZNSt3__112__destroy_atB8ne200100IN4dbal13AggregateSpecELi0EEEvPT_
FNA:2,54,_ZNSt3__112__destroy_atB8ne200100IN4dbal15FilterConditionELi0EEEvPT_
FNA:2,4144,_ZNSt3__112__destroy_atB8ne200100IN4dbal4core11EntityFieldELi0EEEvPT_
FNA:2,543,_ZNSt3__112__destroy_atB8ne200100IN4dbal4core11EntityIndexELi0EEEvPT_
FNA:2,0,_ZNSt3__112__destroy_atB8ne200100IN4dbal4core11RelationDefELi0EEEvPT_
FNA:2,0,_ZNSt3__112__destroy_atB8ne200100IN4dbal4core23CompensatingTransaction6UndoOpELi0EEEvPT_
FNA:2,5698,_ZNSt3__112__destroy_atB8ne200100IN4dbal8adapters11EntityFieldELi0EEEvPT_
FNA:2,0,_ZNSt3__112__destroy_atB8ne200100IN4dbal8adapters11RelationDefELi0EEEvPT_
FNA:2,3423,_ZNSt3__112__destroy_atB8ne200100IN4dbal8adapters15FieldDefinitionELi0EEEvPT_
FNA:2,326,_ZNSt3__112__destroy_atB8ne200100IN4dbal8adapters15IndexDefinitionELi0EEEvPT_
FNA:2,163,_ZNSt3__112__destroy_atB8ne200100IN4dbal8adapters16EntityDefinitionELi0EEEvPT_
FNA:2,0,_ZNSt3__112__destroy_atB8ne200100IN4dbal8adapters18RelationDefinitionELi0EEEvPT_
FNA:2,1283,_ZNSt3__112__destroy_atB8ne200100IN4dbal8adapters3sql6SqlRowELi0EEEvPT_
FNA:2,6712,_ZNSt3__112__destroy_atB8ne200100IN4dbal8adapters3sql8SqlParamELi0EEEvPT_
FNA:2,106,_ZNSt3__112__destroy_atB8ne200100IN4inja11LiteralNodeELi0EEEvPT_
FNA:2,742,_ZNSt3__112__destroy_atB8ne200100IN4inja12FunctionNodeELi0EEEvPT_
FNA:2,636,_ZNSt3__112__destroy_atB8ne200100IN4inja15IfStatementNodeELi0EEEvPT_
FNA:2,0,_ZNSt3__112__destroy_atB8ne200100IN4inja16SetStatementNodeELi0EEEvPT_
FNA:2,0,_ZNSt3__112__destroy_atB8ne200100IN4inja18BlockStatementNodeELi0EEEvPT_
FNA:2,848,_ZNSt3__112__destroy_atB8ne200100IN4inja18ExpressionListNodeELi0EEEvPT_
FNA:2,0,_ZNSt3__112__destroy_atB8ne200100IN4inja20ExtendsStatementNodeELi0EEEvPT_
FNA:2,0,_ZNSt3__112__destroy_atB8ne200100IN4inja20IncludeStatementNodeELi0EEEvPT_
FNA:2,212,_ZNSt3__112__destroy_atB8ne200100IN4inja21ForArrayStatementNodeELi0EEEvPT_
FNA:2,0,_ZNSt3__112__destroy_atB8ne200100IN4inja22ForObjectStatementNodeELi0EEEvPT_
FNA:2,1908,_ZNSt3__112__destroy_atB8ne200100IN4inja8DataNodeELi0EEEvPT_
FNA:2,1908,_ZNSt3__112__destroy_atB8ne200100IN4inja8TextNodeELi0EEEvPT_
FNA:2,122945,_ZNSt3__112__destroy_atB8ne200100IN8nlohmann16json_abi_v3_11_310basic_jsonINS_3mapENS_6vectorENS_12basic_stringIcNS_11char_traitsIcEENS_9allocatorIcEEEEbxydS9_NS2_14adl_serializerENS5_IhNS9_IhEEEEvEELi0EEEvPT_
FNA:2,0,_ZNSt3__112__destroy_atB8ne200100IN8nlohmann16json_abi_v3_11_327byte_container_with_subtypeINS_6vectorIhNS_9allocatorIhEEEEEELi0EEEvPT_
FNA:2,0,_ZNSt3__112__destroy_atB8ne200100IN8nlohmann16json_abi_v3_11_36detail21output_string_adapterIcNS_12basic_stringIcNS_11char_traitsIcEENS_9allocatorIcEEEEEELi0EEEvPT_
FNA:2,636,_ZNSt3__112__destroy_atB8ne200100INS_10shared_ptrIN4inja12FunctionNodeEEELi0EEEvPT_
FNA:2,3816,_ZNSt3__112__destroy_atB8ne200100INS_10shared_ptrIN4inja14ExpressionNodeEEELi0EEEvPT_
FNA:2,3604,_ZNSt3__112__destroy_atB8ne200100INS_10shared_ptrIN4inja7AstNodeEEELi0EEEvPT_
FNA:2,3392,_ZNSt3__112__destroy_atB8ne200100INS_10shared_ptrIN8nlohmann16json_abi_v3_11_310basic_jsonINS_3mapENS_6vectorENS_12basic_stringIcNS_11char_traitsIcEENS_9allocatorIcEEEEbxydSA_NS3_14adl_serializerENS6_IhNSA_IhEEEEvEEEELi0EEEvPT_
FNA:2,285,_ZNSt3__112__destroy_atB8ne200100INS_10unique_ptrIN4dbal8adapters3sql13SqlConnectionENS_14default_deleteIS5_EEEELi0EEEvPT_
FNA:2,245,_ZNSt3__112__destroy_atB8ne200100INS_11__hash_nodeINS_12basic_stringIcNS_11char_traitsIcEENS_9allocatorIcEEEEPvEELi0EEEvPT_
FNA:2,49,_ZNSt3__112__destroy_atB8ne200100INS_11__hash_nodeINS_17__hash_value_typeINS_12basic_stringIcNS_11char_traitsIcEENS_9allocatorIcEEEEN4dbal4core12EntitySchemaEEEPvEELi0EEEvPT_
FNA:2,114,_ZNSt3__112__destroy_atB8ne200100INS_11__hash_nodeINS_17__hash_value_typeINS_12basic_stringIcNS_11char_traitsIcEENS_9allocatorIcEEEEN4dbal8adapters12EntitySchemaEEEPvEELi0EEEvPT_
FNA:2,76938,_ZNSt3__112__destroy_atB8ne200100INS_12basic_stringIcNS_11char_traitsIcEENS_9allocatorIcEEEELi0EEEvPT_
FNA:2,16101,_ZNSt3__112__destroy_atB8ne200100INS_3mapINS_12basic_stringIcNS_11char_traitsIcEENS_9allocatorIcEEEEN8nlohmann16json_abi_v3_11_310basic_jsonIS1_NS_6vectorES7_bxydS5_NS9_14adl_serializerENSB_IhNS5_IhEEEEvEENS_4lessIvEENS5_INS_4pairIKS7_SF_EEEEEELi0EEEvPT_
FNA:2,3286,_ZNSt3__112__destroy_atB8ne200100INS_4pairIKNS1_INS_12basic_stringIcNS_11char_traitsIcEENS_9allocatorIcEEEEiEEN4inja15FunctionStorage12FunctionDataEEELi0EEEvPT_
FNA:2,0,_ZNSt3__112__destroy_atB8ne200100INS_4pairIKNS_12basic_stringIcNS_11char_traitsIcEENS_9allocatorIcEEEEN4dbal4core10CacheEntryIN8nlohmann16json_abi_v3_11_310basic_jsonINS_3mapENS_6vectorES7_bxydS5_NSD_14adl_serializerENSG_IhNS5_IhEEEEvEEEEEELi0EEEvPT_
FNA:2,49,_ZNSt3__112__destroy_atB8ne200100INS_4pairIKNS_12basic_stringIcNS_11char_traitsIcEENS_9allocatorIcEEEEN4dbal4core12EntitySchemaEEELi0EEEvPT_
FNA:2,114,_ZNSt3__112__destroy_atB8ne200100INS_4pairIKNS_12basic_stringIcNS_11char_traitsIcEENS_9allocatorIcEEEEN4dbal8adapters12EntitySchemaEEELi0EEEvPT_
FNA:2,0,_ZNSt3__112__destroy_atB8ne200100INS_4pairIKNS_12basic_stringIcNS_11char_traitsIcEENS_9allocatorIcEEEEN4inja8TemplateEEELi0EEEvPT_
FNA:2,80660,_ZNSt3__112__destroy_atB8ne200100INS_4pairIKNS_12basic_stringIcNS_11char_traitsIcEENS_9allocatorIcEEEEN8nlohmann16json_abi_v3_11_310basic_jsonINS_3mapENS_6vectorES7_bxydS5_NSA_14adl_serializerENSD_IhNS5_IhEEEEvEEEELi0EEEvPT_
FNA:2,0,_ZNSt3__112__destroy_atB8ne200100INS_4pairIKNS_12basic_stringIcNS_11char_traitsIcEENS_9allocatorIcEEEENS_10shared_ptrIN4inja18BlockStatementNodeEEEEELi0EEEvPT_
FNA:2,4739,_ZNSt3__112__destroy_atB8ne200100INS_4pairIKNS_12basic_stringIcNS_11char_traitsIcEENS_9allocatorIcEEEES7_EELi0EEEvPT_
FNA:2,0,_ZNSt3__112__destroy_atB8ne200100INS_4pairIKNS_12basic_stringIcNS_11char_traitsIcEENS_9allocatorIcEEEEbEELi0EEEvPT_
FNA:2,0,_ZNSt3__112__destroy_atB8ne200100INS_4pairINS_12basic_stringIcNS_11char_traitsIcEENS_9allocatorIcEEEES7_EELi0EEEvPT_
FNA:2,0,_ZNSt3__112__destroy_atB8ne200100INS_4pairIccEELi0EEEvPT_
FNA:2,0,_ZNSt3__112__destroy_atB8ne200100INS_4pairImPKcEELi0EEEvPT_
FNA:2,12,_ZNSt3__112__destroy_atB8ne200100INS_6threadELi0EEEvPT_
FNA:2,3271,_ZNSt3__112__destroy_atB8ne200100INS_6vectorIN8nlohmann16json_abi_v3_11_310basic_jsonINS_3mapES1_NS_12basic_stringIcNS_11char_traitsIcEENS_9allocatorIcEEEEbxydS9_NS3_14adl_serializerENS1_IhNS9_IhEEEEvEENS9_ISF_EEEELi0EEEvPT_
FNA:2,0,_ZNSt3__112__destroy_atB8ne200100INS_7__stateIcEELi0EEEvPT_
FNA:2,0,_ZNSt3__112__destroy_atB8ne200100INS_9sub_matchINS_11__wrap_iterIPKcEEEELi0EEEvPT_
FNA:2,0,_ZNSt3__112__destroy_atB8ne200100INS_9sub_matchIPKcEELi0EEEvPT_
FNA:2,0,_ZNSt3__112__destroy_atB8ne200100IPKN4inja18BlockStatementNodeELi0EEEvPT_
FNA:2,0,_ZNSt3__112__destroy_atB8ne200100IPKN4inja8DataNodeELi0EEEvPT_
FNA:2,212,_ZNSt3__112__destroy_atB8ne200100IPKN4inja8TemplateELi0EEEvPT_
FNA:2,10812,_ZNSt3__112__destroy_atB8ne200100IPKN8nlohmann16json_abi_v3_11_310basic_jsonINS_3mapENS_6vectorENS_12basic_stringIcNS_11char_traitsIcEENS_9allocatorIcEEEEbxydS9_NS2_14adl_serializerENS5_IhNS9_IhEEEEvEELi0EEEvPT_
FNA:2,1660,_ZNSt3__112__destroy_atB8ne200100IPKcLi0EEEvPT_
FNA:2,636,_ZNSt3__112__destroy_atB8ne200100IPN4inja15IfStatementNodeELi0EEEvPT_
FNA:2,212,_ZNSt3__112__destroy_atB8ne200100IPN4inja16ForStatementNodeELi0EEEvPT_
FNA:2,0,_ZNSt3__112__destroy_atB8ne200100IPN4inja18BlockStatementNodeELi0EEEvPT_
FNA:2,1958,_ZNSt3__112__destroy_atB8ne200100IPN8nlohmann16json_abi_v3_11_310basic_jsonINS_3mapENS_6vectorENS_12basic_stringIcNS_11char_traitsIcEENS_9allocatorIcEEEEbxydS9_NS2_14adl_serializerENS5_IhNS9_IhEEEEvEELi0EEEvPT_
FNA:2,424,_ZNSt3__112__destroy_atB8ne200100IPNS_10shared_ptrIN4inja12FunctionNodeEEELi0EEEvPT_
FNA:2,0,_ZNSt3__112__destroy_atB8ne200100IPNS_10unique_ptrIN4dbal8adapters3sql13SqlConnectionENS_14default_deleteIS5_EEEELi0EEEvPT_
FNA:2,0,_ZNSt3__112__destroy_atB8ne200100IPNS_7__stateIcEELi0EEEvPT_
FNA:2,0,_ZNSt3__112__destroy_atB8ne200100IPPKN4inja8DataNodeELi0EEEvPT_
FNA:2,212,_ZNSt3__112__destroy_atB8ne200100IPPKN8nlohmann16json_abi_v3_11_310basic_jsonINS_3mapENS_6vectorENS_12basic_stringIcNS_11char_traitsIcEENS_9allocatorIcEEEEbxydS9_NS2_14adl_serializerENS5_IhNS9_IhEEEEvEELi0EEEvPT_
FNA:2,212,_ZNSt3__112__destroy_atB8ne200100IPPN4inja15IfStatementNodeELi0EEEvPT_
FNA:2,212,_ZNSt3__112__destroy_atB8ne200100IPPN4inja16ForStatementNodeELi0EEEvPT_
FNA:2,0,_ZNSt3__112__destroy_atB8ne200100IPPN4inja18BlockStatementNodeELi0EEEvPT_
FNA:2,90253,_ZNSt3__112__destroy_atB8ne200100IcLi0EEEvPT_
FNA:2,0,_ZNSt3__112__destroy_atB8ne200100IhLi0EEEvPT_
FNA:2,0,_ZNSt3__112__destroy_atB8ne200100IiLi0EEEvPT_
FNF:3
FNH:3
DA:38,455772
DA:40,455772
DA:46,455772
DA:48,455772
DA:64,455773
DA:66,455773
DA:67,455773
LF:7
LH:7
end_of_record
TN:
SF:/Library/Developer/CommandLineTools/SDKs/MacOSX.sdk/usr/include/c++/v1/__memory/pointer_traits.h
FNL:0,172,173
FNA:0,0,_ZNSt3__114pointer_traitsIPKNS_10shared_ptrIN4inja14ExpressionNodeEEEE10pointer_toB8ne200100ERS5_
FNA:0,0,_ZNSt3__114pointer_traitsIPKNS_12__value_typeINS_12basic_stringIcNS_11char_traitsIcEENS_9allocatorIcEEEEN4dbal4core10CacheEntryIN8nlohmann16json_abi_v3_11_310basic_jsonINS_3mapENS_6vectorES7_bxydS5_NSC_14adl_serializerENSF_IhNS5_IhEEEEvEEEEEEE10pointer_toB8ne200100ERSM_
FNA:0,0,_ZNSt3__114pointer_traitsIPKNS_12__value_typeINS_12basic_stringIcNS_11char_traitsIcEENS_9allocatorIcEEEEN4dbal4core12EntitySchemaEEEE10pointer_toB8ne200100ERSC_
FNA:0,0,_ZNSt3__114pointer_traitsIPKNS_12__value_typeINS_12basic_stringIcNS_11char_traitsIcEENS_9allocatorIcEEEEN4inja8TemplateEEEE10pointer_toB8ne200100ERSB_
FNA:0,49823,_ZNSt3__114pointer_traitsIPKNS_12__value_typeINS_12basic_stringIcNS_11char_traitsIcEENS_9allocatorIcEEEEN8nlohmann16json_abi_v3_11_310basic_jsonINS_3mapENS_6vectorES7_bxydS5_NS9_14adl_serializerENSC_IhNS5_IhEEEEvEEEEE10pointer_toB8ne200100ERSI_
FNA:0,0,_ZNSt3__114pointer_traitsIPKNS_12__value_typeINS_12basic_stringIcNS_11char_traitsIcEENS_9allocatorIcEEEENS_10shared_ptrIN4inja18BlockStatementNodeEEEEEE10pointer_toB8ne200100ERSD_
FNA:0,4853,_ZNSt3__114pointer_traitsIPKNS_12__value_typeINS_12basic_stringIcNS_11char_traitsIcEENS_9allocatorIcEEEES7_EEE10pointer_toB8ne200100ERS9_
FNA:0,0,_ZNSt3__114pointer_traitsIPKNS_12__value_typeINS_12basic_stringIcNS_11char_traitsIcEENS_9allocatorIcEEEEbEEE10pointer_toB8ne200100ERS9_
FNA:0,106,_ZNSt3__114pointer_traitsIPKNS_12__value_typeINS_4pairINS_12basic_stringIcNS_11char_traitsIcEENS_9allocatorIcEEEEiEEN4inja15FunctionStorage12FunctionDataEEEE10pointer_toB8ne200100ERSE_
FNA:0,445,_ZNSt3__114pointer_traitsIPKNS_17__hash_value_typeINS_12basic_stringIcNS_11char_traitsIcEENS_9allocatorIcEEEEN4dbal4core12EntitySchemaEEEE10pointer_toB8ne200100ERSC_
FNA:0,582,_ZNSt3__114pointer_traitsIPKNS_17__hash_value_typeINS_12basic_stringIcNS_11char_traitsIcEENS_9allocatorIcEEEEN4dbal8adapters12EntitySchemaEEEE10pointer_toB8ne200100ERSC_
FNA:0,106,_ZNSt3__114pointer_traitsIPKNS_4pairIKNS1_INS_12basic_stringIcNS_11char_traitsIcEENS_9allocatorIcEEEEiEEN4inja15FunctionStorage12FunctionDataEEEE10pointer_toB8ne200100ERSE_
FNA:0,0,_ZNSt3__114pointer_traitsIPKNS_4pairIKNS_12basic_stringIcNS_11char_traitsIcEENS_9allocatorIcEEEEN4dbal4core10CacheEntryIN8nlohmann16json_abi_v3_11_310basic_jsonINS_3mapENS_6vectorES7_bxydS5_NSD_14adl_serializerENSG_IhNS5_IhEEEEvEEEEEEE10pointer_toB8ne200100ERSN_
FNA:0,445,_ZNSt3__114pointer_traitsIPKNS_4pairIKNS_12basic_stringIcNS_11char_traitsIcEENS_9allocatorIcEEEEN4dbal4core12EntitySchemaEEEE10pointer_toB8ne200100ERSD_
FNA:0,582,_ZNSt3__114pointer_traitsIPKNS_4pairIKNS_12basic_stringIcNS_11char_traitsIcEENS_9allocatorIcEEEEN4dbal8adapters12EntitySchemaEEEE10pointer_toB8ne200100ERSD_
FNA:0,0,_ZNSt3__114pointer_traitsIPKNS_4pairIKNS_12basic_stringIcNS_11char_traitsIcEENS_9allocatorIcEEEEN4inja8TemplateEEEE10pointer_toB8ne200100ERSC_
FNA:0,0,_ZNSt3__114pointer_traitsIPKNS_4pairIKNS_12basic_stringIcNS_11char_traitsIcEENS_9allocatorIcEEEEN8nlohmann16json_abi_v3_11_310basic_jsonINS_3mapENS_6vectorES7_bxydS5_NSA_14adl_serializerENSD_IhNS5_IhEEEEvEEEEE10pointer_toB8ne200100ERSJ_
FNA:0,0,_ZNSt3__114pointer_traitsIPKNS_4pairIKNS_12basic_stringIcNS_11char_traitsIcEENS_9allocatorIcEEEENS_10shared_ptrIN4inja18BlockStatementNodeEEEEEE10pointer_toB8ne200100ERSE_
FNA:0,4693,_ZNSt3__114pointer_traitsIPKNS_4pairIKNS_12basic_stringIcNS_11char_traitsIcEENS_9allocatorIcEEEES7_EEE10pointer_toB8ne200100ERSA_
FNA:0,924224,_ZNSt3__114pointer_traitsIPKcE10pointer_toB8ne200100ERS1_
FNA:0,0,_ZNSt3__114pointer_traitsIPNS_12__value_typeINS_12basic_stringIcNS_11char_traitsIcEENS_9allocatorIcEEEEN4dbal4core10CacheEntryIN8nlohmann16json_abi_v3_11_310basic_jsonINS_3mapENS_6vectorES7_bxydS5_NSC_14adl_serializerENSF_IhNS5_IhEEEEvEEEEEEE10pointer_toB8ne200100ERSL_
FNA:0,0,_ZNSt3__114pointer_traitsIPNS_12__value_typeINS_12basic_stringIcNS_11char_traitsIcEENS_9allocatorIcEEEEN4dbal4core12EntitySchemaEEEE10pointer_toB8ne200100ERSB_
FNA:0,0,_ZNSt3__114pointer_traitsIPNS_12__value_typeINS_12basic_stringIcNS_11char_traitsIcEENS_9allocatorIcEEEEN4inja8TemplateEEEE10pointer_toB8ne200100ERSA_
FNA:0,150795,_ZNSt3__114pointer_traitsIPNS_12__value_typeINS_12basic_stringIcNS_11char_traitsIcEENS_9allocatorIcEEEEN8nlohmann16json_abi_v3_11_310basic_jsonINS_3mapENS_6vectorES7_bxydS5_NS9_14adl_serializerENSC_IhNS5_IhEEEEvEEEEE10pointer_toB8ne200100ERSH_
FNA:0,4739,_ZNSt3__114pointer_traitsIPNS_12__value_typeINS_12basic_stringIcNS_11char_traitsIcEENS_9allocatorIcEEEES7_EEE10pointer_toB8ne200100ERS8_
FNA:0,0,_ZNSt3__114pointer_traitsIPNS_12__value_typeINS_12basic_stringIcNS_11char_traitsIcEENS_9allocatorIcEEEEbEEE10pointer_toB8ne200100ERS8_
FNA:0,635846,_ZNSt3__114pointer_traitsIPNS_15__tree_end_nodeIPNS_16__tree_node_baseIPvEEEEE10pointer_toB8ne200100ERS6_
FNA:0,803,_ZNSt3__114pointer_traitsIPNS_16__hash_node_baseIPNS_11__hash_nodeINS_12basic_stringIcNS_11char_traitsIcEENS_9allocatorIcEEEEPvEEEEE10pointer_toB8ne200100ERSC_
FNA:0,1136,_ZNSt3__114pointer_traitsIPNS_16__hash_node_baseIPNS_11__hash_nodeINS_17__hash_value_typeINS_12basic_stringIcNS_11char_traitsIcEENS_9allocatorIcEEEEN4dbal4core12EntitySchemaEEEPvEEEEE10pointer_toB8ne200100ERSH_
FNA:0,1567,_ZNSt3__114pointer_traitsIPNS_16__hash_node_baseIPNS_11__hash_nodeINS_17__hash_value_typeINS_12basic_stringIcNS_11char_traitsIcEENS_9allocatorIcEEEEN4dbal8adapters12EntitySchemaEEEPvEEEEE10pointer_toB8ne200100ERSH_
FNA:0,50,_ZNSt3__114pointer_traitsIPNS_17__hash_value_typeINS_12basic_stringIcNS_11char_traitsIcEENS_9allocatorIcEEEEN4dbal4core12EntitySchemaEEEE10pointer_toB8ne200100ERSB_
FNA:0,118,_ZNSt3__114pointer_traitsIPNS_17__hash_value_typeINS_12basic_stringIcNS_11char_traitsIcEENS_9allocatorIcEEEEN4dbal8adapters12EntitySchemaEEEE10pointer_toB8ne200100ERSB_
FNA:0,106,_ZNSt3__114pointer_traitsIPNS_20__shared_ptr_emplaceIN4inja11LiteralNodeENS_9allocatorIS3_EEEEE10pointer_toB8ne200100ERS6_
FNA:0,742,_ZNSt3__114pointer_traitsIPNS_20__shared_ptr_emplaceIN4inja12FunctionNodeENS_9allocatorIS3_EEEEE10pointer_toB8ne200100ERS6_
FNA:0,636,_ZNSt3__114pointer_traitsIPNS_20__shared_ptr_emplaceIN4inja15IfStatementNodeENS_9allocatorIS3_EEEEE10pointer_toB8ne200100ERS6_
FNA:0,0,_ZNSt3__114pointer_traitsIPNS_20__shared_ptr_emplaceIN4inja16SetStatementNodeENS_9allocatorIS3_EEEEE10pointer_toB8ne200100ERS6_
FNA:0,0,_ZNSt3__114pointer_traitsIPNS_20__shared_ptr_emplaceIN4inja18BlockStatementNodeENS_9allocatorIS3_EEEEE10pointer_toB8ne200100ERS6_
FNA:0,848,_ZNSt3__114pointer_traitsIPNS_20__shared_ptr_emplaceIN4inja18ExpressionListNodeENS_9allocatorIS3_EEEEE10pointer_toB8ne200100ERS6_
FNA:0,0,_ZNSt3__114pointer_traitsIPNS_20__shared_ptr_emplaceIN4inja20ExtendsStatementNodeENS_9allocatorIS3_EEEEE10pointer_toB8ne200100ERS6_
FNA:0,0,_ZNSt3__114pointer_traitsIPNS_20__shared_ptr_emplaceIN4inja20IncludeStatementNodeENS_9allocatorIS3_EEEEE10pointer_toB8ne200100ERS6_
FNA:0,212,_ZNSt3__114pointer_traitsIPNS_20__shared_ptr_emplaceIN4inja21ForArrayStatementNodeENS_9allocatorIS3_EEEEE10pointer_toB8ne200100ERS6_
FNA:0,0,_ZNSt3__114pointer_traitsIPNS_20__shared_ptr_emplaceIN4inja22ForObjectStatementNodeENS_9allocatorIS3_EEEEE10pointer_toB8ne200100ERS6_
FNA:0,1908,_ZNSt3__114pointer_traitsIPNS_20__shared_ptr_emplaceIN4inja8DataNodeENS_9allocatorIS3_EEEEE10pointer_toB8ne200100ERS6_
FNA:0,1908,_ZNSt3__114pointer_traitsIPNS_20__shared_ptr_emplaceIN4inja8TextNodeENS_9allocatorIS3_EEEEE10pointer_toB8ne200100ERS6_
FNA:0,9858,_ZNSt3__114pointer_traitsIPNS_20__shared_ptr_emplaceIN8nlohmann16json_abi_v3_11_310basic_jsonINS_3mapENS_6vectorENS_12basic_stringIcNS_11char_traitsIcEENS_9allocatorIcEEEEbxydSA_NS3_14adl_serializerENS6_IhNSA_IhEEEEvEENSA_ISG_EEEEE10pointer_toB8ne200100ERSI_
FNA:0,0,_ZNSt3__114pointer_traitsIPNS_20__shared_ptr_emplaceIN8nlohmann16json_abi_v3_11_36detail21output_string_adapterIcNS_12basic_stringIcNS_11char_traitsIcEENS_9allocatorIcEEEEEENS9_ISC_EEEEE10pointer_toB8ne200100ERSE_
FNA:0,0,_ZNSt3__114pointer_traitsIPNS_20__shared_ptr_pointerIPNS_13__empty_stateIcEENS_10shared_ptrIS3_E27__shared_ptr_default_deleteIS3_S3_EENS_9allocatorIS3_EEEEE10pointer_toB8ne200100ERSB_
FNA:0,0,_ZNSt3__114pointer_traitsIPNS_4pairIKNS_12basic_stringIcNS_11char_traitsIcEENS_9allocatorIcEEEEN4dbal4core10CacheEntryIN8nlohmann16json_abi_v3_11_310basic_jsonINS_3mapENS_6vectorES7_bxydS5_NSD_14adl_serializerENSG_IhNS5_IhEEEEvEEEEEEE10pointer_toB8ne200100ERSM_
FNA:0,0,_ZNSt3__114pointer_traitsIPNS_4pairIKNS_12basic_stringIcNS_11char_traitsIcEENS_9allocatorIcEEEEN4dbal4core12EntitySchemaEEEE10pointer_toB8ne200100ERSC_
FNA:0,66527,_ZNSt3__114pointer_traitsIPNS_4pairIKNS_12basic_stringIcNS_11char_traitsIcEENS_9allocatorIcEEEEN8nlohmann16json_abi_v3_11_310basic_jsonINS_3mapENS_6vectorES7_bxydS5_NSA_14adl_serializerENSD_IhNS5_IhEEEEvEEEEE10pointer_toB8ne200100ERSI_
FNA:0,23251,_ZNSt3__114pointer_traitsIPcE10pointer_toB8ne200100ERc
FNL:1,191,193
FNA:1,130,_ZNSt3__112__to_addressB8ne200100IKN4dbal8adapters3sql8SqlParamEEEPT_S7_
FNA:1,2,_ZNSt3__112__to_addressB8ne200100IKN8nlohmann16json_abi_v3_11_310basic_jsonINS_3mapENS_6vectorENS_12basic_stringIcNS_11char_traitsIcEENS_9allocatorIcEEEEbxydS9_NS2_14adl_serializerENS5_IhNS9_IhEEEEvEEEEPT_SI_
FNA:1,346,_ZNSt3__112__to_addressB8ne200100IKN8nlohmann16json_abi_v3_11_36detail8json_refINS2_10basic_jsonINS_3mapENS_6vectorENS_12basic_stringIcNS_11char_traitsIcEENS_9allocatorIcEEEEbxydSB_NS2_14adl_serializerENS7_IhNSB_IhEEEEvEEEEEEPT_SL_
FNA:1,5724,_ZNSt3__112__to_addressB8ne200100IKNS_10shared_ptrIN4inja14ExpressionNodeEEEEEPT_S7_
FNA:1,3104,_ZNSt3__112__to_addressB8ne200100IKNS_12basic_stringIcNS_11char_traitsIcEENS_9allocatorIcEEEEEEPT_S9_
FNA:1,1068202,_ZNSt3__112__to_addressB8ne200100IKcEEPT_S3_
FNA:1,0,_ZNSt3__112__to_addressB8ne200100IKhEEPT_S3_
FNA:1,0,_ZNSt3__112__to_addressB8ne200100IKiEEPT_S3_
FNA:1,20,_ZNSt3__112__to_addressB8ne200100IN4dbal11FilterGroupEEEPT_S4_
FNA:1,20,_ZNSt3__112__to_addressB8ne200100IN4dbal13AggregateSpecEEEPT_S4_
FNA:1,250,_ZNSt3__112__to_addressB8ne200100IN4dbal15FilterConditionEEEPT_S4_
FNA:1,10852,_ZNSt3__112__to_addressB8ne200100IN4dbal4core11EntityFieldEEEPT_S5_
FNA:1,3209,_ZNSt3__112__to_addressB8ne200100IN4dbal4core11EntityIndexEEEPT_S5_
FNA:1,245,_ZNSt3__112__to_addressB8ne200100IN4dbal4core11RelationDefEEEPT_S5_
FNA:1,0,_ZNSt3__112__to_addressB8ne200100IN4dbal4core23CompensatingTransaction6UndoOpEEEPT_S6_
FNA:1,14884,_ZNSt3__112__to_addressB8ne200100IN4dbal8adapters11EntityFieldEEEPT_S5_
FNA:1,570,_ZNSt3__112__to_addressB8ne200100IN4dbal8adapters11RelationDefEEEPT_S5_
FNA:1,9454,_ZNSt3__112__to_addressB8ne200100IN4dbal8adapters15FieldDefinitionEEEPT_S5_
FNA:1,1793,_ZNSt3__112__to_addressB8ne200100IN4dbal8adapters15IndexDefinitionEEEPT_S5_
FNA:1,815,_ZNSt3__112__to_addressB8ne200100IN4dbal8adapters16EntityDefinitionEEEPT_S5_
FNA:1,0,_ZNSt3__112__to_addressB8ne200100IN4dbal8adapters18RelationDefinitionEEEPT_S5_
FNA:1,4684,_ZNSt3__112__to_addressB8ne200100IN4dbal8adapters3sql6SqlRowEEEPT_S6_
FNA:1,20163,_ZNSt3__112__to_addressB8ne200100IN4dbal8adapters3sql8SqlParamEEEPT_S6_
FNA:1,288260,_ZNSt3__112__to_addressB8ne200100IN8nlohmann16json_abi_v3_11_310basic_jsonINS_3mapENS_6vectorENS_12basic_stringIcNS_11char_traitsIcEENS_9allocatorIcEEEEbxydS9_NS2_14adl_serializerENS5_IhNS9_IhEEEEvEEEEPT_SH_
FNA:1,636,_ZNSt3__112__to_addressB8ne200100INS_10shared_ptrIN4inja12FunctionNodeEEEEEPT_S6_
FNA:1,31588,_ZNSt3__112__to_addressB8ne200100INS_10shared_ptrIN4inja14ExpressionNodeEEEEEPT_S6_
FNA:1,19928,_ZNSt3__112__to_addressB8ne200100INS_10shared_ptrIN4inja7AstNodeEEEEEPT_S6_
FNA:1,11024,_ZNSt3__112__to_addressB8ne200100INS_10shared_ptrIN8nlohmann16json_abi_v3_11_310basic_jsonINS_3mapENS_6vectorENS_12basic_stringIcNS_11char_traitsIcEENS_9allocatorIcEEEEbxydSA_NS3_14adl_serializerENS6_IhNSA_IhEEEEvEEEEEEPT_SJ_
FNA:1,1710,_ZNSt3__112__to_addressB8ne200100INS_10unique_ptrIN4dbal8adapters3sql13SqlConnectionENS_14default_deleteIS5_EEEEEEPT_SA_
FNA:1,155122,_ZNSt3__112__to_addressB8ne200100INS_12basic_stringIcNS_11char_traitsIcEENS_9allocatorIcEEEEEEPT_S8_
FNA:1,0,_ZNSt3__112__to_addressB8ne200100INS_4pairINS_12basic_stringIcNS_11char_traitsIcEENS_9allocatorIcEEEES7_EEEEPT_SA_
FNA:1,0,_ZNSt3__112__to_addressB8ne200100INS_4pairIccEEEEPT_S4_
FNA:1,0,_ZNSt3__112__to_addressB8ne200100INS_4pairImPKcEEEEPT_S6_
FNA:1,36,_ZNSt3__112__to_addressB8ne200100INS_6threadEEEPT_S3_
FNA:1,0,_ZNSt3__112__to_addressB8ne200100INS_7__stateIcEEEEPT_S4_
FNA:1,0,_ZNSt3__112__to_addressB8ne200100INS_9sub_matchINS_11__wrap_iterIPKcEEEEEEPT_S8_
FNA:1,0,_ZNSt3__112__to_addressB8ne200100INS_9sub_matchIPKcEEEEPT_S6_
FNA:1,0,_ZNSt3__112__to_addressB8ne200100IPKN4inja18BlockStatementNodeEEEPT_S6_
